
bfs:     file format elf64-x86-64


Disassembly of section .init:

0000000000003000 <_init>:
_init():
    3000:	    f3 0f 1e fa          	endbr64 
    3004:	    48 83 ec 08          	sub    $0x8,%rsp
    3008:	    48 8b 05 d9 2f 01 00 	mov    0x12fd9(%rip),%rax        # 15fe8 <__gmon_start__>
    300f:	    48 85 c0             	test   %rax,%rax
    3012:	/-- 74 02                	je     3016 <_init+0x16>
    3014:	|   ff d0                	callq  *%rax
    3016:	\-> 48 83 c4 08          	add    $0x8,%rsp
    301a:	    c3                   	retq   

Disassembly of section .plt:

0000000000003020 <.plt>:
    3020:	/-> ff 35 72 2d 01 00    	pushq  0x12d72(%rip)        # 15d98 <_GLOBAL_OFFSET_TABLE_+0x8>
    3026:	|   f2 ff 25 73 2d 01 00 	bnd jmpq *0x12d73(%rip)        # 15da0 <_GLOBAL_OFFSET_TABLE_+0x10>
    302d:	|   0f 1f 00             	nopl   (%rax)
    3030:	|   f3 0f 1e fa          	endbr64 
    3034:	|   68 00 00 00 00       	pushq  $0x0
    3039:	+-- f2 e9 e1 ff ff ff    	bnd jmpq 3020 <.plt>
    303f:	|   90                   	nop
    3040:	|   f3 0f 1e fa          	endbr64 
    3044:	|   68 01 00 00 00       	pushq  $0x1
    3049:	+-- f2 e9 d1 ff ff ff    	bnd jmpq 3020 <.plt>
    304f:	|   90                   	nop
    3050:	|   f3 0f 1e fa          	endbr64 
    3054:	|   68 02 00 00 00       	pushq  $0x2
    3059:	+-- f2 e9 c1 ff ff ff    	bnd jmpq 3020 <.plt>
    305f:	|   90                   	nop
    3060:	|   f3 0f 1e fa          	endbr64 
    3064:	|   68 03 00 00 00       	pushq  $0x3
    3069:	+-- f2 e9 b1 ff ff ff    	bnd jmpq 3020 <.plt>
    306f:	|   90                   	nop
    3070:	|   f3 0f 1e fa          	endbr64 
    3074:	|   68 04 00 00 00       	pushq  $0x4
    3079:	+-- f2 e9 a1 ff ff ff    	bnd jmpq 3020 <.plt>
    307f:	|   90                   	nop
    3080:	|   f3 0f 1e fa          	endbr64 
    3084:	|   68 05 00 00 00       	pushq  $0x5
    3089:	+-- f2 e9 91 ff ff ff    	bnd jmpq 3020 <.plt>
    308f:	|   90                   	nop
    3090:	|   f3 0f 1e fa          	endbr64 
    3094:	|   68 06 00 00 00       	pushq  $0x6
    3099:	+-- f2 e9 81 ff ff ff    	bnd jmpq 3020 <.plt>
    309f:	|   90                   	nop
    30a0:	|   f3 0f 1e fa          	endbr64 
    30a4:	|   68 07 00 00 00       	pushq  $0x7
    30a9:	+-- f2 e9 71 ff ff ff    	bnd jmpq 3020 <.plt>
    30af:	|   90                   	nop
    30b0:	|   f3 0f 1e fa          	endbr64 
    30b4:	|   68 08 00 00 00       	pushq  $0x8
    30b9:	+-- f2 e9 61 ff ff ff    	bnd jmpq 3020 <.plt>
    30bf:	|   90                   	nop
    30c0:	|   f3 0f 1e fa          	endbr64 
    30c4:	|   68 09 00 00 00       	pushq  $0x9
    30c9:	+-- f2 e9 51 ff ff ff    	bnd jmpq 3020 <.plt>
    30cf:	|   90                   	nop
    30d0:	|   f3 0f 1e fa          	endbr64 
    30d4:	|   68 0a 00 00 00       	pushq  $0xa
    30d9:	+-- f2 e9 41 ff ff ff    	bnd jmpq 3020 <.plt>
    30df:	|   90                   	nop
    30e0:	|   f3 0f 1e fa          	endbr64 
    30e4:	|   68 0b 00 00 00       	pushq  $0xb
    30e9:	+-- f2 e9 31 ff ff ff    	bnd jmpq 3020 <.plt>
    30ef:	|   90                   	nop
    30f0:	|   f3 0f 1e fa          	endbr64 
    30f4:	|   68 0c 00 00 00       	pushq  $0xc
    30f9:	+-- f2 e9 21 ff ff ff    	bnd jmpq 3020 <.plt>
    30ff:	|   90                   	nop
    3100:	|   f3 0f 1e fa          	endbr64 
    3104:	|   68 0d 00 00 00       	pushq  $0xd
    3109:	+-- f2 e9 11 ff ff ff    	bnd jmpq 3020 <.plt>
    310f:	|   90                   	nop
    3110:	|   f3 0f 1e fa          	endbr64 
    3114:	|   68 0e 00 00 00       	pushq  $0xe
    3119:	+-- f2 e9 01 ff ff ff    	bnd jmpq 3020 <.plt>
    311f:	|   90                   	nop
    3120:	|   f3 0f 1e fa          	endbr64 
    3124:	|   68 0f 00 00 00       	pushq  $0xf
    3129:	+-- f2 e9 f1 fe ff ff    	bnd jmpq 3020 <.plt>
    312f:	|   90                   	nop
    3130:	|   f3 0f 1e fa          	endbr64 
    3134:	|   68 10 00 00 00       	pushq  $0x10
    3139:	+-- f2 e9 e1 fe ff ff    	bnd jmpq 3020 <.plt>
    313f:	|   90                   	nop
    3140:	|   f3 0f 1e fa          	endbr64 
    3144:	|   68 11 00 00 00       	pushq  $0x11
    3149:	+-- f2 e9 d1 fe ff ff    	bnd jmpq 3020 <.plt>
    314f:	|   90                   	nop
    3150:	|   f3 0f 1e fa          	endbr64 
    3154:	|   68 12 00 00 00       	pushq  $0x12
    3159:	+-- f2 e9 c1 fe ff ff    	bnd jmpq 3020 <.plt>
    315f:	|   90                   	nop
    3160:	|   f3 0f 1e fa          	endbr64 
    3164:	|   68 13 00 00 00       	pushq  $0x13
    3169:	+-- f2 e9 b1 fe ff ff    	bnd jmpq 3020 <.plt>
    316f:	|   90                   	nop
    3170:	|   f3 0f 1e fa          	endbr64 
    3174:	|   68 14 00 00 00       	pushq  $0x14
    3179:	+-- f2 e9 a1 fe ff ff    	bnd jmpq 3020 <.plt>
    317f:	|   90                   	nop
    3180:	|   f3 0f 1e fa          	endbr64 
    3184:	|   68 15 00 00 00       	pushq  $0x15
    3189:	+-- f2 e9 91 fe ff ff    	bnd jmpq 3020 <.plt>
    318f:	|   90                   	nop
    3190:	|   f3 0f 1e fa          	endbr64 
    3194:	|   68 16 00 00 00       	pushq  $0x16
    3199:	+-- f2 e9 81 fe ff ff    	bnd jmpq 3020 <.plt>
    319f:	|   90                   	nop
    31a0:	|   f3 0f 1e fa          	endbr64 
    31a4:	|   68 17 00 00 00       	pushq  $0x17
    31a9:	+-- f2 e9 71 fe ff ff    	bnd jmpq 3020 <.plt>
    31af:	|   90                   	nop
    31b0:	|   f3 0f 1e fa          	endbr64 
    31b4:	|   68 18 00 00 00       	pushq  $0x18
    31b9:	+-- f2 e9 61 fe ff ff    	bnd jmpq 3020 <.plt>
    31bf:	|   90                   	nop
    31c0:	|   f3 0f 1e fa          	endbr64 
    31c4:	|   68 19 00 00 00       	pushq  $0x19
    31c9:	+-- f2 e9 51 fe ff ff    	bnd jmpq 3020 <.plt>
    31cf:	|   90                   	nop
    31d0:	|   f3 0f 1e fa          	endbr64 
    31d4:	|   68 1a 00 00 00       	pushq  $0x1a
    31d9:	+-- f2 e9 41 fe ff ff    	bnd jmpq 3020 <.plt>
    31df:	|   90                   	nop
    31e0:	|   f3 0f 1e fa          	endbr64 
    31e4:	|   68 1b 00 00 00       	pushq  $0x1b
    31e9:	+-- f2 e9 31 fe ff ff    	bnd jmpq 3020 <.plt>
    31ef:	|   90                   	nop
    31f0:	|   f3 0f 1e fa          	endbr64 
    31f4:	|   68 1c 00 00 00       	pushq  $0x1c
    31f9:	+-- f2 e9 21 fe ff ff    	bnd jmpq 3020 <.plt>
    31ff:	|   90                   	nop
    3200:	|   f3 0f 1e fa          	endbr64 
    3204:	|   68 1d 00 00 00       	pushq  $0x1d
    3209:	+-- f2 e9 11 fe ff ff    	bnd jmpq 3020 <.plt>
    320f:	|   90                   	nop
    3210:	|   f3 0f 1e fa          	endbr64 
    3214:	|   68 1e 00 00 00       	pushq  $0x1e
    3219:	+-- f2 e9 01 fe ff ff    	bnd jmpq 3020 <.plt>
    321f:	|   90                   	nop
    3220:	|   f3 0f 1e fa          	endbr64 
    3224:	|   68 1f 00 00 00       	pushq  $0x1f
    3229:	+-- f2 e9 f1 fd ff ff    	bnd jmpq 3020 <.plt>
    322f:	|   90                   	nop
    3230:	|   f3 0f 1e fa          	endbr64 
    3234:	|   68 20 00 00 00       	pushq  $0x20
    3239:	+-- f2 e9 e1 fd ff ff    	bnd jmpq 3020 <.plt>
    323f:	|   90                   	nop
    3240:	|   f3 0f 1e fa          	endbr64 
    3244:	|   68 21 00 00 00       	pushq  $0x21
    3249:	+-- f2 e9 d1 fd ff ff    	bnd jmpq 3020 <.plt>
    324f:	|   90                   	nop
    3250:	|   f3 0f 1e fa          	endbr64 
    3254:	|   68 22 00 00 00       	pushq  $0x22
    3259:	+-- f2 e9 c1 fd ff ff    	bnd jmpq 3020 <.plt>
    325f:	|   90                   	nop
    3260:	|   f3 0f 1e fa          	endbr64 
    3264:	|   68 23 00 00 00       	pushq  $0x23
    3269:	+-- f2 e9 b1 fd ff ff    	bnd jmpq 3020 <.plt>
    326f:	|   90                   	nop
    3270:	|   f3 0f 1e fa          	endbr64 
    3274:	|   68 24 00 00 00       	pushq  $0x24
    3279:	+-- f2 e9 a1 fd ff ff    	bnd jmpq 3020 <.plt>
    327f:	|   90                   	nop
    3280:	|   f3 0f 1e fa          	endbr64 
    3284:	|   68 25 00 00 00       	pushq  $0x25
    3289:	+-- f2 e9 91 fd ff ff    	bnd jmpq 3020 <.plt>
    328f:	|   90                   	nop
    3290:	|   f3 0f 1e fa          	endbr64 
    3294:	|   68 26 00 00 00       	pushq  $0x26
    3299:	+-- f2 e9 81 fd ff ff    	bnd jmpq 3020 <.plt>
    329f:	|   90                   	nop
    32a0:	|   f3 0f 1e fa          	endbr64 
    32a4:	|   68 27 00 00 00       	pushq  $0x27
    32a9:	+-- f2 e9 71 fd ff ff    	bnd jmpq 3020 <.plt>
    32af:	|   90                   	nop
    32b0:	|   f3 0f 1e fa          	endbr64 
    32b4:	|   68 28 00 00 00       	pushq  $0x28
    32b9:	+-- f2 e9 61 fd ff ff    	bnd jmpq 3020 <.plt>
    32bf:	|   90                   	nop
    32c0:	|   f3 0f 1e fa          	endbr64 
    32c4:	|   68 29 00 00 00       	pushq  $0x29
    32c9:	+-- f2 e9 51 fd ff ff    	bnd jmpq 3020 <.plt>
    32cf:	|   90                   	nop
    32d0:	|   f3 0f 1e fa          	endbr64 
    32d4:	|   68 2a 00 00 00       	pushq  $0x2a
    32d9:	+-- f2 e9 41 fd ff ff    	bnd jmpq 3020 <.plt>
    32df:	|   90                   	nop
    32e0:	|   f3 0f 1e fa          	endbr64 
    32e4:	|   68 2b 00 00 00       	pushq  $0x2b
    32e9:	+-- f2 e9 31 fd ff ff    	bnd jmpq 3020 <.plt>
    32ef:	|   90                   	nop
    32f0:	|   f3 0f 1e fa          	endbr64 
    32f4:	|   68 2c 00 00 00       	pushq  $0x2c
    32f9:	+-- f2 e9 21 fd ff ff    	bnd jmpq 3020 <.plt>
    32ff:	|   90                   	nop
    3300:	|   f3 0f 1e fa          	endbr64 
    3304:	|   68 2d 00 00 00       	pushq  $0x2d
    3309:	+-- f2 e9 11 fd ff ff    	bnd jmpq 3020 <.plt>
    330f:	|   90                   	nop
    3310:	|   f3 0f 1e fa          	endbr64 
    3314:	|   68 2e 00 00 00       	pushq  $0x2e
    3319:	+-- f2 e9 01 fd ff ff    	bnd jmpq 3020 <.plt>
    331f:	|   90                   	nop
    3320:	|   f3 0f 1e fa          	endbr64 
    3324:	|   68 2f 00 00 00       	pushq  $0x2f
    3329:	+-- f2 e9 f1 fc ff ff    	bnd jmpq 3020 <.plt>
    332f:	|   90                   	nop
    3330:	|   f3 0f 1e fa          	endbr64 
    3334:	|   68 30 00 00 00       	pushq  $0x30
    3339:	+-- f2 e9 e1 fc ff ff    	bnd jmpq 3020 <.plt>
    333f:	|   90                   	nop
    3340:	|   f3 0f 1e fa          	endbr64 
    3344:	|   68 31 00 00 00       	pushq  $0x31
    3349:	+-- f2 e9 d1 fc ff ff    	bnd jmpq 3020 <.plt>
    334f:	|   90                   	nop
    3350:	|   f3 0f 1e fa          	endbr64 
    3354:	|   68 32 00 00 00       	pushq  $0x32
    3359:	+-- f2 e9 c1 fc ff ff    	bnd jmpq 3020 <.plt>
    335f:	|   90                   	nop
    3360:	|   f3 0f 1e fa          	endbr64 
    3364:	|   68 33 00 00 00       	pushq  $0x33
    3369:	+-- f2 e9 b1 fc ff ff    	bnd jmpq 3020 <.plt>
    336f:	|   90                   	nop
    3370:	|   f3 0f 1e fa          	endbr64 
    3374:	|   68 34 00 00 00       	pushq  $0x34
    3379:	+-- f2 e9 a1 fc ff ff    	bnd jmpq 3020 <.plt>
    337f:	|   90                   	nop
    3380:	|   f3 0f 1e fa          	endbr64 
    3384:	|   68 35 00 00 00       	pushq  $0x35
    3389:	+-- f2 e9 91 fc ff ff    	bnd jmpq 3020 <.plt>
    338f:	|   90                   	nop
    3390:	|   f3 0f 1e fa          	endbr64 
    3394:	|   68 36 00 00 00       	pushq  $0x36
    3399:	+-- f2 e9 81 fc ff ff    	bnd jmpq 3020 <.plt>
    339f:	|   90                   	nop
    33a0:	|   f3 0f 1e fa          	endbr64 
    33a4:	|   68 37 00 00 00       	pushq  $0x37
    33a9:	+-- f2 e9 71 fc ff ff    	bnd jmpq 3020 <.plt>
    33af:	|   90                   	nop
    33b0:	|   f3 0f 1e fa          	endbr64 
    33b4:	|   68 38 00 00 00       	pushq  $0x38
    33b9:	+-- f2 e9 61 fc ff ff    	bnd jmpq 3020 <.plt>
    33bf:	|   90                   	nop
    33c0:	|   f3 0f 1e fa          	endbr64 
    33c4:	|   68 39 00 00 00       	pushq  $0x39
    33c9:	+-- f2 e9 51 fc ff ff    	bnd jmpq 3020 <.plt>
    33cf:	|   90                   	nop
    33d0:	|   f3 0f 1e fa          	endbr64 
    33d4:	|   68 3a 00 00 00       	pushq  $0x3a
    33d9:	+-- f2 e9 41 fc ff ff    	bnd jmpq 3020 <.plt>
    33df:	|   90                   	nop
    33e0:	|   f3 0f 1e fa          	endbr64 
    33e4:	|   68 3b 00 00 00       	pushq  $0x3b
    33e9:	+-- f2 e9 31 fc ff ff    	bnd jmpq 3020 <.plt>
    33ef:	|   90                   	nop
    33f0:	|   f3 0f 1e fa          	endbr64 
    33f4:	|   68 3c 00 00 00       	pushq  $0x3c
    33f9:	+-- f2 e9 21 fc ff ff    	bnd jmpq 3020 <.plt>
    33ff:	|   90                   	nop
    3400:	|   f3 0f 1e fa          	endbr64 
    3404:	|   68 3d 00 00 00       	pushq  $0x3d
    3409:	+-- f2 e9 11 fc ff ff    	bnd jmpq 3020 <.plt>
    340f:	|   90                   	nop
    3410:	|   f3 0f 1e fa          	endbr64 
    3414:	|   68 3e 00 00 00       	pushq  $0x3e
    3419:	+-- f2 e9 01 fc ff ff    	bnd jmpq 3020 <.plt>
    341f:	|   90                   	nop
    3420:	|   f3 0f 1e fa          	endbr64 
    3424:	|   68 3f 00 00 00       	pushq  $0x3f
    3429:	+-- f2 e9 f1 fb ff ff    	bnd jmpq 3020 <.plt>
    342f:	|   90                   	nop
    3430:	|   f3 0f 1e fa          	endbr64 
    3434:	|   68 40 00 00 00       	pushq  $0x40
    3439:	+-- f2 e9 e1 fb ff ff    	bnd jmpq 3020 <.plt>
    343f:	|   90                   	nop
    3440:	|   f3 0f 1e fa          	endbr64 
    3444:	|   68 41 00 00 00       	pushq  $0x41
    3449:	+-- f2 e9 d1 fb ff ff    	bnd jmpq 3020 <.plt>
    344f:	|   90                   	nop
    3450:	|   f3 0f 1e fa          	endbr64 
    3454:	|   68 42 00 00 00       	pushq  $0x42
    3459:	+-- f2 e9 c1 fb ff ff    	bnd jmpq 3020 <.plt>
    345f:	|   90                   	nop
    3460:	|   f3 0f 1e fa          	endbr64 
    3464:	|   68 43 00 00 00       	pushq  $0x43
    3469:	+-- f2 e9 b1 fb ff ff    	bnd jmpq 3020 <.plt>
    346f:	|   90                   	nop
    3470:	|   f3 0f 1e fa          	endbr64 
    3474:	|   68 44 00 00 00       	pushq  $0x44
    3479:	\-- f2 e9 a1 fb ff ff    	bnd jmpq 3020 <.plt>
    347f:	    90                   	nop

Disassembly of section .plt.got:

0000000000003480 <__cxa_finalize@plt>:
    3480:	f3 0f 1e fa          	endbr64 
    3484:	f2 ff 25 45 2b 01 00 	bnd jmpq *0x12b45(%rip)        # 15fd0 <__cxa_finalize@GLIBC_2.2.5>
    348b:	0f 1f 44 00 00       	nopl   0x0(%rax,%rax,1)

Disassembly of section .plt.sec:

0000000000003490 <__printf_chk@plt>:
    3490:	f3 0f 1e fa          	endbr64 
    3494:	f2 ff 25 0d 29 01 00 	bnd jmpq *0x1290d(%rip)        # 15da8 <__printf_chk@GLIBC_2.3.4>
    349b:	0f 1f 44 00 00       	nopl   0x0(%rax,%rax,1)

00000000000034a0 <_Znam@plt>:
    34a0:	f3 0f 1e fa          	endbr64 
    34a4:	f2 ff 25 05 29 01 00 	bnd jmpq *0x12905(%rip)        # 15db0 <_Znam@GLIBCXX_3.4>
    34ab:	0f 1f 44 00 00       	nopl   0x0(%rax,%rax,1)

00000000000034b0 <_ZNSo3putEc@plt>:
    34b0:	f3 0f 1e fa          	endbr64 
    34b4:	f2 ff 25 fd 28 01 00 	bnd jmpq *0x128fd(%rip)        # 15db8 <_ZNSo3putEc@GLIBCXX_3.4>
    34bb:	0f 1f 44 00 00       	nopl   0x0(%rax,%rax,1)

00000000000034c0 <_ZNSt6chrono3_V212system_clock3nowEv@plt>:
    34c0:	f3 0f 1e fa          	endbr64 
    34c4:	f2 ff 25 f5 28 01 00 	bnd jmpq *0x128f5(%rip)        # 15dc0 <_ZNSt6chrono3_V212system_clock3nowEv@GLIBCXX_3.4.19>
    34cb:	0f 1f 44 00 00       	nopl   0x0(%rax,%rax,1)

00000000000034d0 <_ZNSt13basic_filebufIcSt11char_traitsIcEE5closeEv@plt>:
    34d0:	f3 0f 1e fa          	endbr64 
    34d4:	f2 ff 25 ed 28 01 00 	bnd jmpq *0x128ed(%rip)        # 15dc8 <_ZNSt13basic_filebufIcSt11char_traitsIcEE5closeEv@GLIBCXX_3.4>
    34db:	0f 1f 44 00 00       	nopl   0x0(%rax,%rax,1)

00000000000034e0 <getopt@plt>:
    34e0:	f3 0f 1e fa          	endbr64 
    34e4:	f2 ff 25 e5 28 01 00 	bnd jmpq *0x128e5(%rip)        # 15dd0 <getopt@GLIBC_2.2.5>
    34eb:	0f 1f 44 00 00       	nopl   0x0(%rax,%rax,1)

00000000000034f0 <_ZNKSt12__basic_fileIcE7is_openEv@plt>:
    34f0:	f3 0f 1e fa          	endbr64 
    34f4:	f2 ff 25 dd 28 01 00 	bnd jmpq *0x128dd(%rip)        # 15dd8 <_ZNKSt12__basic_fileIcE7is_openEv@GLIBCXX_3.4>
    34fb:	0f 1f 44 00 00       	nopl   0x0(%rax,%rax,1)

0000000000003500 <_ZNSt14basic_ifstreamIcSt11char_traitsIcEED1Ev@plt>:
    3500:	f3 0f 1e fa          	endbr64 
    3504:	f2 ff 25 d5 28 01 00 	bnd jmpq *0x128d5(%rip)        # 15de0 <_ZNSt14basic_ifstreamIcSt11char_traitsIcEED1Ev@GLIBCXX_3.4>
    350b:	0f 1f 44 00 00       	nopl   0x0(%rax,%rax,1)

0000000000003510 <_ZNKSt7__cxx1112basic_stringIcSt11char_traitsIcESaIcEE7compareEPKc@plt>:
    3510:	f3 0f 1e fa          	endbr64 
    3514:	f2 ff 25 cd 28 01 00 	bnd jmpq *0x128cd(%rip)        # 15de8 <_ZNKSt7__cxx1112basic_stringIcSt11char_traitsIcESaIcEE7compareEPKc@GLIBCXX_3.4.21>
    351b:	0f 1f 44 00 00       	nopl   0x0(%rax,%rax,1)

0000000000003520 <_ZNSt8ios_baseC2Ev@plt>:
    3520:	f3 0f 1e fa          	endbr64 
    3524:	f2 ff 25 c5 28 01 00 	bnd jmpq *0x128c5(%rip)        # 15df0 <_ZNSt8ios_baseC2Ev@GLIBCXX_3.4>
    352b:	0f 1f 44 00 00       	nopl   0x0(%rax,%rax,1)

0000000000003530 <_ZNSt7__cxx1112basic_stringIcSt11char_traitsIcESaIcEE9_M_appendEPKcm@plt>:
    3530:	f3 0f 1e fa          	endbr64 
    3534:	f2 ff 25 bd 28 01 00 	bnd jmpq *0x128bd(%rip)        # 15df8 <_ZNSt7__cxx1112basic_stringIcSt11char_traitsIcESaIcEE9_M_appendEPKcm@GLIBCXX_3.4.21>
    353b:	0f 1f 44 00 00       	nopl   0x0(%rax,%rax,1)

0000000000003540 <_ZNSt8ios_baseD2Ev@plt>:
    3540:	f3 0f 1e fa          	endbr64 
    3544:	f2 ff 25 b5 28 01 00 	bnd jmpq *0x128b5(%rip)        # 15e00 <_ZNSt8ios_baseD2Ev@GLIBCXX_3.4>
    354b:	0f 1f 44 00 00       	nopl   0x0(%rax,%rax,1)

0000000000003550 <_ZNSi4peekEv@plt>:
    3550:	f3 0f 1e fa          	endbr64 
    3554:	f2 ff 25 ad 28 01 00 	bnd jmpq *0x128ad(%rip)        # 15e08 <_ZNSi4peekEv@GLIBCXX_3.4>
    355b:	0f 1f 44 00 00       	nopl   0x0(%rax,%rax,1)

0000000000003560 <__cxa_begin_catch@plt>:
    3560:	f3 0f 1e fa          	endbr64 
    3564:	f2 ff 25 a5 28 01 00 	bnd jmpq *0x128a5(%rip)        # 15e10 <__cxa_begin_catch@CXXABI_1.3>
    356b:	0f 1f 44 00 00       	nopl   0x0(%rax,%rax,1)

0000000000003570 <strlen@plt>:
    3570:	f3 0f 1e fa          	endbr64 
    3574:	f2 ff 25 9d 28 01 00 	bnd jmpq *0x1289d(%rip)        # 15e18 <strlen@GLIBC_2.2.5>
    357b:	0f 1f 44 00 00       	nopl   0x0(%rax,%rax,1)

0000000000003580 <_ZNSt7__cxx1119basic_istringstreamIcSt11char_traitsIcESaIcEED1Ev@plt>:
    3580:	f3 0f 1e fa          	endbr64 
    3584:	f2 ff 25 95 28 01 00 	bnd jmpq *0x12895(%rip)        # 15e20 <_ZNSt7__cxx1119basic_istringstreamIcSt11char_traitsIcESaIcEED1Ev@GLIBCXX_3.4.21>
    358b:	0f 1f 44 00 00       	nopl   0x0(%rax,%rax,1)

0000000000003590 <GOMP_loop_end_nowait@plt>:
    3590:	f3 0f 1e fa          	endbr64 
    3594:	f2 ff 25 8d 28 01 00 	bnd jmpq *0x1288d(%rip)        # 15e28 <GOMP_loop_end_nowait@GOMP_1.0>
    359b:	0f 1f 44 00 00       	nopl   0x0(%rax,%rax,1)

00000000000035a0 <_ZSt20__throw_length_errorPKc@plt>:
    35a0:	f3 0f 1e fa          	endbr64 
    35a4:	f2 ff 25 85 28 01 00 	bnd jmpq *0x12885(%rip)        # 15e30 <_ZSt20__throw_length_errorPKc@GLIBCXX_3.4>
    35ab:	0f 1f 44 00 00       	nopl   0x0(%rax,%rax,1)

00000000000035b0 <memset@plt>:
    35b0:	f3 0f 1e fa          	endbr64 
    35b4:	f2 ff 25 7d 28 01 00 	bnd jmpq *0x1287d(%rip)        # 15e38 <memset@GLIBC_2.2.5>
    35bb:	0f 1f 44 00 00       	nopl   0x0(%rax,%rax,1)

00000000000035c0 <__snprintf_chk@plt>:
    35c0:	f3 0f 1e fa          	endbr64 
    35c4:	f2 ff 25 75 28 01 00 	bnd jmpq *0x12875(%rip)        # 15e40 <__snprintf_chk@GLIBC_2.3.4>
    35cb:	0f 1f 44 00 00       	nopl   0x0(%rax,%rax,1)

00000000000035d0 <_ZNSirsERi@plt>:
    35d0:	f3 0f 1e fa          	endbr64 
    35d4:	f2 ff 25 6d 28 01 00 	bnd jmpq *0x1286d(%rip)        # 15e48 <_ZNSirsERi@GLIBCXX_3.4>
    35db:	0f 1f 44 00 00       	nopl   0x0(%rax,%rax,1)

00000000000035e0 <_ZNSi6ignoreEli@plt>:
    35e0:	f3 0f 1e fa          	endbr64 
    35e4:	f2 ff 25 65 28 01 00 	bnd jmpq *0x12865(%rip)        # 15e50 <_ZNSi6ignoreEli@GLIBCXX_3.4>
    35eb:	0f 1f 44 00 00       	nopl   0x0(%rax,%rax,1)

00000000000035f0 <_ZNSo5flushEv@plt>:
    35f0:	f3 0f 1e fa          	endbr64 
    35f4:	f2 ff 25 5d 28 01 00 	bnd jmpq *0x1285d(%rip)        # 15e58 <_ZNSo5flushEv@GLIBCXX_3.4>
    35fb:	0f 1f 44 00 00       	nopl   0x0(%rax,%rax,1)

0000000000003600 <_ZSt19__throw_logic_errorPKc@plt>:
    3600:	f3 0f 1e fa          	endbr64 
    3604:	f2 ff 25 55 28 01 00 	bnd jmpq *0x12855(%rip)        # 15e60 <_ZSt19__throw_logic_errorPKc@GLIBCXX_3.4>
    360b:	0f 1f 44 00 00       	nopl   0x0(%rax,%rax,1)

0000000000003610 <memcpy@plt>:
    3610:	f3 0f 1e fa          	endbr64 
    3614:	f2 ff 25 4d 28 01 00 	bnd jmpq *0x1284d(%rip)        # 15e68 <memcpy@GLIBC_2.14>
    361b:	0f 1f 44 00 00       	nopl   0x0(%rax,%rax,1)

0000000000003620 <_ZSt2wsIcSt11char_traitsIcEERSt13basic_istreamIT_T0_ES6_@plt>:
    3620:	f3 0f 1e fa          	endbr64 
    3624:	f2 ff 25 45 28 01 00 	bnd jmpq *0x12845(%rip)        # 15e70 <_ZSt2wsIcSt11char_traitsIcEERSt13basic_istreamIT_T0_ES6_@GLIBCXX_3.4>
    362b:	0f 1f 44 00 00       	nopl   0x0(%rax,%rax,1)

0000000000003630 <__cxa_atexit@plt>:
    3630:	f3 0f 1e fa          	endbr64 
    3634:	f2 ff 25 3d 28 01 00 	bnd jmpq *0x1283d(%rip)        # 15e78 <__cxa_atexit@GLIBC_2.2.5>
    363b:	0f 1f 44 00 00       	nopl   0x0(%rax,%rax,1)

0000000000003640 <_ZNSt13basic_filebufIcSt11char_traitsIcEE4openEPKcSt13_Ios_Openmode@plt>:
    3640:	f3 0f 1e fa          	endbr64 
    3644:	f2 ff 25 35 28 01 00 	bnd jmpq *0x12835(%rip)        # 15e80 <_ZNSt13basic_filebufIcSt11char_traitsIcEE4openEPKcSt13_Ios_Openmode@GLIBCXX_3.4>
    364b:	0f 1f 44 00 00       	nopl   0x0(%rax,%rax,1)

0000000000003650 <_ZdlPv@plt>:
    3650:	f3 0f 1e fa          	endbr64 
    3654:	f2 ff 25 2d 28 01 00 	bnd jmpq *0x1282d(%rip)        # 15e88 <_ZdlPv@GLIBCXX_3.4>
    365b:	0f 1f 44 00 00       	nopl   0x0(%rax,%rax,1)

0000000000003660 <_ZNSo9_M_insertIlEERSoT_@plt>:
    3660:	f3 0f 1e fa          	endbr64 
    3664:	f2 ff 25 25 28 01 00 	bnd jmpq *0x12825(%rip)        # 15e90 <_ZNSo9_M_insertIlEERSoT_@GLIBCXX_3.4.9>
    366b:	0f 1f 44 00 00       	nopl   0x0(%rax,%rax,1)

0000000000003670 <_Znwm@plt>:
    3670:	f3 0f 1e fa          	endbr64 
    3674:	f2 ff 25 1d 28 01 00 	bnd jmpq *0x1281d(%rip)        # 15e98 <_Znwm@GLIBCXX_3.4>
    367b:	0f 1f 44 00 00       	nopl   0x0(%rax,%rax,1)

0000000000003680 <_ZNSi10_M_extractIlEERSiRT_@plt>:
    3680:	f3 0f 1e fa          	endbr64 
    3684:	f2 ff 25 15 28 01 00 	bnd jmpq *0x12815(%rip)        # 15ea0 <_ZNSi10_M_extractIlEERSiRT_@GLIBCXX_3.4.9>
    368b:	0f 1f 44 00 00       	nopl   0x0(%rax,%rax,1)

0000000000003690 <_ZNSt13basic_filebufIcSt11char_traitsIcEEC1Ev@plt>:
    3690:	f3 0f 1e fa          	endbr64 
    3694:	f2 ff 25 0d 28 01 00 	bnd jmpq *0x1280d(%rip)        # 15ea8 <_ZNSt13basic_filebufIcSt11char_traitsIcEEC1Ev@GLIBCXX_3.4>
    369b:	0f 1f 44 00 00       	nopl   0x0(%rax,%rax,1)

00000000000036a0 <__stack_chk_fail@plt>:
    36a0:	f3 0f 1e fa          	endbr64 
    36a4:	f2 ff 25 05 28 01 00 	bnd jmpq *0x12805(%rip)        # 15eb0 <__stack_chk_fail@GLIBC_2.4>
    36ab:	0f 1f 44 00 00       	nopl   0x0(%rax,%rax,1)

00000000000036b0 <_ZSt16__ostream_insertIcSt11char_traitsIcEERSt13basic_ostreamIT_T0_ES6_PKS3_l@plt>:
    36b0:	f3 0f 1e fa          	endbr64 
    36b4:	f2 ff 25 fd 27 01 00 	bnd jmpq *0x127fd(%rip)        # 15eb8 <_ZSt16__ostream_insertIcSt11char_traitsIcEERSt13basic_ostreamIT_T0_ES6_PKS3_l@GLIBCXX_3.4.9>
    36bb:	0f 1f 44 00 00       	nopl   0x0(%rax,%rax,1)

00000000000036c0 <_ZNKSt5ctypeIcE13_M_widen_initEv@plt>:
    36c0:	f3 0f 1e fa          	endbr64 
    36c4:	f2 ff 25 f5 27 01 00 	bnd jmpq *0x127f5(%rip)        # 15ec0 <_ZNKSt5ctypeIcE13_M_widen_initEv@GLIBCXX_3.4.11>
    36cb:	0f 1f 44 00 00       	nopl   0x0(%rax,%rax,1)

00000000000036d0 <_ZNSt7__cxx1112basic_stringIcSt11char_traitsIcESaIcEE12_M_constructEmc@plt>:
    36d0:	f3 0f 1e fa          	endbr64 
    36d4:	f2 ff 25 ed 27 01 00 	bnd jmpq *0x127ed(%rip)        # 15ec8 <_ZNSt7__cxx1112basic_stringIcSt11char_traitsIcESaIcEE12_M_constructEmc@GLIBCXX_3.4.21>
    36db:	0f 1f 44 00 00       	nopl   0x0(%rax,%rax,1)

00000000000036e0 <exit@plt>:
    36e0:	f3 0f 1e fa          	endbr64 
    36e4:	f2 ff 25 e5 27 01 00 	bnd jmpq *0x127e5(%rip)        # 15ed0 <exit@GLIBC_2.2.5>
    36eb:	0f 1f 44 00 00       	nopl   0x0(%rax,%rax,1)

00000000000036f0 <_ZNSi4readEPcl@plt>:
    36f0:	f3 0f 1e fa          	endbr64 
    36f4:	f2 ff 25 dd 27 01 00 	bnd jmpq *0x127dd(%rip)        # 15ed8 <_ZNSi4readEPcl@GLIBCXX_3.4>
    36fb:	0f 1f 44 00 00       	nopl   0x0(%rax,%rax,1)

0000000000003700 <_ZSt16__throw_bad_castv@plt>:
    3700:	f3 0f 1e fa          	endbr64 
    3704:	f2 ff 25 d5 27 01 00 	bnd jmpq *0x127d5(%rip)        # 15ee0 <_ZSt16__throw_bad_castv@GLIBCXX_3.4>
    370b:	0f 1f 44 00 00       	nopl   0x0(%rax,%rax,1)

0000000000003710 <GOMP_loop_nonmonotonic_dynamic_next@plt>:
    3710:	f3 0f 1e fa          	endbr64 
    3714:	f2 ff 25 cd 27 01 00 	bnd jmpq *0x127cd(%rip)        # 15ee8 <GOMP_loop_nonmonotonic_dynamic_next@GOMP_4.5>
    371b:	0f 1f 44 00 00       	nopl   0x0(%rax,%rax,1)

0000000000003720 <_ZStrsIcSt11char_traitsIcESaIcEERSt13basic_istreamIT_T0_ES7_RNSt7__cxx1112basic_stringIS4_S5_T1_EE@plt>:
    3720:	f3 0f 1e fa          	endbr64 
    3724:	f2 ff 25 c5 27 01 00 	bnd jmpq *0x127c5(%rip)        # 15ef0 <_ZStrsIcSt11char_traitsIcESaIcEERSt13basic_istreamIT_T0_ES7_RNSt7__cxx1112basic_stringIS4_S5_T1_EE@GLIBCXX_3.4.21>
    372b:	0f 1f 44 00 00       	nopl   0x0(%rax,%rax,1)

0000000000003730 <_ZdaPv@plt>:
    3730:	f3 0f 1e fa          	endbr64 
    3734:	f2 ff 25 bd 27 01 00 	bnd jmpq *0x127bd(%rip)        # 15ef8 <_ZdaPv@GLIBCXX_3.4>
    373b:	0f 1f 44 00 00       	nopl   0x0(%rax,%rax,1)

0000000000003740 <_ZNSt7__cxx1115basic_stringbufIcSt11char_traitsIcESaIcEE7_M_syncEPcmm@plt>:
    3740:	f3 0f 1e fa          	endbr64 
    3744:	f2 ff 25 b5 27 01 00 	bnd jmpq *0x127b5(%rip)        # 15f00 <_ZNSt7__cxx1115basic_stringbufIcSt11char_traitsIcESaIcEE7_M_syncEPcmm@GLIBCXX_3.4.21>
    374b:	0f 1f 44 00 00       	nopl   0x0(%rax,%rax,1)

0000000000003750 <_ZStrsIcSt11char_traitsIcEERSt13basic_istreamIT_T0_ES6_RS3_@plt>:
    3750:	f3 0f 1e fa          	endbr64 
    3754:	f2 ff 25 ad 27 01 00 	bnd jmpq *0x127ad(%rip)        # 15f08 <_ZStrsIcSt11char_traitsIcEERSt13basic_istreamIT_T0_ES6_RS3_@GLIBCXX_3.4>
    375b:	0f 1f 44 00 00       	nopl   0x0(%rax,%rax,1)

0000000000003760 <_ZNSt9basic_iosIcSt11char_traitsIcEE4initEPSt15basic_streambufIcS1_E@plt>:
    3760:	f3 0f 1e fa          	endbr64 
    3764:	f2 ff 25 a5 27 01 00 	bnd jmpq *0x127a5(%rip)        # 15f10 <_ZNSt9basic_iosIcSt11char_traitsIcEE4initEPSt15basic_streambufIcS1_E@GLIBCXX_3.4>
    376b:	0f 1f 44 00 00       	nopl   0x0(%rax,%rax,1)

0000000000003770 <strtol@plt>:
    3770:	f3 0f 1e fa          	endbr64 
    3774:	f2 ff 25 9d 27 01 00 	bnd jmpq *0x1279d(%rip)        # 15f18 <strtol@GLIBC_2.2.5>
    377b:	0f 1f 44 00 00       	nopl   0x0(%rax,%rax,1)

0000000000003780 <_ZNSt6localeD1Ev@plt>:
    3780:	f3 0f 1e fa          	endbr64 
    3784:	f2 ff 25 95 27 01 00 	bnd jmpq *0x12795(%rip)        # 15f20 <_ZNSt6localeD1Ev@GLIBCXX_3.4>
    378b:	0f 1f 44 00 00       	nopl   0x0(%rax,%rax,1)

0000000000003790 <__cxa_throw_bad_array_new_length@plt>:
    3790:	f3 0f 1e fa          	endbr64 
    3794:	f2 ff 25 8d 27 01 00 	bnd jmpq *0x1278d(%rip)        # 15f28 <__cxa_throw_bad_array_new_length@CXXABI_1.3.8>
    379b:	0f 1f 44 00 00       	nopl   0x0(%rax,%rax,1)

00000000000037a0 <GOMP_parallel@plt>:
    37a0:	f3 0f 1e fa          	endbr64 
    37a4:	f2 ff 25 85 27 01 00 	bnd jmpq *0x12785(%rip)        # 15f30 <GOMP_parallel@GOMP_4.0>
    37ab:	0f 1f 44 00 00       	nopl   0x0(%rax,%rax,1)

00000000000037b0 <_ZSt24__throw_out_of_range_fmtPKcz@plt>:
    37b0:	f3 0f 1e fa          	endbr64 
    37b4:	f2 ff 25 7d 27 01 00 	bnd jmpq *0x1277d(%rip)        # 15f38 <_ZSt24__throw_out_of_range_fmtPKcz@GLIBCXX_3.4.20>
    37bb:	0f 1f 44 00 00       	nopl   0x0(%rax,%rax,1)

00000000000037c0 <_ZNSt8ios_base4InitC1Ev@plt>:
    37c0:	f3 0f 1e fa          	endbr64 
    37c4:	f2 ff 25 75 27 01 00 	bnd jmpq *0x12775(%rip)        # 15f40 <_ZNSt8ios_base4InitC1Ev@GLIBCXX_3.4>
    37cb:	0f 1f 44 00 00       	nopl   0x0(%rax,%rax,1)

00000000000037d0 <_ZNSt13basic_filebufIcSt11char_traitsIcEED1Ev@plt>:
    37d0:	f3 0f 1e fa          	endbr64 
    37d4:	f2 ff 25 6d 27 01 00 	bnd jmpq *0x1276d(%rip)        # 15f48 <_ZNSt13basic_filebufIcSt11char_traitsIcEED1Ev@GLIBCXX_3.4>
    37db:	0f 1f 44 00 00       	nopl   0x0(%rax,%rax,1)

00000000000037e0 <_ZNSt7__cxx1112basic_stringIcSt11char_traitsIcESaIcEE7reserveEm@plt>:
    37e0:	f3 0f 1e fa          	endbr64 
    37e4:	f2 ff 25 65 27 01 00 	bnd jmpq *0x12765(%rip)        # 15f50 <_ZNSt7__cxx1112basic_stringIcSt11char_traitsIcESaIcEE7reserveEm@GLIBCXX_3.4.21>
    37eb:	0f 1f 44 00 00       	nopl   0x0(%rax,%rax,1)

00000000000037f0 <omp_get_thread_num@plt>:
    37f0:	f3 0f 1e fa          	endbr64 
    37f4:	f2 ff 25 5d 27 01 00 	bnd jmpq *0x1275d(%rip)        # 15f58 <omp_get_thread_num@OMP_1.0>
    37fb:	0f 1f 44 00 00       	nopl   0x0(%rax,%rax,1)

0000000000003800 <memmove@plt>:
    3800:	f3 0f 1e fa          	endbr64 
    3804:	f2 ff 25 55 27 01 00 	bnd jmpq *0x12755(%rip)        # 15f60 <memmove@GLIBC_2.2.5>
    380b:	0f 1f 44 00 00       	nopl   0x0(%rax,%rax,1)

0000000000003810 <__cxa_end_catch@plt>:
    3810:	f3 0f 1e fa          	endbr64 
    3814:	f2 ff 25 4d 27 01 00 	bnd jmpq *0x1274d(%rip)        # 15f68 <__cxa_end_catch@CXXABI_1.3>
    381b:	0f 1f 44 00 00       	nopl   0x0(%rax,%rax,1)

0000000000003820 <realloc@plt>:
    3820:	f3 0f 1e fa          	endbr64 
    3824:	f2 ff 25 45 27 01 00 	bnd jmpq *0x12745(%rip)        # 15f70 <realloc@GLIBC_2.2.5>
    382b:	0f 1f 44 00 00       	nopl   0x0(%rax,%rax,1)

0000000000003830 <GOMP_loop_nonmonotonic_dynamic_start@plt>:
    3830:	f3 0f 1e fa          	endbr64 
    3834:	f2 ff 25 3d 27 01 00 	bnd jmpq *0x1273d(%rip)        # 15f78 <GOMP_loop_nonmonotonic_dynamic_start@GOMP_4.5>
    383b:	0f 1f 44 00 00       	nopl   0x0(%rax,%rax,1)

0000000000003840 <_ZNSt9basic_iosIcSt11char_traitsIcEE5clearESt12_Ios_Iostate@plt>:
    3840:	f3 0f 1e fa          	endbr64 
    3844:	f2 ff 25 35 27 01 00 	bnd jmpq *0x12735(%rip)        # 15f80 <_ZNSt9basic_iosIcSt11char_traitsIcEE5clearESt12_Ios_Iostate@GLIBCXX_3.4>
    384b:	0f 1f 44 00 00       	nopl   0x0(%rax,%rax,1)

0000000000003850 <_ZNSolsEi@plt>:
    3850:	f3 0f 1e fa          	endbr64 
    3854:	f2 ff 25 2d 27 01 00 	bnd jmpq *0x1272d(%rip)        # 15f88 <_ZNSolsEi@GLIBCXX_3.4>
    385b:	0f 1f 44 00 00       	nopl   0x0(%rax,%rax,1)

0000000000003860 <_Unwind_Resume@plt>:
    3860:	f3 0f 1e fa          	endbr64 
    3864:	f2 ff 25 25 27 01 00 	bnd jmpq *0x12725(%rip)        # 15f90 <_Unwind_Resume@GCC_3.0>
    386b:	0f 1f 44 00 00       	nopl   0x0(%rax,%rax,1)

0000000000003870 <_ZNSt7__cxx1112basic_stringIcSt11char_traitsIcESaIcEE9_M_createERmm@plt>:
    3870:	f3 0f 1e fa          	endbr64 
    3874:	f2 ff 25 1d 27 01 00 	bnd jmpq *0x1271d(%rip)        # 15f98 <_ZNSt7__cxx1112basic_stringIcSt11char_traitsIcESaIcEE9_M_createERmm@GLIBCXX_3.4.21>
    387b:	0f 1f 44 00 00       	nopl   0x0(%rax,%rax,1)

0000000000003880 <GOMP_barrier@plt>:
    3880:	f3 0f 1e fa          	endbr64 
    3884:	f2 ff 25 15 27 01 00 	bnd jmpq *0x12715(%rip)        # 15fa0 <GOMP_barrier@GOMP_1.0>
    388b:	0f 1f 44 00 00       	nopl   0x0(%rax,%rax,1)

0000000000003890 <_ZSt7getlineIcSt11char_traitsIcESaIcEERSt13basic_istreamIT_T0_ES7_RNSt7__cxx1112basic_stringIS4_S5_T1_EES4_@plt>:
    3890:	f3 0f 1e fa          	endbr64 
    3894:	f2 ff 25 0d 27 01 00 	bnd jmpq *0x1270d(%rip)        # 15fa8 <_ZSt7getlineIcSt11char_traitsIcESaIcEERSt13basic_istreamIT_T0_ES7_RNSt7__cxx1112basic_stringIS4_S5_T1_EES4_@GLIBCXX_3.4.21>
    389b:	0f 1f 44 00 00       	nopl   0x0(%rax,%rax,1)

00000000000038a0 <_ZNSt12__basic_fileIcED1Ev@plt>:
    38a0:	f3 0f 1e fa          	endbr64 
    38a4:	f2 ff 25 05 27 01 00 	bnd jmpq *0x12705(%rip)        # 15fb0 <_ZNSt12__basic_fileIcED1Ev@GLIBCXX_3.4>
    38ab:	0f 1f 44 00 00       	nopl   0x0(%rax,%rax,1)

00000000000038b0 <omp_get_num_threads@plt>:
    38b0:	f3 0f 1e fa          	endbr64 
    38b4:	f2 ff 25 fd 26 01 00 	bnd jmpq *0x126fd(%rip)        # 15fb8 <omp_get_num_threads@OMP_1.0>
    38bb:	0f 1f 44 00 00       	nopl   0x0(%rax,%rax,1)

00000000000038c0 <_ZNKSt7__cxx1112basic_stringIcSt11char_traitsIcESaIcEE5rfindEcm@plt>:
    38c0:	f3 0f 1e fa          	endbr64 
    38c4:	f2 ff 25 f5 26 01 00 	bnd jmpq *0x126f5(%rip)        # 15fc0 <_ZNKSt7__cxx1112basic_stringIcSt11char_traitsIcESaIcEE5rfindEcm@GLIBCXX_3.4.21>
    38cb:	0f 1f 44 00 00       	nopl   0x0(%rax,%rax,1)

00000000000038d0 <_ZNSt6localeC1Ev@plt>:
    38d0:	f3 0f 1e fa          	endbr64 
    38d4:	f2 ff 25 ed 26 01 00 	bnd jmpq *0x126ed(%rip)        # 15fc8 <_ZNSt6localeC1Ev@GLIBCXX_3.4>
    38db:	0f 1f 44 00 00       	nopl   0x0(%rax,%rax,1)

Disassembly of section .text:

00000000000038e0 <_Z10PrintLabelRKNSt7__cxx1112basic_stringIcSt11char_traitsIcESaIcEEES6_.cold>:
_ZNKSt7__cxx1112basic_stringIcSt11char_traitsIcESaIcEE7_M_dataEv():
/usr/include/c++/10/bits/basic_string.h:195 (discriminator 1)
      _M_length(size_type __length)
      { _M_string_length = __length; }

      pointer
      _M_data() const
      { return _M_dataplus._M_p; }
    38e0:	    48 8b 7c 24 10       	mov    0x10(%rsp),%rdi
_ZNSt7__cxx1112basic_stringIcSt11char_traitsIcESaIcEE10_M_disposeEv():
/usr/include/c++/10/bits/basic_string.h:239 (discriminator 1)
      _M_create(size_type&, size_type);

      void
      _M_dispose()
      {
	if (!_M_is_local())
    38e5:	    48 39 df             	cmp    %rbx,%rdi
    38e8:	/-- 74 05                	je     38ef <_Z10PrintLabelRKNSt7__cxx1112basic_stringIcSt11char_traitsIcESaIcEEES6_.cold+0xf>
_ZN9__gnu_cxx13new_allocatorIcE10deallocateEPcm():
/usr/include/c++/10/ext/new_allocator.h:139
# endif
			      std::align_val_t(alignof(_Tp)));
	    return;
	  }
#endif
	::operator delete(__p
    38ea:	|   e8 61 fd ff ff       	callq  3650 <_ZdlPv@plt>
_ZN9__gnu_cxx13new_allocatorIcED4Ev():
/usr/include/c++/10/ext/new_allocator.h:89
      ~new_allocator() _GLIBCXX_USE_NOEXCEPT { }
    38ef:	\-> 48 89 ef             	mov    %rbp,%rdi
    38f2:	    e8 69 ff ff ff       	callq  3860 <_Unwind_Resume@plt>

00000000000038f7 <_Z9PrintTimeRKNSt7__cxx1112basic_stringIcSt11char_traitsIcESaIcEEEd.cold>:
_ZNKSt7__cxx1112basic_stringIcSt11char_traitsIcESaIcEE7_M_dataEv():
/usr/include/c++/10/bits/basic_string.h:195 (discriminator 1)
      { return _M_dataplus._M_p; }
    38f7:	    48 8b 7c 24 10       	mov    0x10(%rsp),%rdi
_ZNSt7__cxx1112basic_stringIcSt11char_traitsIcESaIcEE10_M_disposeEv():
/usr/include/c++/10/bits/basic_string.h:239 (discriminator 1)
	if (!_M_is_local())
    38fc:	    48 39 df             	cmp    %rbx,%rdi
    38ff:	/-- 74 05                	je     3906 <_Z9PrintTimeRKNSt7__cxx1112basic_stringIcSt11char_traitsIcESaIcEEEd.cold+0xf>
_ZN9__gnu_cxx13new_allocatorIcE10deallocateEPcm():
/usr/include/c++/10/ext/new_allocator.h:139
	::operator delete(__p
    3901:	|   e8 4a fd ff ff       	callq  3650 <_ZdlPv@plt>
_ZN9__gnu_cxx13new_allocatorIcED4Ev():
/usr/include/c++/10/ext/new_allocator.h:89
      ~new_allocator() _GLIBCXX_USE_NOEXCEPT { }
    3906:	\-> 48 89 ef             	mov    %rbp,%rdi
    3909:	    e8 52 ff ff ff       	callq  3860 <_Unwind_Resume@plt>

000000000000390e <_Z9PrintStepRKNSt7__cxx1112basic_stringIcSt11char_traitsIcESaIcEEEl.cold>:
_ZNKSt7__cxx1112basic_stringIcSt11char_traitsIcESaIcEE7_M_dataEv():
/usr/include/c++/10/bits/basic_string.h:195 (discriminator 1)
      { return _M_dataplus._M_p; }
    390e:	    48 8b 7c 24 10       	mov    0x10(%rsp),%rdi
_ZNSt7__cxx1112basic_stringIcSt11char_traitsIcESaIcEE10_M_disposeEv():
/usr/include/c++/10/bits/basic_string.h:239 (discriminator 1)
	if (!_M_is_local())
    3913:	    48 39 df             	cmp    %rbx,%rdi
    3916:	/-- 74 05                	je     391d <_Z9PrintStepRKNSt7__cxx1112basic_stringIcSt11char_traitsIcESaIcEEEl.cold+0xf>
_ZN9__gnu_cxx13new_allocatorIcE10deallocateEPcm():
/usr/include/c++/10/ext/new_allocator.h:139
	::operator delete(__p
    3918:	|   e8 33 fd ff ff       	callq  3650 <_ZdlPv@plt>
_ZN9__gnu_cxx13new_allocatorIcED4Ev():
/usr/include/c++/10/ext/new_allocator.h:89
      ~new_allocator() _GLIBCXX_USE_NOEXCEPT { }
    391d:	\-> 48 89 ef             	mov    %rbp,%rdi
    3920:	    e8 3b ff ff ff       	callq  3860 <_Unwind_Resume@plt>

0000000000003925 <_Z9PrintStepidl.cold>:
_ZNKSt7__cxx1112basic_stringIcSt11char_traitsIcESaIcEE7_M_dataEv():
/usr/include/c++/10/bits/basic_string.h:195 (discriminator 1)
      { return _M_dataplus._M_p; }
    3925:	    48 8b 7c 24 10       	mov    0x10(%rsp),%rdi
_ZNSt7__cxx1112basic_stringIcSt11char_traitsIcESaIcEE10_M_disposeEv():
/usr/include/c++/10/bits/basic_string.h:239 (discriminator 1)
	if (!_M_is_local())
    392a:	    48 39 ef             	cmp    %rbp,%rdi
    392d:	/-- 74 05                	je     3934 <_Z9PrintStepidl.cold+0xf>
_ZN9__gnu_cxx13new_allocatorIcE10deallocateEPcm():
/usr/include/c++/10/ext/new_allocator.h:139
	::operator delete(__p
    392f:	|   e8 1c fd ff ff       	callq  3650 <_ZdlPv@plt>
_ZN9__gnu_cxx13new_allocatorIcED4Ev():
/usr/include/c++/10/ext/new_allocator.h:89
      ~new_allocator() _GLIBCXX_USE_NOEXCEPT { }
    3934:	\-> 4c 89 e7             	mov    %r12,%rdi
    3937:	    e8 24 ff ff ff       	callq  3860 <_Unwind_Resume@plt>

000000000000393c <_Z10InitParentRK8CSRGraphIiiLb1EE.cold>:
_ZN7pvectorIiEC4Em():
/home/aliha951/forked_gapbs/gapbs/src/pvector.h:30
  typedef T_* iterator;

  pvector() : start_(nullptr), end_size_(nullptr), end_capacity_(nullptr) {}

  explicit pvector(size_t num_elements) {
    start_ = new T_[num_elements];
    393c:	e8 4f fe ff ff       	callq  3790 <__cxa_throw_bad_array_new_length@plt>

0000000000003941 <_Z5DOBFSRK8CSRGraphIiiLb1EEibii.cold>:
_ZNKSt7__cxx1112basic_stringIcSt11char_traitsIcESaIcEE7_M_dataEv():
/usr/include/c++/10/bits/basic_string.h:195 (discriminator 4)
      { return _M_dataplus._M_p; }
    3941:	       48 8b bc 24 c0 00 00 	mov    0xc0(%rsp),%rdi
    3948:	00 
_ZNSt7__cxx1112basic_stringIcSt11char_traitsIcESaIcEE10_M_disposeEv():
/usr/include/c++/10/bits/basic_string.h:239 (discriminator 4)
	if (!_M_is_local())
    3949:	       48 39 ef             	cmp    %rbp,%rdi
    394c:	   /-- 74 05                	je     3953 <_Z5DOBFSRK8CSRGraphIiiLb1EEibii.cold+0x12>
_ZN9__gnu_cxx13new_allocatorIcE10deallocateEPcm():
/usr/include/c++/10/ext/new_allocator.h:139
	::operator delete(__p
    394e:	   |   e8 fd fc ff ff       	callq  3650 <_ZdlPv@plt>
_ZN6BitmapD4Ev():
/home/aliha951/forked_gapbs/gapbs/src/bitmap.h:32
    start_ = new uint64_t[num_words];
    end_ = start_ + num_words;
  }

  ~Bitmap() {
    delete[] start_;
    3953:	   \-> 48 8b 7c 24 60       	mov    0x60(%rsp),%rdi
    3958:	       48 85 ff             	test   %rdi,%rdi
    395b:	   /-- 74 05                	je     3962 <_Z5DOBFSRK8CSRGraphIiiLb1EEibii.cold+0x21>
    395d:	   |   e8 ce fd ff ff       	callq  3730 <_ZdaPv@plt>
    3962:	   \-> 48 89 dd             	mov    %rbx,%rbp
    3965:	       48 8b 7c 24 50       	mov    0x50(%rsp),%rdi
    396a:	       48 85 ff             	test   %rdi,%rdi
    396d:	   /-- 74 05                	je     3974 <_Z5DOBFSRK8CSRGraphIiiLb1EEibii.cold+0x33>
    396f:	   |   e8 bc fd ff ff       	callq  3730 <_ZdaPv@plt>
_ZN12SlidingQueueIiED4Ev():
/home/aliha951/forked_gapbs/gapbs/src/sliding_queue.h:41
    shared = new T[shared_size];
    reset();
  }

  ~SlidingQueue() {
    delete[] shared;
    3974:	   \-> 48 8b 7c 24 70       	mov    0x70(%rsp),%rdi
    3979:	       48 85 ff             	test   %rdi,%rdi
    397c:	/----- 74 05                	je     3983 <_Z5DOBFSRK8CSRGraphIiiLb1EEibii.cold+0x42>
    397e:	|      e8 ad fd ff ff       	callq  3730 <_ZdaPv@plt>
_ZN7pvectorIiE16ReleaseResourcesEv():
/home/aliha951/forked_gapbs/gapbs/src/pvector.h:73
    }
    return *this;
  }

  void ReleaseResources(){
    if (start_ != nullptr) {
    3983:	>----> 48 8b 44 24 48       	mov    0x48(%rsp),%rax
    3988:	|      48 8b 38             	mov    (%rax),%rdi
    398b:	|      48 85 ff             	test   %rdi,%rdi
    398e:	|  /-- 74 05                	je     3995 <_Z5DOBFSRK8CSRGraphIiiLb1EEibii.cold+0x54>
/home/aliha951/forked_gapbs/gapbs/src/pvector.h:74
      delete[] start_;
    3990:	|  |   e8 9b fd ff ff       	callq  3730 <_ZdaPv@plt>
    3995:	|  \-> 48 89 ef             	mov    %rbp,%rdi
    3998:	|      e8 c3 fe ff ff       	callq  3860 <_Unwind_Resume@plt>
_ZNKSt7__cxx1112basic_stringIcSt11char_traitsIcESaIcEE7_M_dataEv():
/usr/include/c++/10/bits/basic_string.h:195 (discriminator 3)
      { return _M_dataplus._M_p; }
    399d:	|      48 8b bc 24 c0 00 00 	mov    0xc0(%rsp),%rdi
    39a4:	00 
_ZNSt7__cxx1112basic_stringIcSt11char_traitsIcESaIcEE10_M_disposeEv():
/usr/include/c++/10/bits/basic_string.h:239 (discriminator 3)
	if (!_M_is_local())
    39a5:	|      48 39 ef             	cmp    %rbp,%rdi
    39a8:	|  /-- 74 05                	je     39af <_Z5DOBFSRK8CSRGraphIiiLb1EEibii.cold+0x6e>
_ZN9__gnu_cxx13new_allocatorIcE10deallocateEPcm():
/usr/include/c++/10/ext/new_allocator.h:139
    39aa:	|  |   e8 a1 fc ff ff       	callq  3650 <_ZdlPv@plt>
_ZN9__gnu_cxx13new_allocatorIcED4Ev():
/usr/include/c++/10/ext/new_allocator.h:89
      ~new_allocator() _GLIBCXX_USE_NOEXCEPT { }
    39af:	|  \-> 4c 89 e7             	mov    %r12,%rdi
    39b2:	|      e8 a9 fe ff ff       	callq  3860 <_Unwind_Resume@plt>
_ZN7pvectorIiEC4Em():
/home/aliha951/forked_gapbs/gapbs/src/pvector.h:30
    start_ = new T_[num_elements];
    39b7:	|      e8 d4 fd ff ff       	callq  3790 <__cxa_throw_bad_array_new_length@plt>
_ZNKSt7__cxx1112basic_stringIcSt11char_traitsIcESaIcEE7_M_dataEv():
/usr/include/c++/10/bits/basic_string.h:195 (discriminator 4)
      { return _M_dataplus._M_p; }
    39bc:	|      48 8b bc 24 c0 00 00 	mov    0xc0(%rsp),%rdi
    39c3:	00 
_ZNSt7__cxx1112basic_stringIcSt11char_traitsIcESaIcEE10_M_disposeEv():
/usr/include/c++/10/bits/basic_string.h:239 (discriminator 4)
	if (!_M_is_local())
    39c4:	|      48 39 ef             	cmp    %rbp,%rdi
    39c7:	|  /-- 74 05                	je     39ce <_Z5DOBFSRK8CSRGraphIiiLb1EEibii.cold+0x8d>
_ZN9__gnu_cxx13new_allocatorIcE10deallocateEPcm():
/usr/include/c++/10/ext/new_allocator.h:139
	::operator delete(__p
    39c9:	|  |   e8 82 fc ff ff       	callq  3650 <_ZdlPv@plt>
_ZN9__gnu_cxx13new_allocatorIcED4Ev():
/usr/include/c++/10/ext/new_allocator.h:89
      ~new_allocator() _GLIBCXX_USE_NOEXCEPT { }
    39ce:	|  \-> 48 89 dd             	mov    %rbx,%rbp
    39d1:	+----- eb b0                	jmp    3983 <_Z5DOBFSRK8CSRGraphIiiLb1EEibii.cold+0x42>
_ZN12SlidingQueueIiEC4Em():
/home/aliha951/forked_gapbs/gapbs/src/sliding_queue.h:36
    shared = new T[shared_size];
    39d3:	|      e8 b8 fd ff ff       	callq  3790 <__cxa_throw_bad_array_new_length@plt>
    39d8:	|      f3 0f 1e fa          	endbr64 
_ZN7pvectorIiE16ReleaseResourcesEv():
/home/aliha951/forked_gapbs/gapbs/src/pvector.h:73
    if (start_ != nullptr) {
    39dc:	|      48 89 c5             	mov    %rax,%rbp
    39df:	\----- eb a2                	jmp    3983 <_Z5DOBFSRK8CSRGraphIiiLb1EEibii.cold+0x42>

00000000000039e1 <_Z11BFSVerifierRK8CSRGraphIiiLb1EEiRK7pvectorIiE.cold>:
_ZN7pvectorIiEC4Em():
/home/aliha951/forked_gapbs/gapbs/src/pvector.h:30
    start_ = new T_[num_elements];
    39e1:	    e8 aa fd ff ff       	callq  3790 <__cxa_throw_bad_array_new_length@plt>
_ZNSt6vectorIiSaIiEED4Ev():
/usr/include/c++/10/bits/stl_vector.h:680
       *  not touched in any way.  Managing the pointer is the user's
       *  responsibility.
       */
      ~vector() _GLIBCXX_NOEXCEPT
      {
	std::_Destroy(this->_M_impl._M_start, this->_M_impl._M_finish,
    39e6:	    48 8b 7c 24 50       	mov    0x50(%rsp),%rdi
_ZNSt12_Vector_baseIiSaIiEE13_M_deallocateEPim():
/usr/include/c++/10/bits/stl_vector.h:353
	if (__p)
    39eb:	    48 85 ff             	test   %rdi,%rdi
    39ee:	/-- 74 05                	je     39f5 <_Z11BFSVerifierRK8CSRGraphIiiLb1EEiRK7pvectorIiE.cold+0x14>
_ZN9__gnu_cxx13new_allocatorIiE10deallocateEPim():
/usr/include/c++/10/ext/new_allocator.h:139
	::operator delete(__p
    39f0:	|   e8 5b fc ff ff       	callq  3650 <_ZdlPv@plt>
_ZN7pvectorIiE16ReleaseResourcesEv():
/home/aliha951/forked_gapbs/gapbs/src/pvector.h:73
    if (start_ != nullptr) {
    39f5:	\-> 48 8b 7c 24 30       	mov    0x30(%rsp),%rdi
    39fa:	    48 85 ff             	test   %rdi,%rdi
    39fd:	/-- 74 05                	je     3a04 <_Z11BFSVerifierRK8CSRGraphIiiLb1EEiRK7pvectorIiE.cold+0x23>
/home/aliha951/forked_gapbs/gapbs/src/pvector.h:74
      delete[] start_;
    39ff:	|   e8 2c fd ff ff       	callq  3730 <_ZdaPv@plt>
    3a04:	\-> 48 89 ef             	mov    %rbp,%rdi
    3a07:	    e8 54 fe ff ff       	callq  3860 <_Unwind_Resume@plt>

0000000000003a0c <main.cold>:
_ZNKSt7__cxx1112basic_stringIcSt11char_traitsIcESaIcEE7_M_dataEv():
/usr/include/c++/10/bits/basic_string.h:195
      { return _M_dataplus._M_p; }
    3a0c:	             48 8b bc 24 e0 00 00 	mov    0xe0(%rsp),%rdi
    3a13:	00 
_ZNSt7__cxx1112basic_stringIcSt11char_traitsIcESaIcEE10_M_disposeEv():
/usr/include/c++/10/bits/basic_string.h:239
	if (!_M_is_local())
    3a14:	             48 8d 84 24 f0 00 00 	lea    0xf0(%rsp),%rax
    3a1b:	00 
    3a1c:	             48 39 c7             	cmp    %rax,%rdi
    3a1f:	         /-- 75 4c                	jne    3a6d <main.cold+0x61>
_ZN8CSRGraphIiiLb1EED4Ev():
/home/aliha951/forked_gapbs/gapbs/src/graph.h:166
      other.in_index_ = nullptr;
      other.in_neighbors_ = nullptr;
  }

  ~CSRGraph() {
    ReleaseResources();
    3a21:	/--------|-> 4c 89 ff             	mov    %r15,%rdi
    3a24:	|        |   e8 e7 52 00 00       	callq  8d10 <_ZN8CSRGraphIiiLb1EE16ReleaseResourcesEv>
_ZN5CLAppD4Ev():
/home/aliha951/forked_gapbs/gapbs/src/command_line.h:114
  bool in_place() const { return in_place_; }
};



class CLApp : public CLBase {
    3a29:	|        |   48 8b 7c 24 28       	mov    0x28(%rsp),%rdi
    3a2e:	|        |   48 8d 05 8b 1e 01 00 	lea    0x11e8b(%rip),%rax        # 158c0 <_ZTV5CLApp+0x10>
    3a35:	|        |   48 89 84 24 00 01 00 	mov    %rax,0x100(%rsp)
    3a3c:	00 
    3a3d:	|        |   e8 1e 50 00 00       	callq  8a60 <_ZN6CLBaseD1Ev>
    3a42:	|        |   48 89 df             	mov    %rbx,%rdi
    3a45:	|        |   e8 16 fe ff ff       	callq  3860 <_Unwind_Resume@plt>
_ZNKSt7__cxx1112basic_stringIcSt11char_traitsIcESaIcEE7_M_dataEv():
/usr/include/c++/10/bits/basic_string.h:195
      { return _M_dataplus._M_p; }
    3a4a:	|        |   48 8b bc 24 e0 00 00 	mov    0xe0(%rsp),%rdi
    3a51:	00 
_ZNSt7__cxx1112basic_stringIcSt11char_traitsIcESaIcEE10_M_disposeEv():
/usr/include/c++/10/bits/basic_string.h:239
	if (!_M_is_local())
    3a52:	|        |   4c 39 ef             	cmp    %r13,%rdi
    3a55:	|  /-----|-- 74 05                	je     3a5c <main.cold+0x50>
_ZN9__gnu_cxx13new_allocatorIcE10deallocateEPcm():
/usr/include/c++/10/ext/new_allocator.h:139
    3a57:	|  |  /--|-> e8 f4 fb ff ff       	callq  3650 <_ZdlPv@plt>
_ZN7pvectorIiE16ReleaseResourcesEv():
/home/aliha951/forked_gapbs/gapbs/src/pvector.h:73
    if (start_ != nullptr) {
    3a5c:	|  >--|--|-> 48 8b 7c 24 60       	mov    0x60(%rsp),%rdi
    3a61:	|  |  |  |   48 85 ff             	test   %rdi,%rdi
    3a64:	+--|--|--|-- 74 bb                	je     3a21 <main.cold+0x15>
/home/aliha951/forked_gapbs/gapbs/src/pvector.h:74
      delete[] start_;
    3a66:	|  |  |  |   e8 c5 fc ff ff       	callq  3730 <_ZdaPv@plt>
    3a6b:	+--|--|--|-- eb b4                	jmp    3a21 <main.cold+0x15>
_ZN9__gnu_cxx13new_allocatorIcE10deallocateEPcm():
/usr/include/c++/10/ext/new_allocator.h:139
    3a6d:	|  |  |  \-> e8 de fb ff ff       	callq  3650 <_ZdlPv@plt>
_ZNSt7__cxx1112basic_stringIcSt11char_traitsIcESaIcEE10_M_destroyEm():
/usr/include/c++/10/bits/basic_string.h:245
	  _M_destroy(_M_allocated_capacity);
      }

      void
      _M_destroy(size_type __size) throw()
      { _Alloc_traits::deallocate(_M_get_allocator(), _M_data(), __size + 1); }
    3a72:	\--|--|----- eb ad                	jmp    3a21 <main.cold+0x15>
_ZNKSt7__cxx1112basic_stringIcSt11char_traitsIcESaIcEE7_M_dataEv():
/usr/include/c++/10/bits/basic_string.h:195
      { return _M_dataplus._M_p; }
    3a74:	   |  |      48 8b bc 24 e0 00 00 	mov    0xe0(%rsp),%rdi
    3a7b:	00 
_ZNSt7__cxx1112basic_stringIcSt11char_traitsIcESaIcEE10_M_disposeEv():
/usr/include/c++/10/bits/basic_string.h:239
	if (!_M_is_local())
    3a7c:	   |  |      4c 39 ef             	cmp    %r13,%rdi
    3a7f:	   |  |  /-- 74 05                	je     3a86 <main.cold+0x7a>
_ZN9__gnu_cxx13new_allocatorIcE10deallocateEPcm():
/usr/include/c++/10/ext/new_allocator.h:139
    3a81:	   |  |  |   e8 ca fb ff ff       	callq  3650 <_ZdlPv@plt>
_ZNKSt7__cxx1112basic_stringIcSt11char_traitsIcESaIcEE7_M_dataEv():
/usr/include/c++/10/bits/basic_string.h:195
      { return _M_dataplus._M_p; }
    3a86:	   |  |  \-> 48 8b bc 24 c0 00 00 	mov    0xc0(%rsp),%rdi
    3a8d:	00 
_ZNSt7__cxx1112basic_stringIcSt11char_traitsIcESaIcEE10_M_disposeEv():
/usr/include/c++/10/bits/basic_string.h:239
	if (!_M_is_local())
    3a8e:	   |  |      48 3b 7c 24 08       	cmp    0x8(%rsp),%rdi
    3a93:	   |  \----- 75 c2                	jne    3a57 <main.cold+0x4b>
    3a95:	   \-------- eb c5                	jmp    3a5c <main.cold+0x50>
_ZNKSt7__cxx1112basic_stringIcSt11char_traitsIcESaIcEE7_M_dataEv():
/usr/include/c++/10/bits/basic_string.h:195
      { return _M_dataplus._M_p; }
    3a97:	             48 8b bc 24 a0 0b 00 	mov    0xba0(%rsp),%rdi
    3a9e:	00 
_ZNSt7__cxx1112basic_stringIcSt11char_traitsIcESaIcEE10_M_disposeEv():
/usr/include/c++/10/bits/basic_string.h:239
	if (!_M_is_local())
    3a9f:	             48 8d 84 24 b0 0b 00 	lea    0xbb0(%rsp),%rax
    3aa6:	00 
    3aa7:	             48 39 c7             	cmp    %rax,%rdi
    3aaa:	         /-- 74 05                	je     3ab1 <main.cold+0xa5>
_ZN9__gnu_cxx13new_allocatorIcE10deallocateEPcm():
/usr/include/c++/10/ext/new_allocator.h:139
    3aac:	         |   e8 9f fb ff ff       	callq  3650 <_ZdlPv@plt>
_ZN9__gnu_cxx13new_allocatorIcED4Ev():
/usr/include/c++/10/ext/new_allocator.h:89
      ~new_allocator() _GLIBCXX_USE_NOEXCEPT { }
    3ab1:	         \-> 48 89 ef             	mov    %rbp,%rdi
    3ab4:	             e8 a7 fd ff ff       	callq  3860 <_Unwind_Resume@plt>
main.cold():
    3ab9:	             0f 1f 80 00 00 00 00 	nopl   0x0(%rax)

0000000000003ac0 <main>:
main():
/home/aliha951/forked_gapbs/gapbs/src/bfs.cc:250
  }
  return true;
}


int main(int argc, char* argv[]) {
    3ac0:	                                                    f3 0f 1e fa          	endbr64 
    3ac4:	                                                    41 57                	push   %r15
    3ac6:	                                                    41 56                	push   %r14
    3ac8:	                                                    41 55                	push   %r13
    3aca:	                                                    41 54                	push   %r12
    3acc:	                                                    55                   	push   %rbp
    3acd:	                                                    53                   	push   %rbx
    3ace:	                                                    48 81 ec 00 10 00 00 	sub    $0x1000,%rsp
    3ad5:	                                                    48 83 0c 24 00       	orq    $0x0,(%rsp)
    3ada:	                                                    48 81 ec a8 05 00 00 	sub    $0x5a8,%rsp
    3ae1:	                                                    64 48 8b 04 25 28 00 	mov    %fs:0x28,%rax
    3ae8:	00 00 
    3aea:	                                                    48 89 84 24 98 15 00 	mov    %rax,0x1598(%rsp)
    3af1:	00 
    3af2:	                                                    31 c0                	xor    %eax,%eax
/home/aliha951/forked_gapbs/gapbs/src/bfs.cc:251
  CLApp cli(argc, argv, "breadth-first search");
    3af4:	                                                    4c 8d a4 24 a0 0b 00 	lea    0xba0(%rsp),%r12
    3afb:	00 
/home/aliha951/forked_gapbs/gapbs/src/bfs.cc:250
int main(int argc, char* argv[]) {
    3afc:	                                                    89 fd                	mov    %edi,%ebp
    3afe:	                                                    49 89 f5             	mov    %rsi,%r13
/home/aliha951/forked_gapbs/gapbs/src/bfs.cc:251
  CLApp cli(argc, argv, "breadth-first search");
    3b01:	                                                    4c 89 e7             	mov    %r12,%rdi
    3b04:	                                                    48 8d 35 6e e6 00 00 	lea    0xe66e(%rip),%rsi        # 12179 <_IO_stdin_used+0x179>
    3b0b:	                                                    e8 f0 1b 00 00       	callq  5700 <_ZNSt7__cxx1112basic_stringIcSt11char_traitsIcESaIcEEC2EPKcRKS3_.constprop.0>
    3b10:	                                                    4c 89 e1             	mov    %r12,%rcx
    3b13:	                                                    4c 89 ea             	mov    %r13,%rdx
    3b16:	                                                    89 ee                	mov    %ebp,%esi
    3b18:	                                                    48 8d 84 24 00 01 00 	lea    0x100(%rsp),%rax
    3b1f:	00 
    3b20:	                                                    48 89 c7             	mov    %rax,%rdi
    3b23:	                                                    48 89 44 24 28       	mov    %rax,0x28(%rsp)
    3b28:	                                                    e8 b3 67 00 00       	callq  a2e0 <_ZN5CLAppC1EiPPcNSt7__cxx1112basic_stringIcSt11char_traitsIcESaIcEEE>
_ZNKSt7__cxx1112basic_stringIcSt11char_traitsIcESaIcEE7_M_dataEv():
/usr/include/c++/10/bits/basic_string.h:195
      { return _M_dataplus._M_p; }
    3b2d:	                                                    48 8b bc 24 a0 0b 00 	mov    0xba0(%rsp),%rdi
    3b34:	00 
_ZNSt7__cxx1112basic_stringIcSt11char_traitsIcESaIcEE10_M_disposeEv():
/usr/include/c++/10/bits/basic_string.h:239
	if (!_M_is_local())
    3b35:	                                                    4c 8d b4 24 b0 0b 00 	lea    0xbb0(%rsp),%r14
    3b3c:	00 
    3b3d:	                                                    4c 39 f7             	cmp    %r14,%rdi
    3b40:	                                                /-- 74 05                	je     3b47 <main+0x87>
_ZN9__gnu_cxx13new_allocatorIcE10deallocateEPcm():
/usr/include/c++/10/ext/new_allocator.h:139
	::operator delete(__p
    3b42:	                                                |   e8 09 fb ff ff       	callq  3650 <_ZdlPv@plt>
_ZNSt7__cxx1112basic_stringIcSt11char_traitsIcESaIcEEaSEOS4_():
/usr/include/c++/10/bits/basic_string.h:745
	    || _M_get_allocator() == __str._M_get_allocator())
	  {
	    // Just move the allocated pointer, our allocator can free it.
	    pointer __data = nullptr;
	    size_type __capacity;
	    if (!_M_is_local())
    3b47:	                                                \-> 48 8d 84 24 88 01 00 	lea    0x188(%rsp),%rax
    3b4e:	00 
_ZN6CLBase9HandleArgEaPc():
/home/aliha951/forked_gapbs/gapbs/src/command_line.h:85
    switch (opt) {
    3b4f:	                                                    4c 8d 2d c6 ea 00 00 	lea    0xeac6(%rip),%r13        # 1261c <_IO_stdin_used+0x61c>
_ZNSt7__cxx1112basic_stringIcSt11char_traitsIcESaIcEEaSEOS4_():
/usr/include/c++/10/bits/basic_string.h:745
    3b56:	                                                    48 89 04 24          	mov    %rax,(%rsp)
_ZNSt7__cxx1112basic_stringIcSt11char_traitsIcESaIcEE12_M_constructIPKcEEvT_S8_St20forward_iterator_tag():
/usr/include/c++/10/bits/basic_string.tcc:219

	size_type __dnew = static_cast<size_type>(std::distance(__beg, __end));

	if (__dnew > size_type(_S_local_capacity))
	  {
	    _M_data(_M_create(__dnew, size_type(0)));
    3b5a:	                                                    4c 8d bc 24 80 00 00 	lea    0x80(%rsp),%r15
    3b61:	00 
_ZN5CLApp9HandleArgEaPc():
/home/aliha951/forked_gapbs/gapbs/src/command_line.h:132
    AddHelpLine('v', "", "verify the output of each run", "false");
    AddHelpLine('l', "", "log performance within each trial", "false");
  }

  void HandleArg(signed char opt, char* opt_arg) override {
    switch (opt) {
    3b62:	                                                    48 8d 1d 5b ea 00 00 	lea    0xea5b(%rip),%rbx        # 125c4 <_IO_stdin_used+0x5c4>
    3b69:	                                                    0f 1f 80 00 00 00 00 	nopl   0x0(%rax)
_ZN6CLBase9ParseArgsEv():
/home/aliha951/forked_gapbs/gapbs/src/command_line.h:72
    while ((c_opt = getopt(argc_, argv_, get_args_.c_str())) != -1) {
    3b70:	/-------------------------------------------------> 48 8b 94 24 38 01 00 	mov    0x138(%rsp),%rdx
    3b77:	00 
    3b78:	|                                                   48 8b b4 24 10 01 00 	mov    0x110(%rsp),%rsi
    3b7f:	00 
    3b80:	|                                                   8b bc 24 08 01 00 00 	mov    0x108(%rsp),%edi
    3b87:	|                                                   e8 54 f9 ff ff       	callq  34e0 <getopt@plt>
    3b8c:	|                                                   3c ff                	cmp    $0xff,%al
    3b8e:	|                                            /----- 0f 84 89 00 00 00    	je     3c1d <main+0x15d>
_ZN5CLApp9HandleArgEaPc():
/home/aliha951/forked_gapbs/gapbs/src/command_line.h:132
    switch (opt) {
    3b94:	|                                            |      8d 50 9f             	lea    -0x61(%rax),%edx
_ZN6CLBase9ParseArgsEv():
/home/aliha951/forked_gapbs/gapbs/src/command_line.h:73
      HandleArg(c_opt, optarg);
    3b97:	|                                            |      48 8b 2d a2 24 01 00 	mov    0x124a2(%rip),%rbp        # 16040 <optarg@@GLIBC_2.2.5>
_ZN5CLApp9HandleArgEaPc():
/home/aliha951/forked_gapbs/gapbs/src/command_line.h:132
    switch (opt) {
    3b9e:	|                                            |      80 fa 15             	cmp    $0x15,%dl
    3ba1:	|                                            |  /-- 77 0d                	ja     3bb0 <main+0xf0>
    3ba3:	|                                            |  |   0f b6 d2             	movzbl %dl,%edx
    3ba6:	|                                            |  |   48 63 14 93          	movslq (%rbx,%rdx,4),%rdx
    3baa:	|                                            |  |   48 01 da             	add    %rbx,%rdx
    3bad:	|                                            |  |   3e ff e2             	notrack jmpq *%rdx
_ZN6CLBase9HandleArgEaPc():
/home/aliha951/forked_gapbs/gapbs/src/command_line.h:85
    switch (opt) {
    3bb0:	|                                            |  \-> 83 e8 66             	sub    $0x66,%eax
    3bb3:	|                                            |      3c 0f                	cmp    $0xf,%al
    3bb5:	+--------------------------------------------|----- 77 b9                	ja     3b70 <main+0xb0>
    3bb7:	|                                            |      0f b6 c0             	movzbl %al,%eax
    3bba:	|                                            |      49 63 44 85 00       	movslq 0x0(%r13,%rax,4),%rax
    3bbf:	|                                            |      4c 01 e8             	add    %r13,%rax
    3bc2:	|                                            |      3e ff e0             	notrack jmpq *%rax
_ZN5CLApp9HandleArgEaPc():
/home/aliha951/forked_gapbs/gapbs/src/command_line.h:136
      case 'a': do_analysis_ = true;                    break;
      case 'n': num_trials_ = atoi(opt_arg);            break;
      case 'r': start_vertex_ = atol(opt_arg);          break;
      case 'v': do_verify_ = true;                      break;
    3bc5:	|                                            |      c6 84 24 a8 01 00 00 	movb   $0x1,0x1a8(%rsp)
    3bcc:	01 
    3bcd:	+--------------------------------------------|----- eb a1                	jmp    3b70 <main+0xb0>
main():
/usr/include/stdlib.h:368
  return (int) strtol (__nptr, (char **) NULL, 10);
}
__extern_inline long int
__NTH (atol (const char *__nptr))
{
  return strtol (__nptr, (char **) NULL, 10);
    3bcf:	|                                            |      ba 0a 00 00 00       	mov    $0xa,%edx
atol():
/usr/include/stdlib.h:368
    3bd4:	|                                            |      31 f6                	xor    %esi,%esi
    3bd6:	|                                            |      48 89 ef             	mov    %rbp,%rdi
    3bd9:	|                                            |      e8 92 fb ff ff       	callq  3770 <strtol@plt>
_ZN5CLApp9HandleArgEaPc():
/home/aliha951/forked_gapbs/gapbs/src/command_line.h:135
      case 'r': start_vertex_ = atol(opt_arg);          break;
    3bde:	|                                            |      48 89 84 24 a0 01 00 	mov    %rax,0x1a0(%rsp)
    3be5:	00 
    3be6:	+--------------------------------------------|----- eb 88                	jmp    3b70 <main+0xb0>
main():
/usr/include/stdlib.h:363
  return (int) strtol (__nptr, (char **) NULL, 10);
    3be8:	|                                            |      ba 0a 00 00 00       	mov    $0xa,%edx
atoi():
/usr/include/stdlib.h:363
    3bed:	|                                            |      31 f6                	xor    %esi,%esi
    3bef:	|                                            |      48 89 ef             	mov    %rbp,%rdi
    3bf2:	|                                            |      e8 79 fb ff ff       	callq  3770 <strtol@plt>
    3bf7:	|                                            |      89 84 24 9c 01 00 00 	mov    %eax,0x19c(%rsp)
_ZN5CLApp9HandleArgEaPc():
/home/aliha951/forked_gapbs/gapbs/src/command_line.h:134
      case 'n': num_trials_ = atoi(opt_arg);            break;
    3bfe:	+--------------------------------------------|----- e9 6d ff ff ff       	jmpq   3b70 <main+0xb0>
/home/aliha951/forked_gapbs/gapbs/src/command_line.h:137
      case 'l': enable_logging_ = true;                 break;
    3c03:	|                                            |      c6 84 24 a9 01 00 00 	movb   $0x1,0x1a9(%rsp)
    3c0a:	01 
    3c0b:	+--------------------------------------------|----- e9 60 ff ff ff       	jmpq   3b70 <main+0xb0>
/home/aliha951/forked_gapbs/gapbs/src/command_line.h:133
      case 'a': do_analysis_ = true;                    break;
    3c10:	|                                            |      c6 84 24 9b 01 00 00 	movb   $0x1,0x19b(%rsp)
    3c17:	01 
    3c18:	+--------------------------------------------|----- e9 53 ff ff ff       	jmpq   3b70 <main+0xb0>
_ZSteqIcSt11char_traitsIcESaIcEEbRKNSt7__cxx1112basic_stringIT_T0_T1_EEPKS5_():
/usr/include/c++/10/bits/basic_string.h:6199
   */
  template<typename _CharT, typename _Traits, typename _Alloc>
    inline bool
    operator==(const basic_string<_CharT, _Traits, _Alloc>& __lhs,
	       const _CharT* __rhs)
    { return __lhs.compare(__rhs) == 0; }
    3c1d:	|                                            \----> 48 8d bc 24 78 01 00 	lea    0x178(%rsp),%rdi
    3c24:	00 
    3c25:	|                                                   48 8d 35 8a e4 00 00 	lea    0xe48a(%rip),%rsi        # 120b6 <_IO_stdin_used+0xb6>
    3c2c:	|                                                   e8 df f8 ff ff       	callq  3510 <_ZNKSt7__cxx1112basic_stringIcSt11char_traitsIcESaIcEE7compareEPKc@plt>
_ZN6CLBase9ParseArgsEv():
/home/aliha951/forked_gapbs/gapbs/src/command_line.h:75
    if ((filename_ == "") && (scale_ == -1)) {
    3c31:	|                                                   85 c0                	test   %eax,%eax
    3c33:	|                          /----------------------- 0f 84 29 03 00 00    	je     3f62 <main+0x4a2>
/home/aliha951/forked_gapbs/gapbs/src/command_line.h:79
    if (scale_ != -1)
    3c39:	|                          |                        83 bc 24 70 01 00 00 	cmpl   $0xffffffff,0x170(%rsp)
    3c40:	ff 
    3c41:	|                       /--|----------------------- 0f 85 2d 03 00 00    	jne    3f74 <main+0x4b4>
_ZN11BuilderBaseIiiiLb1EEC4ERK6CLBase():
/home/aliha951/forked_gapbs/gapbs/src/builder.h:50
  bool needs_weights_;
  bool in_place_ = false;
  int64_t num_nodes_ = -1;

 public:
  explicit BuilderBase(const CLBase &cli) : cli_(cli) {
    3c47:	|                    /--|--|----------------------> 48 8b 44 24 28       	mov    0x28(%rsp),%rax
main():
/home/aliha951/forked_gapbs/gapbs/src/bfs.cc:255
  if (!cli.ParseArgs())
    return -1;
  Builder b(cli);
  Graph g = b.MakeGraph();
    3c4c:	|                    |  |  |                        48 8d 74 24 40       	lea    0x40(%rsp),%rsi
    3c51:	|                    |  |  |                        4c 8d bc 24 80 00 00 	lea    0x80(%rsp),%r15
    3c58:	00 
_ZN11BuilderBaseIiiiLb1EEC4ERK6CLBase():
/home/aliha951/forked_gapbs/gapbs/src/builder.h:50
    3c59:	|                    |  |  |                        48 c7 44 24 50 ff ff 	movq   $0xffffffffffffffff,0x50(%rsp)
    3c60:	ff ff 
main():
/home/aliha951/forked_gapbs/gapbs/src/bfs.cc:255
    3c62:	|                    |  |  |                        4c 89 ff             	mov    %r15,%rdi
_ZN11BuilderBaseIiiiLb1EEC4ERK6CLBase():
/home/aliha951/forked_gapbs/gapbs/src/builder.h:52
    symmetrize_ = cli_.symmetrize();
    needs_weights_ = !std::is_same<NodeID_, DestID_>::value;
    3c65:	|                    |  |  |                        c6 44 24 49 00       	movb   $0x0,0x49(%rsp)
/home/aliha951/forked_gapbs/gapbs/src/builder.h:50
  explicit BuilderBase(const CLBase &cli) : cli_(cli) {
    3c6a:	|                    |  |  |                        48 89 44 24 40       	mov    %rax,0x40(%rsp)
/home/aliha951/forked_gapbs/gapbs/src/builder.h:51
    symmetrize_ = cli_.symmetrize();
    3c6f:	|                    |  |  |                        0f b6 84 24 98 01 00 	movzbl 0x198(%rsp),%eax
    3c76:	00 
    3c77:	|                    |  |  |                        88 44 24 48          	mov    %al,0x48(%rsp)
/home/aliha951/forked_gapbs/gapbs/src/builder.h:53
    in_place_ = cli_.in_place();
    3c7b:	|                    |  |  |                        0f b6 84 24 9a 01 00 	movzbl 0x19a(%rsp),%eax
    3c82:	00 
    3c83:	|                    |  |  |                        88 44 24 4a          	mov    %al,0x4a(%rsp)
main():
/home/aliha951/forked_gapbs/gapbs/src/bfs.cc:255
    3c87:	|                    |  |  |                        e8 d4 c2 00 00       	callq  ff60 <_ZN11BuilderBaseIiiiLb1EE9MakeGraphEv>
/home/aliha951/forked_gapbs/gapbs/src/bfs.cc:256
  SourcePicker<Graph> sp(g, cli.start_vertex());
    3c8c:	|                    |  |  |                        8b 94 24 a0 01 00 00 	mov    0x1a0(%rsp),%edx
    3c93:	|                    |  |  |                        48 8d bc 24 b0 01 00 	lea    0x1b0(%rsp),%rdi
    3c9a:	00 
    3c9b:	|                    |  |  |                        4c 89 fe             	mov    %r15,%rsi
    3c9e:	|                    |  |  |                        e8 6d 4e 00 00       	callq  8b10 <_ZN12SourcePickerI8CSRGraphIiiLb1EEEC1ERKS1_i>
/home/aliha951/forked_gapbs/gapbs/src/bfs.cc:260
  auto BFSBound = [&sp,&cli] (const Graph &g) {
    return DOBFS(g, sp.PickNext(), cli.logging_en());
  };
  SourcePicker<Graph> vsp(g, cli.start_vertex());
    3ca3:	|                    |  |  |                        8b 94 24 a0 01 00 00 	mov    0x1a0(%rsp),%edx
    3caa:	|                    |  |  |                        4c 89 e7             	mov    %r12,%rdi
    3cad:	|                    |  |  |                        4c 89 fe             	mov    %r15,%rsi
    3cb0:	|                    |  |  |                        e8 5b 4e 00 00       	callq  8b10 <_ZN12SourcePickerI8CSRGraphIiiLb1EEEC1ERKS1_i>
/home/aliha951/forked_gapbs/gapbs/src/benchmark.h:103
template<typename GraphT_, typename GraphFunc, typename AnalysisFunc,
         typename VerifierFunc>
void BenchmarkKernel(const CLApp &cli, const GraphT_ &g,
                     GraphFunc kernel, AnalysisFunc stats,
                     VerifierFunc verify) {
  g.PrintStats();
    3cb5:	|                    |  |  |                        4c 89 ff             	mov    %r15,%rdi
BenchmarkKernel<CSRGraph<int>, main(int, char**)::<lambda(const Graph&)>, void (*)(const CSRGraph<int>&, const pvector<int>&), main(int, char**)::<lambda(const Graph&, const pvector<int>&)> >():
/home/aliha951/forked_gapbs/gapbs/src/benchmark.h:103
    3cb8:	|                    |  |  |                        e8 b3 50 00 00       	callq  8d70 <_ZNK8CSRGraphIiiLb1EE10PrintStatsEv>
_ZNK5CLApp10num_trialsEv():
/home/aliha951/forked_gapbs/gapbs/src/command_line.h:143
      default: CLBase::HandleArg(opt, opt_arg);
    }
  }

  bool do_analysis() const { return do_analysis_; }
  int num_trials() const { return num_trials_; }
    3cbd:	|                    |  |  |                        8b 84 24 9c 01 00 00 	mov    0x19c(%rsp),%eax
BenchmarkKernel<CSRGraph<int>, main(int, char**)::<lambda(const Graph&)>, void (*)(const CSRGraph<int>&, const pvector<int>&), main(int, char**)::<lambda(const Graph&, const pvector<int>&)> >():
/home/aliha951/forked_gapbs/gapbs/src/benchmark.h:106
  double total_seconds = 0;
  Timer trial_timer;
  for (int iter=0; iter < cli.num_trials(); iter++) {
    3cc4:	|                    |  |  |                        85 c0                	test   %eax,%eax
    3cc6:	|  /-----------------|--|--|----------------------- 0f 8e d6 05 00 00    	jle    42a2 <main+0x7e2>
/home/aliha951/forked_gapbs/gapbs/src/benchmark.h:104
  double total_seconds = 0;
    3ccc:	|  |                 |  |  |                        66 0f ef ed          	pxor   %xmm5,%xmm5
    3cd0:	|  |                 |  |  |                        48 8d 44 24 60       	lea    0x60(%rsp),%rax
/home/aliha951/forked_gapbs/gapbs/src/benchmark.h:106
  for (int iter=0; iter < cli.num_trials(); iter++) {
    3cd5:	|  |                 |  |  |                        c7 04 24 00 00 00 00 	movl   $0x0,(%rsp)
_ZNSt23mersenne_twister_engineImLm64ELm312ELm156ELm31ELm13043109905998158313ELm29ELm6148914691236517205ELm17ELm8202884508482404352ELm37ELm18444473444759240704ELm43ELm6364136223846793005EEclEv():
/usr/include/c++/10/bits/random.tcc:460
      if (_M_p >= state_size)
	_M_gen_rand();

      // Calculate o(x(i)).
      result_type __z = _M_x[_M_p++];
      __z ^= (__z >> __u) & __d;
    3cdc:	|  |                 |  |  |                        48 bb 55 55 55 55 55 	movabs $0x5555555555555555,%rbx
    3ce3:	55 55 55 
/usr/include/c++/10/bits/random.tcc:461
      __z ^= (__z << __s) & __b;
    3ce6:	|  |                 |  |  |                        48 bd 00 00 a6 ed ff 	movabs $0x71d67fffeda60000,%rbp
    3ced:	7f d6 71 
    3cf0:	|  |                 |  |  |                        48 89 44 24 18       	mov    %rax,0x18(%rsp)
/usr/include/c++/10/bits/random.tcc:462
      __z ^= (__z << __t) & __c;
    3cf5:	|  |                 |  |  |                        49 bc 00 00 00 00 e0 	movabs $0xfff7eee000000000,%r12
    3cfc:	ee f7 ff 
BenchmarkKernel<CSRGraph<int>, main(int, char**)::<lambda(const Graph&)>, void (*)(const CSRGraph<int>&, const pvector<int>&), main(int, char**)::<lambda(const Graph&, const pvector<int>&)> >():
/home/aliha951/forked_gapbs/gapbs/src/benchmark.h:104
  double total_seconds = 0;
    3cff:	|  |                 |  |  |                        f2 0f 11 6c 24 10    	movsd  %xmm5,0x10(%rsp)
    3d05:	|  |                 |  |  |                 /----- e9 0a 01 00 00       	jmpq   3e14 <main+0x354>
    3d0a:	|  |                 |  |  |                 |      66 0f 1f 44 00 00    	nopw   0x0(%rax,%rax,1)
main():
/home/aliha951/forked_gapbs/gapbs/src/bfs.cc:258
    return DOBFS(g, sp.PickNext(), cli.logging_en());
    3d10:	|  |                 |  |  |              /--|----> 48 8b 7c 24 18       	mov    0x18(%rsp),%rdi
operator()():
/home/aliha951/forked_gapbs/gapbs/src/bfs.cc:258
    3d15:	|  |                 |  |  |              |  |      41 b9 12 00 00 00    	mov    $0x12,%r9d
    3d1b:	|  |                 |  |  |              |  |      44 89 e9             	mov    %r13d,%ecx
    3d1e:	|  |                 |  |  |              |  |      4c 89 fe             	mov    %r15,%rsi
    3d21:	|  |                 |  |  |              |  |      41 b8 0f 00 00 00    	mov    $0xf,%r8d
    3d27:	|  |                 |  |  |              |  |      e8 94 26 00 00       	callq  63c0 <_Z5DOBFSRK8CSRGraphIiiLb1EEibii>
_ZN5Timer4StopEv():
/home/aliha951/forked_gapbs/gapbs/src/timer.h:27
  void Start() {
    elapsed_time_ = start_time_ = std::chrono::high_resolution_clock::now();
  }

  void Stop() {
    elapsed_time_ = std::chrono::high_resolution_clock::now();
    3d2c:	|  |                 |  |  |              |  |      e8 8f f7 ff ff       	callq  34c0 <_ZNSt6chrono3_V212system_clock3nowEv@plt>
_ZNSt6chrono20__duration_cast_implINS_8durationIdSt5ratioILl1ELl1EEEES2_ILl1ELl1000000000EEdLb1ELb0EE6__castIlS5_EES4_RKNS1_IT_T0_EE():
/usr/include/c++/10/chrono:214
	  static constexpr _ToDur
	  __cast(const duration<_Rep, _Period>& __d)
	  {
	    typedef typename _ToDur::rep			__to_rep;
	    return _ToDur(static_cast<__to_rep>(
	      static_cast<_CR>(__d.count()) / static_cast<_CR>(_CF::den)));
    3d31:	|  |                 |  |  |              |  |      66 0f ef c0          	pxor   %xmm0,%xmm0
_ZNSt6chronomiIlSt5ratioILl1ELl1000000000EElS2_EENSt11common_typeIJNS_8durationIT_T0_EENS4_IT1_T2_EEEE4typeERKS7_RKSA_():
/usr/include/c++/10/chrono:614
		const duration<_Rep2, _Period2>& __rhs)
      {
	typedef duration<_Rep1, _Period1>			__dur1;
	typedef duration<_Rep2, _Period2>			__dur2;
	typedef typename common_type<__dur1,__dur2>::type	__cd;
	return __cd(__cd(__lhs).count() - __cd(__rhs).count());
    3d35:	|  |                 |  |  |              |  |      48 2b 44 24 08       	sub    0x8(%rsp),%rax
_ZNSt7__cxx1112basic_stringIcSt11char_traitsIcESaIcEE12_Alloc_hiderC4EPcRKS3_():
/usr/include/c++/10/bits/basic_string.h:165
	: allocator_type(__a), _M_p(__dat) { }
    3d3a:	|  |                 |  |  |              |  |      4c 8d b4 24 e0 00 00 	lea    0xe0(%rsp),%r14
    3d41:	00 
_ZNSt6chrono20__duration_cast_implINS_8durationIdSt5ratioILl1ELl1EEEES2_ILl1ELl1000000000EEdLb1ELb0EE6__castIlS5_EES4_RKNS1_IT_T0_EE():
/usr/include/c++/10/chrono:214
	      static_cast<_CR>(__d.count()) / static_cast<_CR>(_CF::den)));
    3d42:	|  |                 |  |  |              |  |      f2 48 0f 2a c0       	cvtsi2sd %rax,%xmm0
BenchmarkKernel<CSRGraph<int>, main(int, char**)::<lambda(const Graph&)>, void (*)(const CSRGraph<int>&, const pvector<int>&), main(int, char**)::<lambda(const Graph&, const pvector<int>&)> >():
/home/aliha951/forked_gapbs/gapbs/src/benchmark.h:110
    trial_timer.Start();
    auto result = kernel(g);
    trial_timer.Stop();
    PrintTime("Trial Time", trial_timer.Seconds());
    3d47:	|  |                 |  |  |              |  |      4c 89 f7             	mov    %r14,%rdi
_ZNSt11char_traitsIcE4copyEPcPKcm():
/usr/include/c++/10/bits/char_traits.h:437
	  return __s1;
#ifdef __cpp_lib_is_constant_evaluated
	if (std::is_constant_evaluated())
	  return __gnu_cxx::char_traits<char_type>::copy(__s1, __s2, __n);
#endif
	return static_cast<char_type*>(__builtin_memcpy(__s1, __s2, __n));
    3d4a:	|  |                 |  |  |              |  |      48 b8 54 72 69 61 6c 	movabs $0x6954206c61697254,%rax
    3d51:	20 54 69 
_ZNSt6chrono20__duration_cast_implINS_8durationIdSt5ratioILl1ELl1EEEES2_ILl1ELl1000000000EEdLb1ELb0EE6__castIlS5_EES4_RKNS1_IT_T0_EE():
/usr/include/c++/10/chrono:214
    3d54:	|  |                 |  |  |              |  |      f2 0f 5e 05 54 eb 00 	divsd  0xeb54(%rip),%xmm0        # 128b0 <_ZZNSt8__detail18__to_chars_10_implIjEEvPcjT_E8__digits+0x230>
    3d5b:	00 
_ZNSt11char_traitsIcE4copyEPcPKcm():
/usr/include/c++/10/bits/char_traits.h:437
    3d5c:	|  |                 |  |  |              |  |      48 89 84 24 f0 00 00 	mov    %rax,0xf0(%rsp)
    3d63:	00 
_ZNSt7__cxx1112basic_stringIcSt11char_traitsIcESaIcEE12_Alloc_hiderC4EPcRKS3_():
/usr/include/c++/10/bits/basic_string.h:165
    3d64:	|  |                 |  |  |              |  |      4c 8d ac 24 f0 00 00 	lea    0xf0(%rsp),%r13
    3d6b:	00 
_ZNSt11char_traitsIcE4copyEPcPKcm():
/usr/include/c++/10/bits/char_traits.h:437
    3d6c:	|  |                 |  |  |              |  |      b8 6d 65 00 00       	mov    $0x656d,%eax
_ZNSt7__cxx1112basic_stringIcSt11char_traitsIcESaIcEE12_Alloc_hiderC4EPcRKS3_():
/usr/include/c++/10/bits/basic_string.h:165
    3d71:	|  |                 |  |  |              |  |      4c 89 ac 24 e0 00 00 	mov    %r13,0xe0(%rsp)
    3d78:	00 
_ZNSt11char_traitsIcE4copyEPcPKcm():
/usr/include/c++/10/bits/char_traits.h:437
    3d79:	|  |                 |  |  |              |  |      66 89 84 24 f8 00 00 	mov    %ax,0xf8(%rsp)
    3d80:	00 
_ZNSt7__cxx1112basic_stringIcSt11char_traitsIcESaIcEE9_M_lengthEm():
/usr/include/c++/10/bits/basic_string.h:191
      { _M_string_length = __length; }
    3d81:	|  |                 |  |  |              |  |      48 c7 84 24 e8 00 00 	movq   $0xa,0xe8(%rsp)
    3d88:	00 0a 00 00 00 
_ZNSt11char_traitsIcE6assignERcRKc():
/usr/include/c++/10/bits/char_traits.h:357
      { __c1 = __c2; }
    3d8d:	|  |                 |  |  |              |  |      c6 84 24 fa 00 00 00 	movb   $0x0,0xfa(%rsp)
    3d94:	00 
_ZNSt6chrono20__duration_cast_implINS_8durationIdSt5ratioILl1ELl1EEEES2_ILl1ELl1000000000EEdLb1ELb0EE6__castIlS5_EES4_RKNS1_IT_T0_EE():
/usr/include/c++/10/chrono:214
    3d95:	|  |                 |  |  |              |  |      f2 0f 11 44 24 08    	movsd  %xmm0,0x8(%rsp)
BenchmarkKernel<CSRGraph<int>, main(int, char**)::<lambda(const Graph&)>, void (*)(const CSRGraph<int>&, const pvector<int>&), main(int, char**)::<lambda(const Graph&, const pvector<int>&)> >():
/home/aliha951/forked_gapbs/gapbs/src/benchmark.h:110
    3d9b:	|  |                 |  |  |              |  |      e8 40 1c 00 00       	callq  59e0 <_Z9PrintTimeRKNSt7__cxx1112basic_stringIcSt11char_traitsIcESaIcEEEd>
_ZNKSt7__cxx1112basic_stringIcSt11char_traitsIcESaIcEE7_M_dataEv():
/usr/include/c++/10/bits/basic_string.h:195
      { return _M_dataplus._M_p; }
    3da0:	|  |                 |  |  |              |  |      48 8b bc 24 e0 00 00 	mov    0xe0(%rsp),%rdi
    3da7:	00 
_ZNSt7__cxx1112basic_stringIcSt11char_traitsIcESaIcEE10_M_disposeEv():
/usr/include/c++/10/bits/basic_string.h:239
	if (!_M_is_local())
    3da8:	|  |                 |  |  |              |  |      4c 39 ef             	cmp    %r13,%rdi
    3dab:	|  |                 |  |  |              |  |  /-- 74 05                	je     3db2 <main+0x2f2>
_ZN9__gnu_cxx13new_allocatorIcE10deallocateEPcm():
/usr/include/c++/10/ext/new_allocator.h:139
    3dad:	|  |                 |  |  |              |  |  |   e8 9e f8 ff ff       	callq  3650 <_ZdlPv@plt>
BenchmarkKernel<CSRGraph<int>, main(int, char**)::<lambda(const Graph&)>, void (*)(const CSRGraph<int>&, const pvector<int>&), main(int, char**)::<lambda(const Graph&, const pvector<int>&)> >():
/home/aliha951/forked_gapbs/gapbs/src/benchmark.h:111
    total_seconds += trial_timer.Seconds();
    3db2:	|  |                 |  |  |              |  |  \-> f2 0f 10 54 24 10    	movsd  0x10(%rsp),%xmm2
    3db8:	|  |                 |  |  |              |  |      f2 0f 58 54 24 08    	addsd  0x8(%rsp),%xmm2
/home/aliha951/forked_gapbs/gapbs/src/benchmark.h:112
    if (cli.do_analysis() && (iter == (cli.num_trials()-1)))
    3dbe:	|  |                 |  |  |              |  |      80 bc 24 9b 01 00 00 	cmpb   $0x0,0x19b(%rsp)
    3dc5:	00 
/home/aliha951/forked_gapbs/gapbs/src/benchmark.h:111
    total_seconds += trial_timer.Seconds();
    3dc6:	|  |                 |  |  |              |  |      f2 0f 11 54 24 10    	movsd  %xmm2,0x10(%rsp)
/home/aliha951/forked_gapbs/gapbs/src/benchmark.h:112
    if (cli.do_analysis() && (iter == (cli.num_trials()-1)))
    3dcc:	|  |     /-----------|--|--|--------------|--|----- 74 13                	je     3de1 <main+0x321>
    3dce:	|  |     |           |  |  |              |  |      8b 84 24 9c 01 00 00 	mov    0x19c(%rsp),%eax
    3dd5:	|  |     |           |  |  |              |  |      83 e8 01             	sub    $0x1,%eax
    3dd8:	|  |     |           |  |  |              |  |      3b 04 24             	cmp    (%rsp),%eax
    3ddb:	|  |     |  /--------|--|--|--------------|--|----- 0f 84 af 04 00 00    	je     4290 <main+0x7d0>
/home/aliha951/forked_gapbs/gapbs/src/benchmark.h:114
      stats(g, result);
    if (cli.do_verify()) {
    3de1:	|  |     >--|--------|--|--|--------------|--|----> 80 bc 24 a8 01 00 00 	cmpb   $0x0,0x1a8(%rsp)
    3de8:	00 
    3de9:	|  |     |  |        |  |  |  /-----------|--|----- 0f 85 d1 01 00 00    	jne    3fc0 <main+0x500>
_ZN7pvectorIiE16ReleaseResourcesEv():
/home/aliha951/forked_gapbs/gapbs/src/pvector.h:73
    if (start_ != nullptr) {
    3def:	|  |     |  |     /--|--|--|--|-----------|--|----> 48 8b 7c 24 60       	mov    0x60(%rsp),%rdi
    3df4:	|  |     |  |     |  |  |  |  |           |  |      48 85 ff             	test   %rdi,%rdi
    3df7:	|  |     |  |     |  |  |  |  |           |  |  /-- 74 05                	je     3dfe <main+0x33e>
/home/aliha951/forked_gapbs/gapbs/src/pvector.h:74
      delete[] start_;
    3df9:	|  |     |  |     |  |  |  |  |           |  |  |   e8 32 f9 ff ff       	callq  3730 <_ZdaPv@plt>
BenchmarkKernel<CSRGraph<int>, main(int, char**)::<lambda(const Graph&)>, void (*)(const CSRGraph<int>&, const pvector<int>&), main(int, char**)::<lambda(const Graph&, const pvector<int>&)> >():
/home/aliha951/forked_gapbs/gapbs/src/benchmark.h:106
  for (int iter=0; iter < cli.num_trials(); iter++) {
    3dfe:	|  |     |  |     |  |  |  |  |           |  |  \-> 83 04 24 01          	addl   $0x1,(%rsp)
_ZNK5CLApp10num_trialsEv():
/home/aliha951/forked_gapbs/gapbs/src/command_line.h:143
    3e02:	|  |     |  |     |  |  |  |  |           |  |      8b 84 24 9c 01 00 00 	mov    0x19c(%rsp),%eax
BenchmarkKernel<CSRGraph<int>, main(int, char**)::<lambda(const Graph&)>, void (*)(const CSRGraph<int>&, const pvector<int>&), main(int, char**)::<lambda(const Graph&, const pvector<int>&)> >():
/home/aliha951/forked_gapbs/gapbs/src/benchmark.h:106
    3e09:	|  |     |  |     |  |  |  |  |           |  |      8b 3c 24             	mov    (%rsp),%edi
    3e0c:	|  |     |  |     |  |  |  |  |           |  |      39 f8                	cmp    %edi,%eax
    3e0e:	|  |     |  |  /--|--|--|--|--|-----------|--|----- 0f 8e a0 04 00 00    	jle    42b4 <main+0x7f4>
_ZN5Timer5StartEv():
/home/aliha951/forked_gapbs/gapbs/src/timer.h:23
    elapsed_time_ = start_time_ = std::chrono::high_resolution_clock::now();
    3e14:	|  |     |  |  |  |  |  |  |  |           |  \----> e8 a7 f6 ff ff       	callq  34c0 <_ZNSt6chrono3_V212system_clock3nowEv@plt>
_ZN12SourcePickerI8CSRGraphIiiLb1EEE8PickNextEv():
/home/aliha951/forked_gapbs/gapbs/src/benchmark.h:54
    if (given_source_ != -1)
    3e19:	|  |     |  |  |  |  |  |  |  |           |         8b 94 24 b0 01 00 00 	mov    0x1b0(%rsp),%edx
operator()():
/home/aliha951/forked_gapbs/gapbs/src/bfs.cc:258
    3e20:	|  |     |  |  |  |  |  |  |  |           |         44 0f b6 ac 24 a9 01 	movzbl 0x1a9(%rsp),%r13d
    3e27:	00 00 
_ZN5Timer5StartEv():
/home/aliha951/forked_gapbs/gapbs/src/timer.h:23
    3e29:	|  |     |  |  |  |  |  |  |  |           |         48 89 44 24 08       	mov    %rax,0x8(%rsp)
_ZN12SourcePickerI8CSRGraphIiiLb1EEE8PickNextEv():
/home/aliha951/forked_gapbs/gapbs/src/benchmark.h:54
    3e2e:	|  |     |  |  |  |  |  |  |  |           |         83 fa ff             	cmp    $0xffffffff,%edx
    3e31:	|  |     |  |  |  |  |  |  |  |           +-------- 0f 85 d9 fe ff ff    	jne    3d10 <main+0x250>
    3e37:	|  |     |  |  |  |  |  |  |  |           |     /-- eb 2e                	jmp    3e67 <main+0x3a7>
    3e39:	|  |     |  |  |  |  |  |  |  |           |     |   0f 1f 80 00 00 00 00 	nopl   0x0(%rax)
_ZN7UniDistIiSt23mersenne_twister_engineImLm64ELm312ELm156ELm31ELm13043109905998158313ELm29ELm6148914691236517205ELm17ELm8202884508482404352ELm37ELm18444473444759240704ELm43ELm6364136223846793005EEjEclEv():
/home/aliha951/forked_gapbs/gapbs/src/generator.h:56
      return rand_num;
    if (cutoff_ != 0) {
      while (rand_num >= cutoff_)
        rand_num = rng_();
    }
    return rand_num % mod_;
    3e40:	|  |     |  |  |  |  |  |  |  |        /--|-----|-> 31 d2                	xor    %edx,%edx
    3e42:	|  |     |  |  |  |  |  |  |  |        |  |     |   f7 b4 24 8c 0b 00 00 	divl   0xb8c(%rsp)
_ZNK8CSRGraphIiiLb1EE10out_degreeEi():
/home/aliha951/forked_gapbs/gapbs/src/graph.h:206
  int64_t num_edges_directed() const {
    return directed_ ? num_edges_ : 2*num_edges_;
  }

  int64_t out_degree(NodeID_ v) const {
    return out_index_[v+1] - out_index_[v];
    3e49:	|  |     |  |  |  |  |  |  |  |        |  |  /--|-> 48 8b 84 24 98 0b 00 	mov    0xb98(%rsp),%rax
    3e50:	00 
    3e51:	|  |     |  |  |  |  |  |  |  |        |  |  |  |   48 8b 40 18          	mov    0x18(%rax),%rax
    3e55:	|  |     |  |  |  |  |  |  |  |        |  |  |  |   48 63 ca             	movslq %edx,%rcx
_ZN12SourcePickerI8CSRGraphIiiLb1EEE8PickNextEv():
/home/aliha951/forked_gapbs/gapbs/src/benchmark.h:59
    } while (g_.out_degree(source) == 0);
    3e58:	|  |     |  |  |  |  |  |  |  |        |  |  |  |   48 8b 3c c8          	mov    (%rax,%rcx,8),%rdi
    3e5c:	|  |     |  |  |  |  |  |  |  |        |  |  |  |   48 39 7c c8 08       	cmp    %rdi,0x8(%rax,%rcx,8)
    3e61:	|  |     |  |  |  |  |  |  |  |        |  \--|--|-- 0f 85 a9 fe ff ff    	jne    3d10 <main+0x250>
_ZN7UniDistIiSt23mersenne_twister_engineImLm64ELm312ELm156ELm31ELm13043109905998158313ELm29ELm6148914691236517205ELm17ELm8202884508482404352ELm37ELm18444473444759240704ELm43ELm6364136223846793005EEjEclEv():
/home/aliha951/forked_gapbs/gapbs/src/generator.h:49
    uNodeID_ rand_num = rng_();
    3e67:	|  |     |  |  |  |  |  |  |  |        |     |  \-> 4c 8b b4 24 80 0b 00 	mov    0xb80(%rsp),%r14
    3e6e:	00 
_ZNSt23mersenne_twister_engineImLm64ELm312ELm156ELm31ELm13043109905998158313ELm29ELm6148914691236517205ELm17ELm8202884508482404352ELm37ELm18444473444759240704ELm43ELm6364136223846793005EEclEv():
/usr/include/c++/10/bits/random.tcc:455
      if (_M_p >= state_size)
    3e6f:	|  |     |  |  |  |  |  |  |  |        |     |      49 8b 96 c0 09 00 00 	mov    0x9c0(%r14),%rdx
    3e76:	|  |     |  |  |  |  |  |  |  |        |     |      48 81 fa 37 01 00 00 	cmp    $0x137,%rdx
    3e7d:	|  |     |  |  |  |  |  |  |  |     /--|-----|----- 0f 87 25 01 00 00    	ja     3fa8 <main+0x4e8>
/usr/include/c++/10/bits/random.tcc:459
      result_type __z = _M_x[_M_p++];
    3e83:	|  |     |  |  |  |  |  |  |  |  /--|--|-----|----> 48 8d 4a 01          	lea    0x1(%rdx),%rcx
    3e87:	|  |     |  |  |  |  |  |  |  |  |  |  |     |      49 8b 14 d6          	mov    (%r14,%rdx,8),%rdx
    3e8b:	|  |     |  |  |  |  |  |  |  |  |  |  |     |      49 89 8e c0 09 00 00 	mov    %rcx,0x9c0(%r14)
/usr/include/c++/10/bits/random.tcc:460
      __z ^= (__z >> __u) & __d;
    3e92:	|  |     |  |  |  |  |  |  |  |  |  |  |     |      48 89 d0             	mov    %rdx,%rax
    3e95:	|  |     |  |  |  |  |  |  |  |  |  |  |     |      48 c1 e8 1d          	shr    $0x1d,%rax
    3e99:	|  |     |  |  |  |  |  |  |  |  |  |  |     |      48 21 d8             	and    %rbx,%rax
    3e9c:	|  |     |  |  |  |  |  |  |  |  |  |  |     |      48 31 c2             	xor    %rax,%rdx
/usr/include/c++/10/bits/random.tcc:461
      __z ^= (__z << __s) & __b;
    3e9f:	|  |     |  |  |  |  |  |  |  |  |  |  |     |      48 89 d0             	mov    %rdx,%rax
    3ea2:	|  |     |  |  |  |  |  |  |  |  |  |  |     |      48 c1 e0 11          	shl    $0x11,%rax
    3ea6:	|  |     |  |  |  |  |  |  |  |  |  |  |     |      48 21 e8             	and    %rbp,%rax
    3ea9:	|  |     |  |  |  |  |  |  |  |  |  |  |     |      48 31 c2             	xor    %rax,%rdx
/usr/include/c++/10/bits/random.tcc:462
      __z ^= (__z << __t) & __c;
    3eac:	|  |     |  |  |  |  |  |  |  |  |  |  |     |      48 89 d0             	mov    %rdx,%rax
    3eaf:	|  |     |  |  |  |  |  |  |  |  |  |  |     |      48 c1 e0 25          	shl    $0x25,%rax
    3eb3:	|  |     |  |  |  |  |  |  |  |  |  |  |     |      4c 21 e0             	and    %r12,%rax
    3eb6:	|  |     |  |  |  |  |  |  |  |  |  |  |     |      48 31 c2             	xor    %rax,%rdx
/usr/include/c++/10/bits/random.tcc:463
      __z ^= (__z >> __l);
    3eb9:	|  |     |  |  |  |  |  |  |  |  |  |  |     |      48 89 d0             	mov    %rdx,%rax
    3ebc:	|  |     |  |  |  |  |  |  |  |  |  |  |     |      48 c1 e8 2b          	shr    $0x2b,%rax
    3ec0:	|  |     |  |  |  |  |  |  |  |  |  |  |     |      48 31 c2             	xor    %rax,%rdx
_ZN7UniDistIiSt23mersenne_twister_engineImLm64ELm312ELm156ELm31ELm13043109905998158313ELm29ELm6148914691236517205ELm17ELm8202884508482404352ELm37ELm18444473444759240704ELm43ELm6364136223846793005EEjEclEv():
/home/aliha951/forked_gapbs/gapbs/src/generator.h:50
    if (no_mod_)
    3ec3:	|  |     |  |  |  |  |  |  |  |  |  |  |     |      80 bc 24 88 0b 00 00 	cmpb   $0x0,0xb88(%rsp)
    3eca:	00 
    3ecb:	|  |     |  |  |  |  |  |  |  |  |  |  |     \----- 0f 85 78 ff ff ff    	jne    3e49 <main+0x389>
/home/aliha951/forked_gapbs/gapbs/src/generator.h:52
    if (cutoff_ != 0) {
    3ed1:	|  |     |  |  |  |  |  |  |  |  |  |  |            8b 8c 24 90 0b 00 00 	mov    0xb90(%rsp),%ecx
/home/aliha951/forked_gapbs/gapbs/src/generator.h:49
    uNodeID_ rand_num = rng_();
    3ed8:	|  |     |  |  |  |  |  |  |  |  |  |  |            89 d0                	mov    %edx,%eax
/home/aliha951/forked_gapbs/gapbs/src/generator.h:52
    if (cutoff_ != 0) {
    3eda:	|  |     |  |  |  |  |  |  |  |  |  |  |            85 c9                	test   %ecx,%ecx
    3edc:	|  |     |  |  |  |  |  |  |  |  |  |  +----------- 0f 84 5e ff ff ff    	je     3e40 <main+0x380>
    3ee2:	|  |     |  |  |  |  |  |  |  |  |  |  |        /-- eb 5c                	jmp    3f40 <main+0x480>
    3ee4:	|  |     |  |  |  |  |  |  |  |  |  |  |        |   0f 1f 40 00          	nopl   0x0(%rax)
_ZNSt23mersenne_twister_engineImLm64ELm312ELm156ELm31ELm13043109905998158313ELm29ELm6148914691236517205ELm17ELm8202884508482404352ELm37ELm18444473444759240704ELm43ELm6364136223846793005EEclEv():
/usr/include/c++/10/bits/random.tcc:456
	_M_gen_rand();
    3ee8:	|  |     |  |  |  |  |  |  |  |  |  |  |  /-----|-> 4c 89 f7             	mov    %r14,%rdi
    3eeb:	|  |     |  |  |  |  |  |  |  |  |  |  |  |     |   e8 90 9e 00 00       	callq  dd80 <_ZNSt23mersenne_twister_engineImLm64ELm312ELm156ELm31ELm13043109905998158313ELm29ELm6148914691236517205ELm17ELm8202884508482404352ELm37ELm18444473444759240704ELm43ELm6364136223846793005EE11_M_gen_randEv>
_ZN7UniDistIiSt23mersenne_twister_engineImLm64ELm312ELm156ELm31ELm13043109905998158313ELm29ELm6148914691236517205ELm17ELm8202884508482404352ELm37ELm18444473444759240704ELm43ELm6364136223846793005EEjEclEv():
/home/aliha951/forked_gapbs/gapbs/src/generator.h:53
      while (rand_num >= cutoff_)
    3ef0:	|  |     |  |  |  |  |  |  |  |  |  |  |  |     |   8b 8c 24 90 0b 00 00 	mov    0xb90(%rsp),%ecx
_ZNSt23mersenne_twister_engineImLm64ELm312ELm156ELm31ELm13043109905998158313ELm29ELm6148914691236517205ELm17ELm8202884508482404352ELm37ELm18444473444759240704ELm43ELm6364136223846793005EEclEv():
/usr/include/c++/10/bits/random.tcc:459
      result_type __z = _M_x[_M_p++];
    3ef7:	|  |     |  |  |  |  |  |  |  |  |  |  |  |     |   49 8b 96 c0 09 00 00 	mov    0x9c0(%r14),%rdx
    3efe:	|  |     |  |  |  |  |  |  |  |  |  |  |  |  /--|-> 48 8d 72 01          	lea    0x1(%rdx),%rsi
    3f02:	|  |     |  |  |  |  |  |  |  |  |  |  |  |  |  |   49 8b 14 d6          	mov    (%r14,%rdx,8),%rdx
    3f06:	|  |     |  |  |  |  |  |  |  |  |  |  |  |  |  |   49 89 b6 c0 09 00 00 	mov    %rsi,0x9c0(%r14)
/usr/include/c++/10/bits/random.tcc:460
      __z ^= (__z >> __u) & __d;
    3f0d:	|  |     |  |  |  |  |  |  |  |  |  |  |  |  |  |   48 89 d0             	mov    %rdx,%rax
    3f10:	|  |     |  |  |  |  |  |  |  |  |  |  |  |  |  |   48 c1 e8 1d          	shr    $0x1d,%rax
    3f14:	|  |     |  |  |  |  |  |  |  |  |  |  |  |  |  |   48 21 d8             	and    %rbx,%rax
    3f17:	|  |     |  |  |  |  |  |  |  |  |  |  |  |  |  |   48 31 c2             	xor    %rax,%rdx
/usr/include/c++/10/bits/random.tcc:461
      __z ^= (__z << __s) & __b;
    3f1a:	|  |     |  |  |  |  |  |  |  |  |  |  |  |  |  |   48 89 d0             	mov    %rdx,%rax
    3f1d:	|  |     |  |  |  |  |  |  |  |  |  |  |  |  |  |   48 c1 e0 11          	shl    $0x11,%rax
    3f21:	|  |     |  |  |  |  |  |  |  |  |  |  |  |  |  |   48 21 e8             	and    %rbp,%rax
    3f24:	|  |     |  |  |  |  |  |  |  |  |  |  |  |  |  |   48 31 c2             	xor    %rax,%rdx
/usr/include/c++/10/bits/random.tcc:462
      __z ^= (__z << __t) & __c;
    3f27:	|  |     |  |  |  |  |  |  |  |  |  |  |  |  |  |   48 89 d0             	mov    %rdx,%rax
    3f2a:	|  |     |  |  |  |  |  |  |  |  |  |  |  |  |  |   48 c1 e0 25          	shl    $0x25,%rax
    3f2e:	|  |     |  |  |  |  |  |  |  |  |  |  |  |  |  |   4c 21 e0             	and    %r12,%rax
    3f31:	|  |     |  |  |  |  |  |  |  |  |  |  |  |  |  |   48 31 c2             	xor    %rax,%rdx
/usr/include/c++/10/bits/random.tcc:463
      __z ^= (__z >> __l);
    3f34:	|  |     |  |  |  |  |  |  |  |  |  |  |  |  |  |   48 89 d0             	mov    %rdx,%rax
    3f37:	|  |     |  |  |  |  |  |  |  |  |  |  |  |  |  |   48 c1 e8 2b          	shr    $0x2b,%rax
    3f3b:	|  |     |  |  |  |  |  |  |  |  |  |  |  |  |  |   48 31 c2             	xor    %rax,%rdx
_ZN7UniDistIiSt23mersenne_twister_engineImLm64ELm312ELm156ELm31ELm13043109905998158313ELm29ELm6148914691236517205ELm17ELm8202884508482404352ELm37ELm18444473444759240704ELm43ELm6364136223846793005EEjEclEv():
/home/aliha951/forked_gapbs/gapbs/src/generator.h:54
        rand_num = rng_();
    3f3e:	|  |     |  |  |  |  |  |  |  |  |  |  |  |  |  |   89 d0                	mov    %edx,%eax
/home/aliha951/forked_gapbs/gapbs/src/generator.h:53
      while (rand_num >= cutoff_)
    3f40:	|  |     |  |  |  |  |  |  |  |  |  |  |  |  |  \-> 39 ca                	cmp    %ecx,%edx
    3f42:	|  |     |  |  |  |  |  |  |  |  |  |  \--|--|----- 0f 82 f8 fe ff ff    	jb     3e40 <main+0x380>
/home/aliha951/forked_gapbs/gapbs/src/generator.h:54
        rand_num = rng_();
    3f48:	|  |     |  |  |  |  |  |  |  |  |  |     |  |      4c 8b b4 24 80 0b 00 	mov    0xb80(%rsp),%r14
    3f4f:	00 
_ZNSt23mersenne_twister_engineImLm64ELm312ELm156ELm31ELm13043109905998158313ELm29ELm6148914691236517205ELm17ELm8202884508482404352ELm37ELm18444473444759240704ELm43ELm6364136223846793005EEclEv():
/usr/include/c++/10/bits/random.tcc:455
      if (_M_p >= state_size)
    3f50:	|  |     |  |  |  |  |  |  |  |  |  |     |  |      49 8b 96 c0 09 00 00 	mov    0x9c0(%r14),%rdx
    3f57:	|  |     |  |  |  |  |  |  |  |  |  |     |  |      48 81 fa 37 01 00 00 	cmp    $0x137,%rdx
    3f5e:	|  |     |  |  |  |  |  |  |  |  |  |     |  \----- 76 9e                	jbe    3efe <main+0x43e>
    3f60:	|  |     |  |  |  |  |  |  |  |  |  |     \-------- eb 86                	jmp    3ee8 <main+0x428>
_ZN6CLBase9ParseArgsEv():
/home/aliha951/forked_gapbs/gapbs/src/command_line.h:75
    if ((filename_ == "") && (scale_ == -1)) {
    3f62:	|  |     |  |  |  |  |  |  \--|--|--|-------------> 44 8b ac 24 70 01 00 	mov    0x170(%rsp),%r13d
    3f69:	00 
    3f6a:	|  |     |  |  |  |  |  |     |  |  |               41 83 fd ff          	cmp    $0xffffffff,%r13d
    3f6e:	|  |  /--|--|--|--|--|--|-----|--|--|-------------- 0f 84 a8 05 00 00    	je     451c <main+0xa5c>
/home/aliha951/forked_gapbs/gapbs/src/command_line.h:80
      symmetrize_ = true;
    3f74:	|  |  |  |  |  |  |  |  \-----|--|--|-------------> c6 84 24 98 01 00 00 	movb   $0x1,0x198(%rsp)
    3f7b:	01 
/home/aliha951/forked_gapbs/gapbs/src/command_line.h:77
      return false;
    3f7c:	|  |  |  |  |  |  |  \--------|--|--|-------------- e9 c6 fc ff ff       	jmpq   3c47 <main+0x187>
_ZN6CLBase9HandleArgEaPc():
/home/aliha951/forked_gapbs/gapbs/src/command_line.h:91
      case 'u': uniform_ = true; scale_ = atoi(opt_arg);    break;
    3f81:	|  |  |  |  |  |  |           |  |  |               c6 84 24 99 01 00 00 	movb   $0x1,0x199(%rsp)
    3f88:	01 
main():
/usr/include/stdlib.h:363
    3f89:	|  |  |  |  |  |  |           |  |  |               ba 0a 00 00 00       	mov    $0xa,%edx
atoi():
/usr/include/stdlib.h:363
    3f8e:	|  |  |  |  |  |  |           |  |  |               31 f6                	xor    %esi,%esi
    3f90:	|  |  |  |  |  |  |           |  |  |               48 89 ef             	mov    %rbp,%rdi
    3f93:	|  |  |  |  |  |  |           |  |  |               e8 d8 f7 ff ff       	callq  3770 <strtol@plt>
    3f98:	|  |  |  |  |  |  |           |  |  |               89 84 24 70 01 00 00 	mov    %eax,0x170(%rsp)
_ZN6CLBase9HandleArgEaPc():
/home/aliha951/forked_gapbs/gapbs/src/command_line.h:91
    3f9f:	+--|--|--|--|--|--|-----------|--|--|-------------- e9 cc fb ff ff       	jmpq   3b70 <main+0xb0>
    3fa4:	|  |  |  |  |  |  |           |  |  |               0f 1f 40 00          	nopl   0x0(%rax)
_ZNSt23mersenne_twister_engineImLm64ELm312ELm156ELm31ELm13043109905998158313ELm29ELm6148914691236517205ELm17ELm8202884508482404352ELm37ELm18444473444759240704ELm43ELm6364136223846793005EEclEv():
/usr/include/c++/10/bits/random.tcc:456
	_M_gen_rand();
    3fa8:	|  |  |  |  |  |  |           |  |  \-------------> 4c 89 f7             	mov    %r14,%rdi
    3fab:	|  |  |  |  |  |  |           |  |                  e8 d0 9d 00 00       	callq  dd80 <_ZNSt23mersenne_twister_engineImLm64ELm312ELm156ELm31ELm13043109905998158313ELm29ELm6148914691236517205ELm17ELm8202884508482404352ELm37ELm18444473444759240704ELm43ELm6364136223846793005EE11_M_gen_randEv>
/usr/include/c++/10/bits/random.tcc:459
      result_type __z = _M_x[_M_p++];
    3fb0:	|  |  |  |  |  |  |           |  |                  49 8b 96 c0 09 00 00 	mov    0x9c0(%r14),%rdx
    3fb7:	|  |  |  |  |  |  |           |  \----------------- e9 c7 fe ff ff       	jmpq   3e83 <main+0x3c3>
    3fbc:	|  |  |  |  |  |  |           |                     0f 1f 40 00          	nopl   0x0(%rax)
_ZN5Timer5StartEv():
/home/aliha951/forked_gapbs/gapbs/src/timer.h:23
    3fc0:	|  |  |  |  |  |  |           \-------------------> e8 fb f4 ff ff       	callq  34c0 <_ZNSt6chrono3_V212system_clock3nowEv@plt>
_ZN12SourcePickerI8CSRGraphIiiLb1EEE8PickNextEv():
/home/aliha951/forked_gapbs/gapbs/src/benchmark.h:54
    if (given_source_ != -1)
    3fc5:	|  |  |  |  |  |  |                                 8b b4 24 a0 0b 00 00 	mov    0xba0(%rsp),%esi
_ZN5Timer5StartEv():
/home/aliha951/forked_gapbs/gapbs/src/timer.h:23
    3fcc:	|  |  |  |  |  |  |                                 48 89 44 24 20       	mov    %rax,0x20(%rsp)
_ZN12SourcePickerI8CSRGraphIiiLb1EEE8PickNextEv():
/home/aliha951/forked_gapbs/gapbs/src/benchmark.h:54
    3fd1:	|  |  |  |  |  |  |                                 83 fe ff             	cmp    $0xffffffff,%esi
    3fd4:	|  |  |  |  |  |  |                    /----------- 0f 84 87 01 00 00    	je     4161 <main+0x6a1>
main():
/home/aliha951/forked_gapbs/gapbs/src/bfs.cc:262
  auto VerifierBound = [&vsp] (const Graph &g, const pvector<NodeID> &parent) {
    return BFSVerifier(g, vsp.PickNext(), parent);
    3fda:	|  |  |  |  |  |  |                    |     /----> 48 8b 54 24 18       	mov    0x18(%rsp),%rdx
operator()():
/home/aliha951/forked_gapbs/gapbs/src/bfs.cc:262
    3fdf:	|  |  |  |  |  |  |                    |     |      4c 89 ff             	mov    %r15,%rdi
    3fe2:	|  |  |  |  |  |  |                    |     |      e8 59 2d 00 00       	callq  6d40 <_Z11BFSVerifierRK8CSRGraphIiiLb1EEiRK7pvectorIiE>
BenchmarkKernel<CSRGraph<int>, main(int, char**)::<lambda(const Graph&)>, void (*)(const CSRGraph<int>&, const pvector<int>&), main(int, char**)::<lambda(const Graph&, const pvector<int>&)> >():
/home/aliha951/forked_gapbs/gapbs/src/benchmark.h:116
      trial_timer.Start();
      PrintLabel("Verification",
    3fe7:	|  |  |  |  |  |  |                    |     |      3c 01                	cmp    $0x1,%al
_ZNSt7__cxx1112basic_stringIcSt11char_traitsIcESaIcEE12_Alloc_hiderC4EPcRKS3_():
/usr/include/c++/10/bits/basic_string.h:165
	: allocator_type(__a), _M_p(__dat) { }
    3fe9:	|  |  |  |  |  |  |                    |     |      4c 89 ac 24 e0 00 00 	mov    %r13,0xe0(%rsp)
    3ff0:	00 
    3ff1:	|  |  |  |  |  |  |                    |     |      48 8d bc 24 d0 00 00 	lea    0xd0(%rsp),%rdi
    3ff8:	00 
    3ff9:	|  |  |  |  |  |  |                    |     |      48 8d b4 24 c0 00 00 	lea    0xc0(%rsp),%rsi
    4000:	00 
BenchmarkKernel<CSRGraph<int>, main(int, char**)::<lambda(const Graph&)>, void (*)(const CSRGraph<int>&, const pvector<int>&), main(int, char**)::<lambda(const Graph&, const pvector<int>&)> >():
/home/aliha951/forked_gapbs/gapbs/src/benchmark.h:116
    4001:	|  |  |  |  |  |  |                    |     |      19 c0                	sbb    %eax,%eax
_ZNSt11char_traitsIcE4copyEPcPKcm():
/usr/include/c++/10/bits/char_traits.h:437
	return static_cast<char_type*>(__builtin_memcpy(__s1, __s2, __n));
    4003:	|  |  |  |  |  |  |                    |     |      41 c7 45 08 74 69 6f 	movl   $0x6e6f6974,0x8(%r13)
    400a:	6e 
BenchmarkKernel<CSRGraph<int>, main(int, char**)::<lambda(const Graph&)>, void (*)(const CSRGraph<int>&, const pvector<int>&), main(int, char**)::<lambda(const Graph&, const pvector<int>&)> >():
/home/aliha951/forked_gapbs/gapbs/src/benchmark.h:116
    400b:	|  |  |  |  |  |  |                    |     |      25 f6 ff f5 f8       	and    $0xf8f5fff6,%eax
_ZNSt7__cxx1112basic_stringIcSt11char_traitsIcESaIcEE12_Alloc_hiderC4EPcRKS3_():
/usr/include/c++/10/bits/basic_string.h:165
    4010:	|  |  |  |  |  |  |                    |     |      48 89 7c 24 08       	mov    %rdi,0x8(%rsp)
BenchmarkKernel<CSRGraph<int>, main(int, char**)::<lambda(const Graph&)>, void (*)(const CSRGraph<int>&, const pvector<int>&), main(int, char**)::<lambda(const Graph&, const pvector<int>&)> >():
/home/aliha951/forked_gapbs/gapbs/src/benchmark.h:116
    4015:	|  |  |  |  |  |  |                    |     |      05 50 41 53 53       	add    $0x53534150,%eax
_ZNSt7__cxx1112basic_stringIcSt11char_traitsIcESaIcEE12_Alloc_hiderC4EPcRKS3_():
/usr/include/c++/10/bits/basic_string.h:165
    401a:	|  |  |  |  |  |  |                    |     |      48 89 bc 24 c0 00 00 	mov    %rdi,0xc0(%rsp)
    4021:	00 
BenchmarkKernel<CSRGraph<int>, main(int, char**)::<lambda(const Graph&)>, void (*)(const CSRGraph<int>&, const pvector<int>&), main(int, char**)::<lambda(const Graph&, const pvector<int>&)> >():
/home/aliha951/forked_gapbs/gapbs/src/benchmark.h:116
    4022:	|  |  |  |  |  |  |                    |     |      4c 89 f7             	mov    %r14,%rdi
_ZNSt11char_traitsIcE4copyEPcPKcm():
/usr/include/c++/10/bits/char_traits.h:437
    4025:	|  |  |  |  |  |  |                    |     |      89 84 24 d0 00 00 00 	mov    %eax,0xd0(%rsp)
    402c:	|  |  |  |  |  |  |                    |     |      48 b8 56 65 72 69 66 	movabs $0x6163696669726556,%rax
    4033:	69 63 61 
    4036:	|  |  |  |  |  |  |                    |     |      49 89 45 00          	mov    %rax,0x0(%r13)
_ZNSt7__cxx1112basic_stringIcSt11char_traitsIcESaIcEE9_M_lengthEm():
/usr/include/c++/10/bits/basic_string.h:191
      { _M_string_length = __length; }
    403a:	|  |  |  |  |  |  |                    |     |      48 c7 84 24 c8 00 00 	movq   $0x4,0xc8(%rsp)
    4041:	00 04 00 00 00 
_ZNSt11char_traitsIcE6assignERcRKc():
/usr/include/c++/10/bits/char_traits.h:357
      { __c1 = __c2; }
    4046:	|  |  |  |  |  |  |                    |     |      c6 84 24 d4 00 00 00 	movb   $0x0,0xd4(%rsp)
    404d:	00 
_ZNSt7__cxx1112basic_stringIcSt11char_traitsIcESaIcEE9_M_lengthEm():
/usr/include/c++/10/bits/basic_string.h:191
    404e:	|  |  |  |  |  |  |                    |     |      48 c7 84 24 e8 00 00 	movq   $0xc,0xe8(%rsp)
    4055:	00 0c 00 00 00 
_ZNSt11char_traitsIcE6assignERcRKc():
/usr/include/c++/10/bits/char_traits.h:357
    405a:	|  |  |  |  |  |  |                    |     |      c6 84 24 fc 00 00 00 	movb   $0x0,0xfc(%rsp)
    4061:	00 
BenchmarkKernel<CSRGraph<int>, main(int, char**)::<lambda(const Graph&)>, void (*)(const CSRGraph<int>&, const pvector<int>&), main(int, char**)::<lambda(const Graph&, const pvector<int>&)> >():
/home/aliha951/forked_gapbs/gapbs/src/benchmark.h:116
    4062:	|  |  |  |  |  |  |                    |     |      e8 09 18 00 00       	callq  5870 <_Z10PrintLabelRKNSt7__cxx1112basic_stringIcSt11char_traitsIcESaIcEEES6_>
_ZNKSt7__cxx1112basic_stringIcSt11char_traitsIcESaIcEE7_M_dataEv():
/usr/include/c++/10/bits/basic_string.h:195
      { return _M_dataplus._M_p; }
    4067:	|  |  |  |  |  |  |                    |     |      48 8b bc 24 e0 00 00 	mov    0xe0(%rsp),%rdi
    406e:	00 
_ZNSt7__cxx1112basic_stringIcSt11char_traitsIcESaIcEE10_M_disposeEv():
/usr/include/c++/10/bits/basic_string.h:239
	if (!_M_is_local())
    406f:	|  |  |  |  |  |  |                    |     |      4c 39 ef             	cmp    %r13,%rdi
    4072:	|  |  |  |  |  |  |                    |     |  /-- 74 05                	je     4079 <main+0x5b9>
_ZN9__gnu_cxx13new_allocatorIcE10deallocateEPcm():
/usr/include/c++/10/ext/new_allocator.h:139
    4074:	|  |  |  |  |  |  |                    |     |  |   e8 d7 f5 ff ff       	callq  3650 <_ZdlPv@plt>
_ZNKSt7__cxx1112basic_stringIcSt11char_traitsIcESaIcEE7_M_dataEv():
/usr/include/c++/10/bits/basic_string.h:195
      { return _M_dataplus._M_p; }
    4079:	|  |  |  |  |  |  |                    |     |  \-> 48 8b bc 24 c0 00 00 	mov    0xc0(%rsp),%rdi
    4080:	00 
_ZNSt7__cxx1112basic_stringIcSt11char_traitsIcESaIcEE10_M_disposeEv():
/usr/include/c++/10/bits/basic_string.h:239
	if (!_M_is_local())
    4081:	|  |  |  |  |  |  |                    |     |      48 3b 7c 24 08       	cmp    0x8(%rsp),%rdi
    4086:	|  |  |  |  |  |  |                    |     |  /-- 74 05                	je     408d <main+0x5cd>
_ZN9__gnu_cxx13new_allocatorIcE10deallocateEPcm():
/usr/include/c++/10/ext/new_allocator.h:139
    4088:	|  |  |  |  |  |  |                    |     |  |   e8 c3 f5 ff ff       	callq  3650 <_ZdlPv@plt>
_ZN5Timer4StopEv():
/home/aliha951/forked_gapbs/gapbs/src/timer.h:27
    elapsed_time_ = std::chrono::high_resolution_clock::now();
    408d:	|  |  |  |  |  |  |                    |     |  \-> e8 2e f4 ff ff       	callq  34c0 <_ZNSt6chrono3_V212system_clock3nowEv@plt>
_ZNSt6chrono20__duration_cast_implINS_8durationIdSt5ratioILl1ELl1EEEES2_ILl1ELl1000000000EEdLb1ELb0EE6__castIlS5_EES4_RKNS1_IT_T0_EE():
/usr/include/c++/10/chrono:214
    4092:	|  |  |  |  |  |  |                    |     |      66 0f ef c0          	pxor   %xmm0,%xmm0
_ZNSt6chronomiIlSt5ratioILl1ELl1000000000EElS2_EENSt11common_typeIJNS_8durationIT_T0_EENS4_IT1_T2_EEEE4typeERKS7_RKSA_():
/usr/include/c++/10/chrono:614
	return __cd(__cd(__lhs).count() - __cd(__rhs).count());
    4096:	|  |  |  |  |  |  |                    |     |      48 2b 44 24 20       	sub    0x20(%rsp),%rax
_ZNSt7__cxx1112basic_stringIcSt11char_traitsIcESaIcEE12_M_constructIPKcEEvT_S8_St20forward_iterator_tag():
/usr/include/c++/10/bits/basic_string.tcc:219
    409b:	|  |  |  |  |  |  |                    |     |      31 d2                	xor    %edx,%edx
    409d:	|  |  |  |  |  |  |                    |     |      48 8d 74 24 38       	lea    0x38(%rsp),%rsi
    40a2:	|  |  |  |  |  |  |                    |     |      4c 89 f7             	mov    %r14,%rdi
_ZNSt7__cxx1112basic_stringIcSt11char_traitsIcESaIcEE12_Alloc_hiderC4EPcRKS3_():
/usr/include/c++/10/bits/basic_string.h:165
	: allocator_type(__a), _M_p(__dat) { }
    40a5:	|  |  |  |  |  |  |                    |     |      4c 89 ac 24 e0 00 00 	mov    %r13,0xe0(%rsp)
    40ac:	00 
_ZNSt7__cxx1112basic_stringIcSt11char_traitsIcESaIcEE12_M_constructIPKcEEvT_S8_St20forward_iterator_tag():
/usr/include/c++/10/bits/basic_string.tcc:215
	size_type __dnew = static_cast<size_type>(std::distance(__beg, __end));
    40ad:	|  |  |  |  |  |  |                    |     |      48 c7 44 24 38 11 00 	movq   $0x11,0x38(%rsp)
    40b4:	00 00 
_ZNSt6chrono20__duration_cast_implINS_8durationIdSt5ratioILl1ELl1EEEES2_ILl1ELl1000000000EEdLb1ELb0EE6__castIlS5_EES4_RKNS1_IT_T0_EE():
/usr/include/c++/10/chrono:214
	      static_cast<_CR>(__d.count()) / static_cast<_CR>(_CF::den)));
    40b6:	|  |  |  |  |  |  |                    |     |      f2 48 0f 2a c0       	cvtsi2sd %rax,%xmm0
    40bb:	|  |  |  |  |  |  |                    |     |      f2 0f 5e 05 ed e7 00 	divsd  0xe7ed(%rip),%xmm0        # 128b0 <_ZZNSt8__detail18__to_chars_10_implIjEEvPcjT_E8__digits+0x230>
    40c2:	00 
    40c3:	|  |  |  |  |  |  |                    |     |      f2 0f 11 44 24 08    	movsd  %xmm0,0x8(%rsp)
_ZNSt7__cxx1112basic_stringIcSt11char_traitsIcESaIcEE12_M_constructIPKcEEvT_S8_St20forward_iterator_tag():
/usr/include/c++/10/bits/basic_string.tcc:219
	    _M_data(_M_create(__dnew, size_type(0)));
    40c9:	|  |  |  |  |  |  |                    |     |      e8 a2 f7 ff ff       	callq  3870 <_ZNSt7__cxx1112basic_stringIcSt11char_traitsIcESaIcEE9_M_createERmm@plt>
_ZNSt7__cxx1112basic_stringIcSt11char_traitsIcESaIcEE11_M_capacityEm():
/usr/include/c++/10/bits/basic_string.h:219
      { _M_allocated_capacity = __capacity; }
    40ce:	|  |  |  |  |  |  |                    |     |      48 8b 54 24 38       	mov    0x38(%rsp),%rdx
_ZNSt11char_traitsIcE4copyEPcPKcm():
/usr/include/c++/10/bits/char_traits.h:437
	return static_cast<char_type*>(__builtin_memcpy(__s1, __s2, __n));
    40d3:	|  |  |  |  |  |  |                    |     |      66 0f 6f 05 c5 e7 00 	movdqa 0xe7c5(%rip),%xmm0        # 128a0 <_ZZNSt8__detail18__to_chars_10_implIjEEvPcjT_E8__digits+0x220>
    40da:	00 
_ZNSt7__cxx1112basic_stringIcSt11char_traitsIcESaIcEE7_M_dataEPc():
/usr/include/c++/10/bits/basic_string.h:187
      { _M_dataplus._M_p = __p; }
    40db:	|  |  |  |  |  |  |                    |     |      48 89 84 24 e0 00 00 	mov    %rax,0xe0(%rsp)
    40e2:	00 
BenchmarkKernel<CSRGraph<int>, main(int, char**)::<lambda(const Graph&)>, void (*)(const CSRGraph<int>&, const pvector<int>&), main(int, char**)::<lambda(const Graph&, const pvector<int>&)> >():
/home/aliha951/forked_gapbs/gapbs/src/benchmark.h:119
                 verify(std::ref(g), std::ref(result)) ? "PASS" : "FAIL");
      trial_timer.Stop();
      PrintTime("Verification Time", trial_timer.Seconds());
    40e3:	|  |  |  |  |  |  |                    |     |      4c 89 f7             	mov    %r14,%rdi
_ZNSt7__cxx1112basic_stringIcSt11char_traitsIcESaIcEE11_M_capacityEm():
/usr/include/c++/10/bits/basic_string.h:219
      { _M_allocated_capacity = __capacity; }
    40e6:	|  |  |  |  |  |  |                    |     |      48 89 94 24 f0 00 00 	mov    %rdx,0xf0(%rsp)
    40ed:	00 
_ZNSt11char_traitsIcE4copyEPcPKcm():
/usr/include/c++/10/bits/char_traits.h:437
    40ee:	|  |  |  |  |  |  |                    |     |      0f 11 00             	movups %xmm0,(%rax)
BenchmarkKernel<CSRGraph<int>, main(int, char**)::<lambda(const Graph&)>, void (*)(const CSRGraph<int>&, const pvector<int>&), main(int, char**)::<lambda(const Graph&, const pvector<int>&)> >():
/home/aliha951/forked_gapbs/gapbs/src/benchmark.h:119
    40f1:	|  |  |  |  |  |  |                    |     |      f2 0f 10 44 24 08    	movsd  0x8(%rsp),%xmm0
_ZNSt11char_traitsIcE4copyEPcPKcm():
/usr/include/c++/10/bits/char_traits.h:437
    40f7:	|  |  |  |  |  |  |                    |     |      c6 40 10 65          	movb   $0x65,0x10(%rax)
_ZNSt7__cxx1112basic_stringIcSt11char_traitsIcESaIcEE12_M_constructIPKcEEvT_S8_St20forward_iterator_tag():
/usr/include/c++/10/bits/basic_string.tcc:232
	  {
	    _M_dispose();
	    __throw_exception_again;
	  }

	_M_set_length(__dnew);
    40fb:	|  |  |  |  |  |  |                    |     |      48 8b 44 24 38       	mov    0x38(%rsp),%rax
_ZNSt11char_traitsIcE6assignERcRKc():
/usr/include/c++/10/bits/char_traits.h:357
      { __c1 = __c2; }
    4100:	|  |  |  |  |  |  |                    |     |      48 8b 94 24 e0 00 00 	mov    0xe0(%rsp),%rdx
    4107:	00 
_ZNSt7__cxx1112basic_stringIcSt11char_traitsIcESaIcEE9_M_lengthEm():
/usr/include/c++/10/bits/basic_string.h:191
      { _M_string_length = __length; }
    4108:	|  |  |  |  |  |  |                    |     |      48 89 84 24 e8 00 00 	mov    %rax,0xe8(%rsp)
    410f:	00 
_ZNSt11char_traitsIcE6assignERcRKc():
/usr/include/c++/10/bits/char_traits.h:357
    4110:	|  |  |  |  |  |  |                    |     |      c6 04 02 00          	movb   $0x0,(%rdx,%rax,1)
BenchmarkKernel<CSRGraph<int>, main(int, char**)::<lambda(const Graph&)>, void (*)(const CSRGraph<int>&, const pvector<int>&), main(int, char**)::<lambda(const Graph&, const pvector<int>&)> >():
/home/aliha951/forked_gapbs/gapbs/src/benchmark.h:119
    4114:	|  |  |  |  |  |  |                    |     |      e8 c7 18 00 00       	callq  59e0 <_Z9PrintTimeRKNSt7__cxx1112basic_stringIcSt11char_traitsIcESaIcEEEd>
_ZNKSt7__cxx1112basic_stringIcSt11char_traitsIcESaIcEE7_M_dataEv():
/usr/include/c++/10/bits/basic_string.h:195
      { return _M_dataplus._M_p; }
    4119:	|  |  |  |  |  |  |                    |     |      48 8b bc 24 e0 00 00 	mov    0xe0(%rsp),%rdi
    4120:	00 
_ZNSt7__cxx1112basic_stringIcSt11char_traitsIcESaIcEE10_M_disposeEv():
/usr/include/c++/10/bits/basic_string.h:239
	if (!_M_is_local())
    4121:	|  |  |  |  |  |  |                    |     |      4c 39 ef             	cmp    %r13,%rdi
    4124:	|  |  |  |  |  |  +--------------------|-----|----- 0f 84 c5 fc ff ff    	je     3def <main+0x32f>
_ZN9__gnu_cxx13new_allocatorIcE10deallocateEPcm():
/usr/include/c++/10/ext/new_allocator.h:139
    412a:	|  |  |  |  |  |  |                    |     |      e8 21 f5 ff ff       	callq  3650 <_ZdlPv@plt>
_ZNSt7__cxx1112basic_stringIcSt11char_traitsIcESaIcEE10_M_destroyEm():
/usr/include/c++/10/bits/basic_string.h:245
      { _Alloc_traits::deallocate(_M_get_allocator(), _M_data(), __size + 1); }
    412f:	|  |  |  |  |  |  \--------------------|-----|----- e9 bb fc ff ff       	jmpq   3def <main+0x32f>
    4134:	|  |  |  |  |  |                       |     |      0f 1f 40 00          	nopl   0x0(%rax)
_ZN7UniDistIiSt23mersenne_twister_engineImLm64ELm312ELm156ELm31ELm13043109905998158313ELm29ELm6148914691236517205ELm17ELm8202884508482404352ELm37ELm18444473444759240704ELm43ELm6364136223846793005EEjEclEv():
/home/aliha951/forked_gapbs/gapbs/src/generator.h:56
    return rand_num % mod_;
    4138:	|  |  |  |  |  |                       |  /--|----> 31 d2                	xor    %edx,%edx
    413a:	|  |  |  |  |  |                       |  |  |      f7 b4 24 7c 15 00 00 	divl   0x157c(%rsp)
    4141:	|  |  |  |  |  |                       |  |  |      89 d6                	mov    %edx,%esi
_ZNK8CSRGraphIiiLb1EE10out_degreeEi():
/home/aliha951/forked_gapbs/gapbs/src/graph.h:206
    4143:	|  |  |  |  |  |                       |  |  |  /-> 48 8b 84 24 88 15 00 	mov    0x1588(%rsp),%rax
    414a:	00 
    414b:	|  |  |  |  |  |                       |  |  |  |   48 63 d6             	movslq %esi,%rdx
    414e:	|  |  |  |  |  |                       |  |  |  |   48 8b 40 18          	mov    0x18(%rax),%rax
_ZN12SourcePickerI8CSRGraphIiiLb1EEE8PickNextEv():
/home/aliha951/forked_gapbs/gapbs/src/benchmark.h:59
    } while (g_.out_degree(source) == 0);
    4152:	|  |  |  |  |  |                       |  |  |  |   48 8b 3c d0          	mov    (%rax,%rdx,8),%rdi
    4156:	|  |  |  |  |  |                       |  |  |  |   48 39 7c d0 08       	cmp    %rdi,0x8(%rax,%rdx,8)
    415b:	|  |  |  |  |  |                       |  |  \--|-- 0f 85 79 fe ff ff    	jne    3fda <main+0x51a>
_ZN7UniDistIiSt23mersenne_twister_engineImLm64ELm312ELm156ELm31ELm13043109905998158313ELm29ELm6148914691236517205ELm17ELm8202884508482404352ELm37ELm18444473444759240704ELm43ELm6364136223846793005EEjEclEv():
/home/aliha951/forked_gapbs/gapbs/src/generator.h:49
    uNodeID_ rand_num = rng_();
    4161:	|  |  |  |  |  |                       \--|-----|-> 48 8b 84 24 70 15 00 	mov    0x1570(%rsp),%rax
    4168:	00 
_ZNSt23mersenne_twister_engineImLm64ELm312ELm156ELm31ELm13043109905998158313ELm29ELm6148914691236517205ELm17ELm8202884508482404352ELm37ELm18444473444759240704ELm43ELm6364136223846793005EEclEv():
/usr/include/c++/10/bits/random.tcc:455
      if (_M_p >= state_size)
    4169:	|  |  |  |  |  |                          |     |   48 8b 90 c0 09 00 00 	mov    0x9c0(%rax),%rdx
    4170:	|  |  |  |  |  |                          |     |   48 81 fa 37 01 00 00 	cmp    $0x137,%rdx
    4177:	|  |  |  |  |  |                       /--|-----|-- 0f 87 f3 00 00 00    	ja     4270 <main+0x7b0>
/usr/include/c++/10/bits/random.tcc:459
      result_type __z = _M_x[_M_p++];
    417d:	|  |  |  |  |  |                    /--|--|-----|-> 48 8d 4a 01          	lea    0x1(%rdx),%rcx
    4181:	|  |  |  |  |  |                    |  |  |     |   48 89 88 c0 09 00 00 	mov    %rcx,0x9c0(%rax)
    4188:	|  |  |  |  |  |                    |  |  |     |   48 8b 04 d0          	mov    (%rax,%rdx,8),%rax
/usr/include/c++/10/bits/random.tcc:460
      __z ^= (__z >> __u) & __d;
    418c:	|  |  |  |  |  |                    |  |  |     |   48 89 c2             	mov    %rax,%rdx
    418f:	|  |  |  |  |  |                    |  |  |     |   48 c1 ea 1d          	shr    $0x1d,%rdx
    4193:	|  |  |  |  |  |                    |  |  |     |   48 21 da             	and    %rbx,%rdx
    4196:	|  |  |  |  |  |                    |  |  |     |   48 31 d0             	xor    %rdx,%rax
/usr/include/c++/10/bits/random.tcc:461
      __z ^= (__z << __s) & __b;
    4199:	|  |  |  |  |  |                    |  |  |     |   48 89 c2             	mov    %rax,%rdx
    419c:	|  |  |  |  |  |                    |  |  |     |   48 c1 e2 11          	shl    $0x11,%rdx
    41a0:	|  |  |  |  |  |                    |  |  |     |   48 21 ea             	and    %rbp,%rdx
    41a3:	|  |  |  |  |  |                    |  |  |     |   48 31 d0             	xor    %rdx,%rax
/usr/include/c++/10/bits/random.tcc:462
      __z ^= (__z << __t) & __c;
    41a6:	|  |  |  |  |  |                    |  |  |     |   48 89 c2             	mov    %rax,%rdx
    41a9:	|  |  |  |  |  |                    |  |  |     |   48 c1 e2 25          	shl    $0x25,%rdx
    41ad:	|  |  |  |  |  |                    |  |  |     |   4c 21 e2             	and    %r12,%rdx
    41b0:	|  |  |  |  |  |                    |  |  |     |   48 31 d0             	xor    %rdx,%rax
/usr/include/c++/10/bits/random.tcc:463
      __z ^= (__z >> __l);
    41b3:	|  |  |  |  |  |                    |  |  |     |   48 89 c6             	mov    %rax,%rsi
    41b6:	|  |  |  |  |  |                    |  |  |     |   48 c1 ee 2b          	shr    $0x2b,%rsi
    41ba:	|  |  |  |  |  |                    |  |  |     |   48 31 c6             	xor    %rax,%rsi
_ZN7UniDistIiSt23mersenne_twister_engineImLm64ELm312ELm156ELm31ELm13043109905998158313ELm29ELm6148914691236517205ELm17ELm8202884508482404352ELm37ELm18444473444759240704ELm43ELm6364136223846793005EEjEclEv():
/home/aliha951/forked_gapbs/gapbs/src/generator.h:50
    if (no_mod_)
    41bd:	|  |  |  |  |  |                    |  |  |     |   80 bc 24 78 15 00 00 	cmpb   $0x0,0x1578(%rsp)
    41c4:	00 
    41c5:	|  |  |  |  |  |                    |  |  |     \-- 0f 85 78 ff ff ff    	jne    4143 <main+0x683>
/home/aliha951/forked_gapbs/gapbs/src/generator.h:52
    if (cutoff_ != 0) {
    41cb:	|  |  |  |  |  |                    |  |  |         8b 8c 24 80 15 00 00 	mov    0x1580(%rsp),%ecx
/home/aliha951/forked_gapbs/gapbs/src/generator.h:49
    uNodeID_ rand_num = rng_();
    41d2:	|  |  |  |  |  |                    |  |  |         89 f0                	mov    %esi,%eax
/home/aliha951/forked_gapbs/gapbs/src/generator.h:52
    if (cutoff_ != 0) {
    41d4:	|  |  |  |  |  |                    |  |  |         85 c9                	test   %ecx,%ecx
    41d6:	|  |  |  |  |  |                    |  |  +-------- 0f 84 5c ff ff ff    	je     4138 <main+0x678>
/home/aliha951/forked_gapbs/gapbs/src/generator.h:53
      while (rand_num >= cutoff_)
    41dc:	|  |  |  |  |  |                    |  |  |         39 ce                	cmp    %ecx,%esi
    41de:	|  |  |  |  |  |                    |  |  |     /-- 73 52                	jae    4232 <main+0x772>
    41e0:	|  |  |  |  |  |                    |  |  +-----|-- e9 53 ff ff ff       	jmpq   4138 <main+0x678>
    41e5:	|  |  |  |  |  |                    |  |  |     |   0f 1f 00             	nopl   (%rax)
_ZNSt23mersenne_twister_engineImLm64ELm312ELm156ELm31ELm13043109905998158313ELm29ELm6148914691236517205ELm17ELm8202884508482404352ELm37ELm18444473444759240704ELm43ELm6364136223846793005EEclEv():
/usr/include/c++/10/bits/random.tcc:459
      result_type __z = _M_x[_M_p++];
    41e8:	|  |  |  |  |  |                    |  |  |  /--|-> 48 8d 72 01          	lea    0x1(%rdx),%rsi
    41ec:	|  |  |  |  |  |                    |  |  |  |  |   48 8b 14 d0          	mov    (%rax,%rdx,8),%rdx
    41f0:	|  |  |  |  |  |                    |  |  |  |  |   48 89 b0 c0 09 00 00 	mov    %rsi,0x9c0(%rax)
/usr/include/c++/10/bits/random.tcc:460
      __z ^= (__z >> __u) & __d;
    41f7:	|  |  |  |  |  |                    |  |  |  |  |   48 89 d0             	mov    %rdx,%rax
    41fa:	|  |  |  |  |  |                    |  |  |  |  |   48 c1 e8 1d          	shr    $0x1d,%rax
    41fe:	|  |  |  |  |  |                    |  |  |  |  |   48 21 d8             	and    %rbx,%rax
    4201:	|  |  |  |  |  |                    |  |  |  |  |   48 31 c2             	xor    %rax,%rdx
/usr/include/c++/10/bits/random.tcc:461
      __z ^= (__z << __s) & __b;
    4204:	|  |  |  |  |  |                    |  |  |  |  |   48 89 d0             	mov    %rdx,%rax
    4207:	|  |  |  |  |  |                    |  |  |  |  |   48 c1 e0 11          	shl    $0x11,%rax
    420b:	|  |  |  |  |  |                    |  |  |  |  |   48 21 e8             	and    %rbp,%rax
    420e:	|  |  |  |  |  |                    |  |  |  |  |   48 31 c2             	xor    %rax,%rdx
/usr/include/c++/10/bits/random.tcc:462
      __z ^= (__z << __t) & __c;
    4211:	|  |  |  |  |  |                    |  |  |  |  |   48 89 d0             	mov    %rdx,%rax
    4214:	|  |  |  |  |  |                    |  |  |  |  |   48 c1 e0 25          	shl    $0x25,%rax
    4218:	|  |  |  |  |  |                    |  |  |  |  |   4c 21 e0             	and    %r12,%rax
    421b:	|  |  |  |  |  |                    |  |  |  |  |   48 31 c2             	xor    %rax,%rdx
/usr/include/c++/10/bits/random.tcc:463
      __z ^= (__z >> __l);
    421e:	|  |  |  |  |  |                    |  |  |  |  |   48 89 d0             	mov    %rdx,%rax
    4221:	|  |  |  |  |  |                    |  |  |  |  |   48 c1 e8 2b          	shr    $0x2b,%rax
    4225:	|  |  |  |  |  |                    |  |  |  |  |   48 31 c2             	xor    %rax,%rdx
_ZN7UniDistIiSt23mersenne_twister_engineImLm64ELm312ELm156ELm31ELm13043109905998158313ELm29ELm6148914691236517205ELm17ELm8202884508482404352ELm37ELm18444473444759240704ELm43ELm6364136223846793005EEjEclEv():
/home/aliha951/forked_gapbs/gapbs/src/generator.h:54
        rand_num = rng_();
    4228:	|  |  |  |  |  |                    |  |  |  |  |   89 d0                	mov    %edx,%eax
/home/aliha951/forked_gapbs/gapbs/src/generator.h:53
      while (rand_num >= cutoff_)
    422a:	|  |  |  |  |  |                    |  |  |  |  |   39 ca                	cmp    %ecx,%edx
    422c:	|  |  |  |  |  |                    |  |  \--|--|-- 0f 82 06 ff ff ff    	jb     4138 <main+0x678>
/home/aliha951/forked_gapbs/gapbs/src/generator.h:54
        rand_num = rng_();
    4232:	|  |  |  |  |  |                    |  |     |  \-> 48 8b 84 24 70 15 00 	mov    0x1570(%rsp),%rax
    4239:	00 
_ZNSt23mersenne_twister_engineImLm64ELm312ELm156ELm31ELm13043109905998158313ELm29ELm6148914691236517205ELm17ELm8202884508482404352ELm37ELm18444473444759240704ELm43ELm6364136223846793005EEclEv():
/usr/include/c++/10/bits/random.tcc:455
      if (_M_p >= state_size)
    423a:	|  |  |  |  |  |                    |  |     |      48 8b 90 c0 09 00 00 	mov    0x9c0(%rax),%rdx
    4241:	|  |  |  |  |  |                    |  |     |      48 81 fa 37 01 00 00 	cmp    $0x137,%rdx
    4248:	|  |  |  |  |  |                    |  |     +----- 76 9e                	jbe    41e8 <main+0x728>
/usr/include/c++/10/bits/random.tcc:456
	_M_gen_rand();
    424a:	|  |  |  |  |  |                    |  |     |      48 89 c7             	mov    %rax,%rdi
    424d:	|  |  |  |  |  |                    |  |     |      48 89 44 24 08       	mov    %rax,0x8(%rsp)
    4252:	|  |  |  |  |  |                    |  |     |      e8 29 9b 00 00       	callq  dd80 <_ZNSt23mersenne_twister_engineImLm64ELm312ELm156ELm31ELm13043109905998158313ELm29ELm6148914691236517205ELm17ELm8202884508482404352ELm37ELm18444473444759240704ELm43ELm6364136223846793005EE11_M_gen_randEv>
/usr/include/c++/10/bits/random.tcc:459
      result_type __z = _M_x[_M_p++];
    4257:	|  |  |  |  |  |                    |  |     |      48 8b 44 24 08       	mov    0x8(%rsp),%rax
_ZN7UniDistIiSt23mersenne_twister_engineImLm64ELm312ELm156ELm31ELm13043109905998158313ELm29ELm6148914691236517205ELm17ELm8202884508482404352ELm37ELm18444473444759240704ELm43ELm6364136223846793005EEjEclEv():
/home/aliha951/forked_gapbs/gapbs/src/generator.h:53
      while (rand_num >= cutoff_)
    425c:	|  |  |  |  |  |                    |  |     |      8b 8c 24 80 15 00 00 	mov    0x1580(%rsp),%ecx
_ZNSt23mersenne_twister_engineImLm64ELm312ELm156ELm31ELm13043109905998158313ELm29ELm6148914691236517205ELm17ELm8202884508482404352ELm37ELm18444473444759240704ELm43ELm6364136223846793005EEclEv():
/usr/include/c++/10/bits/random.tcc:459
    4263:	|  |  |  |  |  |                    |  |     |      48 8b 90 c0 09 00 00 	mov    0x9c0(%rax),%rdx
    426a:	|  |  |  |  |  |                    |  |     \----- e9 79 ff ff ff       	jmpq   41e8 <main+0x728>
    426f:	|  |  |  |  |  |                    |  |            90                   	nop
/usr/include/c++/10/bits/random.tcc:456
	_M_gen_rand();
    4270:	|  |  |  |  |  |                    |  \----------> 48 89 c7             	mov    %rax,%rdi
    4273:	|  |  |  |  |  |                    |               48 89 44 24 08       	mov    %rax,0x8(%rsp)
    4278:	|  |  |  |  |  |                    |               e8 03 9b 00 00       	callq  dd80 <_ZNSt23mersenne_twister_engineImLm64ELm312ELm156ELm31ELm13043109905998158313ELm29ELm6148914691236517205ELm17ELm8202884508482404352ELm37ELm18444473444759240704ELm43ELm6364136223846793005EE11_M_gen_randEv>
/usr/include/c++/10/bits/random.tcc:459
      result_type __z = _M_x[_M_p++];
    427d:	|  |  |  |  |  |                    |               48 8b 44 24 08       	mov    0x8(%rsp),%rax
    4282:	|  |  |  |  |  |                    |               48 8b 90 c0 09 00 00 	mov    0x9c0(%rax),%rdx
    4289:	|  |  |  |  |  |                    \-------------- e9 ef fe ff ff       	jmpq   417d <main+0x6bd>
    428e:	|  |  |  |  |  |                                    66 90                	xchg   %ax,%ax
BenchmarkKernel<CSRGraph<int>, main(int, char**)::<lambda(const Graph&)>, void (*)(const CSRGraph<int>&, const pvector<int>&), main(int, char**)::<lambda(const Graph&, const pvector<int>&)> >():
/home/aliha951/forked_gapbs/gapbs/src/benchmark.h:113
      stats(g, result);
    4290:	|  |  |  |  \--|----------------------------------> 48 8b 74 24 18       	mov    0x18(%rsp),%rsi
    4295:	|  |  |  |     |                                    4c 89 ff             	mov    %r15,%rdi
    4298:	|  |  |  |     |                                    e8 53 29 00 00       	callq  6bf0 <_Z13PrintBFSStatsRK8CSRGraphIiiLb1EERK7pvectorIiE>
    429d:	|  |  |  \-----|----------------------------------- e9 3f fb ff ff       	jmpq   3de1 <main+0x321>
/home/aliha951/forked_gapbs/gapbs/src/benchmark.h:104
  double total_seconds = 0;
    42a2:	|  \--|--------|----------------------------------> 66 0f ef f6          	pxor   %xmm6,%xmm6
    42a6:	|     |        |                                    4c 8d b4 24 e0 00 00 	lea    0xe0(%rsp),%r14
    42ad:	00 
    42ae:	|     |        |                                    f2 0f 11 74 24 10    	movsd  %xmm6,0x10(%rsp)
/home/aliha951/forked_gapbs/gapbs/src/benchmark.h:122
    }
  }
  PrintTime("Average Time", total_seconds / cli.num_trials());
    42b4:	|     |        \----------------------------------> 66 0f ef c0          	pxor   %xmm0,%xmm0
    42b8:	|     |                                             f2 0f 10 64 24 10    	movsd  0x10(%rsp),%xmm4
    42be:	|     |                                             48 8d 35 c9 de 00 00 	lea    0xdec9(%rip),%rsi        # 1218e <_IO_stdin_used+0x18e>
    42c5:	|     |                                             4c 89 f7             	mov    %r14,%rdi
    42c8:	|     |                                             f2 0f 2a c0          	cvtsi2sd %eax,%xmm0
    42cc:	|     |                                             f2 0f 5e e0          	divsd  %xmm0,%xmm4
    42d0:	|     |                                             66 48 0f 7e e3       	movq   %xmm4,%rbx
    42d5:	|     |                                             e8 26 14 00 00       	callq  5700 <_ZNSt7__cxx1112basic_stringIcSt11char_traitsIcESaIcEEC2EPKcRKS3_.constprop.0>
    42da:	|     |                                             66 48 0f 6e c3       	movq   %rbx,%xmm0
    42df:	|     |                                             4c 89 f7             	mov    %r14,%rdi
    42e2:	|     |                                             e8 f9 16 00 00       	callq  59e0 <_Z9PrintTimeRKNSt7__cxx1112basic_stringIcSt11char_traitsIcESaIcEEEd>
_ZNKSt7__cxx1112basic_stringIcSt11char_traitsIcESaIcEE7_M_dataEv():
/usr/include/c++/10/bits/basic_string.h:195
      { return _M_dataplus._M_p; }
    42e7:	|     |                                             48 8b bc 24 e0 00 00 	mov    0xe0(%rsp),%rdi
    42ee:	00 
_ZNSt7__cxx1112basic_stringIcSt11char_traitsIcESaIcEE10_M_disposeEv():
/usr/include/c++/10/bits/basic_string.h:239
	if (!_M_is_local())
    42ef:	|     |                                             48 8d 84 24 f0 00 00 	lea    0xf0(%rsp),%rax
    42f6:	00 
    42f7:	|     |                                             48 39 c7             	cmp    %rax,%rdi
    42fa:	|     |                                         /-- 74 05                	je     4301 <main+0x841>
_ZN9__gnu_cxx13new_allocatorIcE10deallocateEPcm():
/usr/include/c++/10/ext/new_allocator.h:139
    42fc:	|     |                                         |   e8 4f f3 ff ff       	callq  3650 <_ZdlPv@plt>
_ZN8CSRGraphIiiLb1EED4Ev():
/home/aliha951/forked_gapbs/gapbs/src/graph.h:166
    ReleaseResources();
    4301:	|     |                                         \-> 4c 89 ff             	mov    %r15,%rdi
main():
/home/aliha951/forked_gapbs/gapbs/src/bfs.cc:265
  };
  BenchmarkKernel(cli, g, BFSBound, PrintBFSStats, VerifierBound);
  return 0;
    4304:	|     |                                             45 31 ed             	xor    %r13d,%r13d
_ZN8CSRGraphIiiLb1EED4Ev():
/home/aliha951/forked_gapbs/gapbs/src/graph.h:166
    4307:	|     |                                             e8 04 4a 00 00       	callq  8d10 <_ZN8CSRGraphIiiLb1EE16ReleaseResourcesEv>
_ZN5CLAppD4Ev():
/home/aliha951/forked_gapbs/gapbs/src/command_line.h:114
class CLApp : public CLBase {
    430c:	|     |              /----------------------------> 48 8b 7c 24 28       	mov    0x28(%rsp),%rdi
    4311:	|     |              |                              48 8d 05 a8 15 01 00 	lea    0x115a8(%rip),%rax        # 158c0 <_ZTV5CLApp+0x10>
    4318:	|     |              |                              48 89 84 24 00 01 00 	mov    %rax,0x100(%rsp)
    431f:	00 
    4320:	|     |              |                              e8 3b 47 00 00       	callq  8a60 <_ZN6CLBaseD1Ev>
main():
/home/aliha951/forked_gapbs/gapbs/src/bfs.cc:266
}
    4325:	|     |              |                              48 8b 84 24 98 15 00 	mov    0x1598(%rsp),%rax
    432c:	00 
    432d:	|     |              |                              64 48 2b 04 25 28 00 	sub    %fs:0x28,%rax
    4334:	00 00 
    4336:	|     |           /--|----------------------------- 0f 85 bf 02 00 00    	jne    45fb <main+0xb3b>
    433c:	|     |           |  |                              48 81 c4 a8 15 00 00 	add    $0x15a8,%rsp
    4343:	|     |           |  |                              44 89 e8             	mov    %r13d,%eax
    4346:	|     |           |  |                              5b                   	pop    %rbx
    4347:	|     |           |  |                              5d                   	pop    %rbp
    4348:	|     |           |  |                              41 5c                	pop    %r12
    434a:	|     |           |  |                              41 5d                	pop    %r13
    434c:	|     |           |  |                              41 5e                	pop    %r14
    434e:	|     |           |  |                              41 5f                	pop    %r15
    4350:	|     |           |  |                              c3                   	retq   
_ZNSt7__cxx1112basic_stringIcSt11char_traitsIcESaIcEE12_Alloc_hiderC4EPcRKS3_():
/usr/include/c++/10/bits/basic_string.h:165
	: allocator_type(__a), _M_p(__dat) { }
    4351:	|     |           |  |                              4c 89 b4 24 a0 0b 00 	mov    %r14,0xba0(%rsp)
    4358:	00 
_ZNSt7__cxx1112basic_stringIcSt11char_traitsIcESaIcEEC4EPKcRKS3_():
/usr/include/c++/10/bits/basic_string.h:536
	const _CharT* __end = __s ? __s + traits_type::length(__s)
    4359:	|     |           |  |                              48 85 ed             	test   %rbp,%rbp
    435c:	|     |           |  |        /-------------------- 0f 84 ae 01 00 00    	je     4510 <main+0xa50>
_ZNSt11char_traitsIcE6lengthEPKc():
/usr/include/c++/10/bits/char_traits.h:399
	return __builtin_strlen(__s);
    4362:	|     |           |  |        |                     48 89 ef             	mov    %rbp,%rdi
    4365:	|     |           |  |        |                     e8 06 f2 ff ff       	callq  3570 <strlen@plt>
    436a:	|     |           |  |        |                     48 89 44 24 08       	mov    %rax,0x8(%rsp)
_ZNSt7__cxx1112basic_stringIcSt11char_traitsIcESaIcEE12_M_constructIPKcEEvT_S8_St20forward_iterator_tag():
/usr/include/c++/10/bits/basic_string.tcc:215
	size_type __dnew = static_cast<size_type>(std::distance(__beg, __end));
    436f:	|     |           |  |        |                     48 89 84 24 80 00 00 	mov    %rax,0x80(%rsp)
    4376:	00 
/usr/include/c++/10/bits/basic_string.tcc:217
	if (__dnew > size_type(_S_local_capacity))
    4377:	|     |           |  |        |                     48 83 f8 0f          	cmp    $0xf,%rax
    437b:	|     |           |  |        |           /-------- 0f 87 15 01 00 00    	ja     4496 <main+0x9d6>
_ZNSt7__cxx1112basic_stringIcSt11char_traitsIcESaIcEE7_S_copyEPcPKcm():
/usr/include/c++/10/bits/basic_string.h:356
	if (__n == 1)
    4381:	|     |           |  |        |           |         48 83 7c 24 08 01    	cmpq   $0x1,0x8(%rsp)
    4387:	|     |           |  |        |           |     /-- 0f 85 f8 00 00 00    	jne    4485 <main+0x9c5>
_ZNSt11char_traitsIcE6assignERcRKc():
/usr/include/c++/10/bits/char_traits.h:357
      { __c1 = __c2; }
    438d:	|     |           |  |        |           |     |   0f b6 45 00          	movzbl 0x0(%rbp),%eax
    4391:	|     |           |  |        |           |     |   88 84 24 b0 0b 00 00 	mov    %al,0xbb0(%rsp)
_ZNSt7__cxx1112basic_stringIcSt11char_traitsIcESaIcEE12_M_constructIPKcEEvT_S8_St20forward_iterator_tag():
/usr/include/c++/10/bits/basic_string.tcc:232
	_M_set_length(__dnew);
    4398:	|     |           |  |        |        /--|-----|-> 48 8b 84 24 80 00 00 	mov    0x80(%rsp),%rax
    439f:	00 
_ZNSt11char_traitsIcE6assignERcRKc():
/usr/include/c++/10/bits/char_traits.h:357
    43a0:	|     |           |  |        |        |  |     |   48 8b 94 24 a0 0b 00 	mov    0xba0(%rsp),%rdx
    43a7:	00 
_ZNSt7__cxx1112basic_stringIcSt11char_traitsIcESaIcEE9_M_lengthEm():
/usr/include/c++/10/bits/basic_string.h:191
      { _M_string_length = __length; }
    43a8:	|     |           |  |        |        |  |     |   48 89 84 24 a8 0b 00 	mov    %rax,0xba8(%rsp)
    43af:	00 
_ZNSt11char_traitsIcE6assignERcRKc():
/usr/include/c++/10/bits/char_traits.h:357
    43b0:	|     |           |  |        |        |  |     |   c6 04 02 00          	movb   $0x0,(%rdx,%rax,1)
_ZNKSt7__cxx1112basic_stringIcSt11char_traitsIcESaIcEE7_M_dataEv():
/usr/include/c++/10/bits/basic_string.h:195
      { return _M_dataplus._M_p; }
    43b4:	|     |           |  |        |        |  |     |   48 8b 84 24 a0 0b 00 	mov    0xba0(%rsp),%rax
    43bb:	00 
    43bc:	|     |           |  |        |        |  |     |   48 8b bc 24 78 01 00 	mov    0x178(%rsp),%rdi
    43c3:	00 
_ZNSt7__cxx1112basic_stringIcSt11char_traitsIcESaIcEEaSEOS4_():
/usr/include/c++/10/bits/basic_string.h:731
	if (__str._M_is_local())
    43c4:	|     |           |  |        |        |  |     |   4c 39 f0             	cmp    %r14,%rax
    43c7:	|     |           |  |        |        |  |  /--|-- 0f 84 03 01 00 00    	je     44d0 <main+0xa10>
/usr/include/c++/10/bits/basic_string.h:759
	    _M_capacity(__str._M_allocated_capacity);
    43cd:	|     |           |  |        |        |  |  |  |   f3 0f 7e 8c 24 b0 0b 	movq   0xbb0(%rsp),%xmm1
    43d4:	00 00 
_ZNKSt7__cxx1112basic_stringIcSt11char_traitsIcESaIcEE4sizeEv():
/usr/include/c++/10/bits/basic_string.h:915
      { return _M_string_length; }
    43d6:	|     |           |  |        |        |  |  |  |   f3 0f 7e 84 24 a8 0b 	movq   0xba8(%rsp),%xmm0
    43dd:	00 00 
_ZNSt7__cxx1112basic_stringIcSt11char_traitsIcESaIcEEaSEOS4_():
/usr/include/c++/10/bits/basic_string.h:745
	    if (!_M_is_local())
    43df:	|     |           |  |        |        |  |  |  |   48 3b 3c 24          	cmp    (%rsp),%rdi
    43e3:	|     |           |  |  /-----|--------|--|--|--|-- 0f 84 c1 01 00 00    	je     45aa <main+0xaea>
_ZNSt7__cxx1112basic_stringIcSt11char_traitsIcESaIcEE9_M_lengthEm():
/usr/include/c++/10/bits/basic_string.h:191
      { _M_string_length = __length; }
    43e9:	|     |           |  |  |     |        |  |  |  |   66 0f 6c c1          	punpcklqdq %xmm1,%xmm0
_ZNSt7__cxx1112basic_stringIcSt11char_traitsIcESaIcEEaSEOS4_():
/usr/include/c++/10/bits/basic_string.h:751
		    __capacity = _M_allocated_capacity;
    43ed:	|     |           |  |  |     |        |  |  |  |   48 8b 94 24 88 01 00 	mov    0x188(%rsp),%rdx
    43f4:	00 
_ZNSt7__cxx1112basic_stringIcSt11char_traitsIcESaIcEE7_M_dataEPc():
/usr/include/c++/10/bits/basic_string.h:187
      { _M_dataplus._M_p = __p; }
    43f5:	|     |           |  |  |     |        |  |  |  |   48 89 84 24 78 01 00 	mov    %rax,0x178(%rsp)
    43fc:	00 
_ZNSt7__cxx1112basic_stringIcSt11char_traitsIcESaIcEE9_M_lengthEm():
/usr/include/c++/10/bits/basic_string.h:191
      { _M_string_length = __length; }
    43fd:	|     |           |  |  |     |        |  |  |  |   0f 29 84 24 80 01 00 	movaps %xmm0,0x180(%rsp)
    4404:	00 
_ZNSt7__cxx1112basic_stringIcSt11char_traitsIcESaIcEEaSEOS4_():
/usr/include/c++/10/bits/basic_string.h:760
	    if (__data)
    4405:	|     |           |  |  |     |        |  |  |  |   48 85 ff             	test   %rdi,%rdi
    4408:	|     |           |  |  |  /--|--------|--|--|--|-- 0f 84 b0 01 00 00    	je     45be <main+0xafe>
_ZNSt7__cxx1112basic_stringIcSt11char_traitsIcESaIcEE7_M_dataEPc():
/usr/include/c++/10/bits/basic_string.h:187
      { _M_dataplus._M_p = __p; }
    440e:	|     |           |  |  |  |  |        |  |  |  |   48 89 bc 24 a0 0b 00 	mov    %rdi,0xba0(%rsp)
    4415:	00 
_ZNSt7__cxx1112basic_stringIcSt11char_traitsIcESaIcEE11_M_capacityEm():
/usr/include/c++/10/bits/basic_string.h:219
      { _M_allocated_capacity = __capacity; }
    4416:	|     |           |  |  |  |  |        |  |  |  |   48 89 94 24 b0 0b 00 	mov    %rdx,0xbb0(%rsp)
    441d:	00 
_ZNKSt7__cxx1112basic_stringIcSt11char_traitsIcESaIcEE7_M_dataEv():
/usr/include/c++/10/bits/basic_string.h:195
      { return _M_dataplus._M_p; }
    441e:	|     |           |  |  |  |  |  /-----|--|--|--|-> 48 8b 84 24 a0 0b 00 	mov    0xba0(%rsp),%rax
    4425:	00 
_ZNSt7__cxx1112basic_stringIcSt11char_traitsIcESaIcEE9_M_lengthEm():
/usr/include/c++/10/bits/basic_string.h:191
      { _M_string_length = __length; }
    4426:	|     |           |  |  |  |  |  |     |  |  |  |   48 c7 84 24 a8 0b 00 	movq   $0x0,0xba8(%rsp)
    442d:	00 00 00 00 00 
_ZNSt11char_traitsIcE6assignERcRKc():
/usr/include/c++/10/bits/char_traits.h:357
    4432:	|     |           |  |  |  |  |  |     |  |  |  |   c6 00 00             	movb   $0x0,(%rax)
_ZNKSt7__cxx1112basic_stringIcSt11char_traitsIcESaIcEE7_M_dataEv():
/usr/include/c++/10/bits/basic_string.h:195
      { return _M_dataplus._M_p; }
    4435:	|     |           |  |  |  |  |  |     |  |  |  |   48 8b bc 24 a0 0b 00 	mov    0xba0(%rsp),%rdi
    443c:	00 
_ZNSt7__cxx1112basic_stringIcSt11char_traitsIcESaIcEE10_M_disposeEv():
/usr/include/c++/10/bits/basic_string.h:239
	if (!_M_is_local())
    443d:	|     |           |  |  |  |  |  |     |  |  |  |   4c 39 f7             	cmp    %r14,%rdi
    4440:	+-----|-----------|--|--|--|--|--|-----|--|--|--|-- 0f 84 2a f7 ff ff    	je     3b70 <main+0xb0>
_ZN9__gnu_cxx13new_allocatorIcE10deallocateEPcm():
/usr/include/c++/10/ext/new_allocator.h:139
    4446:	|     |           |  |  |  |  |  |     |  |  |  |   e8 05 f2 ff ff       	callq  3650 <_ZdlPv@plt>
_ZN6CLBase9HandleArgEaPc():
/home/aliha951/forked_gapbs/gapbs/src/command_line.h:94
  }
    444b:	+-----|-----------|--|--|--|--|--|-----|--|--|--|-- e9 20 f7 ff ff       	jmpq   3b70 <main+0xb0>
main():
/usr/include/stdlib.h:363
    4450:	|     |           |  |  |  |  |  |     |  |  |  |   ba 0a 00 00 00       	mov    $0xa,%edx
atoi():
/usr/include/stdlib.h:363
    4455:	|     |           |  |  |  |  |  |     |  |  |  |   31 f6                	xor    %esi,%esi
    4457:	|     |           |  |  |  |  |  |     |  |  |  |   48 89 ef             	mov    %rbp,%rdi
    445a:	|     |           |  |  |  |  |  |     |  |  |  |   e8 11 f3 ff ff       	callq  3770 <strtol@plt>
    445f:	|     |           |  |  |  |  |  |     |  |  |  |   89 84 24 74 01 00 00 	mov    %eax,0x174(%rsp)
_ZN6CLBase9HandleArgEaPc():
/home/aliha951/forked_gapbs/gapbs/src/command_line.h:89
      case 'k': degree_ = atoi(opt_arg);                    break;
    4466:	+-----|-----------|--|--|--|--|--|-----|--|--|--|-- e9 05 f7 ff ff       	jmpq   3b70 <main+0xb0>
/home/aliha951/forked_gapbs/gapbs/src/command_line.h:92
      case 'm': in_place_ = true;                           break;
    446b:	|     |           |  |  |  |  |  |     |  |  |  |   c6 84 24 9a 01 00 00 	movb   $0x1,0x19a(%rsp)
    4472:	01 
    4473:	+-----|-----------|--|--|--|--|--|-----|--|--|--|-- e9 f8 f6 ff ff       	jmpq   3b70 <main+0xb0>
/home/aliha951/forked_gapbs/gapbs/src/command_line.h:90
      case 's': symmetrize_ = true;                         break;
    4478:	|     |           |  |  |  |  |  |     |  |  |  |   c6 84 24 98 01 00 00 	movb   $0x1,0x198(%rsp)
    447f:	01 
    4480:	\-----|-----------|--|--|--|--|--|-----|--|--|--|-- e9 eb f6 ff ff       	jmpq   3b70 <main+0xb0>
_ZNSt11char_traitsIcE4copyEPcPKcm():
/usr/include/c++/10/bits/char_traits.h:431
	if (__n == 0)
    4485:	      |           |  |  |  |  |  |     |  |  |  \-> 48 83 7c 24 08 00    	cmpq   $0x0,0x8(%rsp)
    448b:	      |           |  |  |  |  |  |     +--|--|----- 0f 84 07 ff ff ff    	je     4398 <main+0x8d8>
_ZNKSt7__cxx1112basic_stringIcSt11char_traitsIcESaIcEE7_M_dataEv():
/usr/include/c++/10/bits/basic_string.h:195
      { return _M_dataplus._M_p; }
    4491:	      |           |  |  |  |  |  |     |  |  |      4c 89 f7             	mov    %r14,%rdi
    4494:	      |           |  |  |  |  |  |     |  |  |  /-- eb 28                	jmp    44be <main+0x9fe>
_ZNSt7__cxx1112basic_stringIcSt11char_traitsIcESaIcEE12_M_constructIPKcEEvT_S8_St20forward_iterator_tag():
/usr/include/c++/10/bits/basic_string.tcc:219
	    _M_data(_M_create(__dnew, size_type(0)));
    4496:	      |           |  |  |  |  |  |     |  \--|--|-> 31 d2                	xor    %edx,%edx
    4498:	      |           |  |  |  |  |  |     |     |  |   4c 89 fe             	mov    %r15,%rsi
    449b:	      |           |  |  |  |  |  |     |     |  |   4c 89 e7             	mov    %r12,%rdi
    449e:	      |           |  |  |  |  |  |     |     |  |   e8 cd f3 ff ff       	callq  3870 <_ZNSt7__cxx1112basic_stringIcSt11char_traitsIcESaIcEE9_M_createERmm@plt>
_ZNSt7__cxx1112basic_stringIcSt11char_traitsIcESaIcEE7_M_dataEPc():
/usr/include/c++/10/bits/basic_string.h:187
      { _M_dataplus._M_p = __p; }
    44a3:	      |           |  |  |  |  |  |     |     |  |   48 89 84 24 a0 0b 00 	mov    %rax,0xba0(%rsp)
    44aa:	00 
_ZNSt7__cxx1112basic_stringIcSt11char_traitsIcESaIcEE12_M_constructIPKcEEvT_S8_St20forward_iterator_tag():
/usr/include/c++/10/bits/basic_string.tcc:219
    44ab:	      |           |  |  |  |  |  |     |     |  |   48 89 c7             	mov    %rax,%rdi
_ZNSt7__cxx1112basic_stringIcSt11char_traitsIcESaIcEE11_M_capacityEm():
/usr/include/c++/10/bits/basic_string.h:219
      { _M_allocated_capacity = __capacity; }
    44ae:	      |           |  |  |  |  |  |     |     |  |   48 8b 84 24 80 00 00 	mov    0x80(%rsp),%rax
    44b5:	00 
    44b6:	      |           |  |  |  |  |  |     |     |  |   48 89 84 24 b0 0b 00 	mov    %rax,0xbb0(%rsp)
    44bd:	00 
_ZNSt11char_traitsIcE4copyEPcPKcm():
/usr/include/c++/10/bits/char_traits.h:437
	return static_cast<char_type*>(__builtin_memcpy(__s1, __s2, __n));
    44be:	      |           |  |  |  |  |  |     |     |  \-> 48 8b 54 24 08       	mov    0x8(%rsp),%rdx
    44c3:	      |           |  |  |  |  |  |     |     |      48 89 ee             	mov    %rbp,%rsi
    44c6:	      |           |  |  |  |  |  |     |     |      e8 45 f1 ff ff       	callq  3610 <memcpy@plt>
    44cb:	      |           |  |  |  |  |  |     \-----|----- e9 c8 fe ff ff       	jmpq   4398 <main+0x8d8>
_ZNKSt7__cxx1112basic_stringIcSt11char_traitsIcESaIcEE4sizeEv():
/usr/include/c++/10/bits/basic_string.h:915
      { return _M_string_length; }
    44d0:	      |           |  |  |  |  |  |           \----> 48 8b 94 24 a8 0b 00 	mov    0xba8(%rsp),%rdx
    44d7:	00 
_ZNSt7__cxx1112basic_stringIcSt11char_traitsIcESaIcEEaSEOS4_():
/usr/include/c++/10/bits/basic_string.h:734
	    if (__str.size())
    44d8:	      |           |  |  |  |  |  |                  48 85 d2             	test   %rdx,%rdx
    44db:	      |           |  |  |  |  |  |  /-------------- 74 22                	je     44ff <main+0xa3f>
_ZNSt7__cxx1112basic_stringIcSt11char_traitsIcESaIcEE7_S_copyEPcPKcm():
/usr/include/c++/10/bits/basic_string.h:356
	if (__n == 1)
    44dd:	      |           |  |  |  |  |  |  |               48 83 fa 01          	cmp    $0x1,%rdx
    44e1:	      |           |  |  |  |  |  |  |  /----------- 0f 84 e4 00 00 00    	je     45cb <main+0xb0b>
_ZNSt11char_traitsIcE4copyEPcPKcm():
/usr/include/c++/10/bits/char_traits.h:437
    44e7:	      |           |  |  |  |  |  |  |  |            4c 89 f6             	mov    %r14,%rsi
    44ea:	      |           |  |  |  |  |  |  |  |            e8 21 f1 ff ff       	callq  3610 <memcpy@plt>
    44ef:	      |           |  |  |  |  |  |  |  |            48 8b bc 24 78 01 00 	mov    0x178(%rsp),%rdi
    44f6:	00 
    44f7:	      |           |  |  |  |  |  |  |  |            48 8b 94 24 a8 0b 00 	mov    0xba8(%rsp),%rdx
    44fe:	00 
_ZNSt7__cxx1112basic_stringIcSt11char_traitsIcESaIcEE9_M_lengthEm():
/usr/include/c++/10/bits/basic_string.h:191
      { _M_string_length = __length; }
    44ff:	      |           |  |  |  |  |  |  >--|----------> 48 89 94 24 80 01 00 	mov    %rdx,0x180(%rsp)
    4506:	00 
_ZNSt11char_traitsIcE6assignERcRKc():
/usr/include/c++/10/bits/char_traits.h:357
      { __c1 = __c2; }
    4507:	      |           |  |  |  |  |  |  |  |            c6 04 17 00          	movb   $0x0,(%rdi,%rdx,1)
_ZNSt7__cxx1112basic_stringIcSt11char_traitsIcESaIcEE13_M_set_lengthEm():
/usr/include/c++/10/bits/basic_string.h:226
      }
    450b:	      |           |  |  |  |  |  +--|--|----------- e9 0e ff ff ff       	jmpq   441e <main+0x95e>
_ZNSt7__cxx1112basic_stringIcSt11char_traitsIcESaIcEE12_M_constructIPKcEEvT_S8_St20forward_iterator_tag():
/usr/include/c++/10/bits/basic_string.tcc:212
	  std::__throw_logic_error(__N("basic_string::"
    4510:	      |           |  |  |  |  \--|--|--|----------> 48 8d 3d f1 da 00 00 	lea    0xdaf1(%rip),%rdi        # 12008 <_IO_stdin_used+0x8>
    4517:	      |           |  |  |  |     |  |  |            e8 e4 f0 ff ff       	callq  3600 <_ZSt19__throw_logic_errorPKc@plt>
_ZStlsISt11char_traitsIcEERSt13basic_ostreamIcT_ES5_PKc():
/usr/include/c++/10/ostream:611
    operator<<(basic_ostream<char, _Traits>& __out, const char* __s)
    {
      if (!__s)
	__out.setstate(ios_base::badbit);
      else
	__ostream_insert(__out, __s,
    451c:	      \-----------|--|--|--|-----|--|--|----------> ba 2b 00 00 00       	mov    $0x2b,%edx
    4521:	                  |  |  |  |     |  |  |            48 8d 35 10 db 00 00 	lea    0xdb10(%rip),%rsi        # 12038 <_IO_stdin_used+0x38>
    4528:	                  |  |  |  |     |  |  |            48 8d 3d 51 1b 01 00 	lea    0x11b51(%rip),%rdi        # 16080 <_ZSt4cout@@GLIBCXX_3.4>
    452f:	                  |  |  |  |     |  |  |            e8 7c f1 ff ff       	callq  36b0 <_ZSt16__ostream_insertIcSt11char_traitsIcEERSt13basic_ostreamIT_T0_ES6_PKS3_l@plt>
_ZSt4endlIcSt11char_traitsIcEERSt13basic_ostreamIT_T0_ES6_():
/usr/include/c++/10/ostream:682
   *  for more on this subject.
  */
  template<typename _CharT, typename _Traits>
    inline basic_ostream<_CharT, _Traits>&
    endl(basic_ostream<_CharT, _Traits>& __os)
    { return flush(__os.put(__os.widen('\n'))); }
    4534:	                  |  |  |  |     |  |  |            48 8b 05 45 1b 01 00 	mov    0x11b45(%rip),%rax        # 16080 <_ZSt4cout@@GLIBCXX_3.4>
    453b:	                  |  |  |  |     |  |  |            48 8d 15 3e 1b 01 00 	lea    0x11b3e(%rip),%rdx        # 16080 <_ZSt4cout@@GLIBCXX_3.4>
    4542:	                  |  |  |  |     |  |  |            48 8b 40 e8          	mov    -0x18(%rax),%rax
    4546:	                  |  |  |  |     |  |  |            48 8b ac 02 f0 00 00 	mov    0xf0(%rdx,%rax,1),%rbp
    454d:	00 
_ZSt13__check_facetISt5ctypeIcEERKT_PS3_():
/usr/include/c++/10/bits/basic_ios.h:49

  template<typename _Facet>
    inline const _Facet&
    __check_facet(const _Facet* __f)
    {
      if (!__f)
    454e:	                  |  |  |  |     |  |  |            48 85 ed             	test   %rbp,%rbp
    4551:	                  |  |  |  |     |  |  |  /-------- 0f 84 9f 00 00 00    	je     45f6 <main+0xb36>
_ZNKSt5ctypeIcE5widenEc():
/usr/include/c++/10/bits/locale_facets.h:874
       *  @return  The converted character.
      */
      char_type
      widen(char __c) const
      {
	if (_M_widen_ok)
    4557:	                  |  |  |  |     |  |  |  |         80 7d 38 00          	cmpb   $0x0,0x38(%rbp)
    455b:	                  |  |  |  |     |  |  |  |     /-- 74 10                	je     456d <main+0xaad>
/usr/include/c++/10/bits/locale_facets.h:875
	  return _M_widen[static_cast<unsigned char>(__c)];
    455d:	                  |  |  |  |     |  |  |  |     |   0f b6 45 43          	movzbl 0x43(%rbp),%eax
    4561:	                  |  |  |  |     |  |  |  |  /--|-- eb 2b                	jmp    458e <main+0xace>
_ZN6CLBase9HandleArgEaPc():
/home/aliha951/forked_gapbs/gapbs/src/command_line.h:88
      case 'h': PrintUsage();                               break;
    4563:	                  |  |  |  |     |  |  |  |  |  |   48 8b 7c 24 28       	mov    0x28(%rsp),%rdi
    4568:	                  |  |  |  |     |  |  |  |  |  |   e8 63 3d 00 00       	callq  82d0 <_ZN6CLBase10PrintUsageEv>
_ZNKSt5ctypeIcE5widenEc():
/usr/include/c++/10/bits/locale_facets.h:876
	this->_M_widen_init();
    456d:	                  |  |  |  |     |  |  |  |  |  \-> 48 89 ef             	mov    %rbp,%rdi
    4570:	                  |  |  |  |     |  |  |  |  |      e8 4b f1 ff ff       	callq  36c0 <_ZNKSt5ctypeIcE13_M_widen_initEv@plt>
/usr/include/c++/10/bits/locale_facets.h:877
	return this->do_widen(__c);
    4575:	                  |  |  |  |     |  |  |  |  |      48 8b 45 00          	mov    0x0(%rbp),%rax
    4579:	                  |  |  |  |     |  |  |  |  |      48 8d 0d 70 2d 00 00 	lea    0x2d70(%rip),%rcx        # 72f0 <_ZNKSt5ctypeIcE8do_widenEc>
    4580:	                  |  |  |  |     |  |  |  |  |      48 8b 50 30          	mov    0x30(%rax),%rdx
    4584:	                  |  |  |  |     |  |  |  |  |      b8 0a 00 00 00       	mov    $0xa,%eax
    4589:	                  |  |  |  |     |  |  |  |  |      48 39 ca             	cmp    %rcx,%rdx
    458c:	                  |  |  |  |     |  |  |  |  |  /-- 75 5c                	jne    45ea <main+0xb2a>
_ZSt4endlIcSt11char_traitsIcEERSt13basic_ostreamIT_T0_ES6_():
/usr/include/c++/10/ostream:682
    458e:	                  |  |  |  |     |  |  |  |  >--|-> 0f be f0             	movsbl %al,%esi
    4591:	                  |  |  |  |     |  |  |  |  |  |   48 8d 3d e8 1a 01 00 	lea    0x11ae8(%rip),%rdi        # 16080 <_ZSt4cout@@GLIBCXX_3.4>
    4598:	                  |  |  |  |     |  |  |  |  |  |   e8 13 ef ff ff       	callq  34b0 <_ZNSo3putEc@plt>
    459d:	                  |  |  |  |     |  |  |  |  |  |   48 89 c7             	mov    %rax,%rdi
_ZSt5flushIcSt11char_traitsIcEERSt13basic_ostreamIT_T0_ES6_():
/usr/include/c++/10/ostream:704
   *  This manipulator simply calls the stream's @c flush() member function.
  */
  template<typename _CharT, typename _Traits>
    inline basic_ostream<_CharT, _Traits>&
    flush(basic_ostream<_CharT, _Traits>& __os)
    { return __os.flush(); }
    45a0:	                  |  |  |  |     |  |  |  |  |  |   e8 4b f0 ff ff       	callq  35f0 <_ZNSo5flushEv@plt>
    45a5:	                  |  \--|--|-----|--|--|--|--|--|-- e9 62 fd ff ff       	jmpq   430c <main+0x84c>
_ZNSt7__cxx1112basic_stringIcSt11char_traitsIcESaIcEE7_M_dataEPc():
/usr/include/c++/10/bits/basic_string.h:187
      { _M_dataplus._M_p = __p; }
    45aa:	                  |     \--|-----|--|--|--|--|--|-> 48 89 84 24 78 01 00 	mov    %rax,0x178(%rsp)
    45b1:	00 
_ZNSt7__cxx1112basic_stringIcSt11char_traitsIcESaIcEE9_M_lengthEm():
/usr/include/c++/10/bits/basic_string.h:191
      { _M_string_length = __length; }
    45b2:	                  |        |     |  |  |  |  |  |   66 0f 6c c1          	punpcklqdq %xmm1,%xmm0
    45b6:	                  |        |     |  |  |  |  |  |   0f 29 84 24 80 01 00 	movaps %xmm0,0x180(%rsp)
    45bd:	00 
_ZNSt7__cxx1112basic_stringIcSt11char_traitsIcESaIcEE7_M_dataEPc():
/usr/include/c++/10/bits/basic_string.h:187
      { _M_dataplus._M_p = __p; }
    45be:	                  |        \-----|--|--|--|--|--|-> 4c 89 b4 24 a0 0b 00 	mov    %r14,0xba0(%rsp)
    45c5:	00 
    45c6:	                  |              \--|--|--|--|--|-- e9 53 fe ff ff       	jmpq   441e <main+0x95e>
_ZNSt11char_traitsIcE6assignERcRKc():
/usr/include/c++/10/bits/char_traits.h:357
    45cb:	                  |                 |  \--|--|--|-> 0f b6 84 24 b0 0b 00 	movzbl 0xbb0(%rsp),%eax
    45d2:	00 
    45d3:	                  |                 |     |  |  |   88 07                	mov    %al,(%rdi)
    45d5:	                  |                 |     |  |  |   48 8b bc 24 78 01 00 	mov    0x178(%rsp),%rdi
    45dc:	00 
    45dd:	                  |                 |     |  |  |   48 8b 94 24 a8 0b 00 	mov    0xba8(%rsp),%rdx
    45e4:	00 
    45e5:	                  |                 \-----|--|--|-- e9 15 ff ff ff       	jmpq   44ff <main+0xa3f>
_ZNKSt5ctypeIcE5widenEc():
/usr/include/c++/10/bits/locale_facets.h:877
    45ea:	                  |                       |  |  \-> be 0a 00 00 00       	mov    $0xa,%esi
    45ef:	                  |                       |  |      48 89 ef             	mov    %rbp,%rdi
    45f2:	                  |                       |  |      ff d2                	callq  *%rdx
    45f4:	                  |                       |  \----- eb 98                	jmp    458e <main+0xace>
_ZSt13__check_facetISt5ctypeIcEERKT_PS3_():
/usr/include/c++/10/bits/basic_ios.h:50
	__throw_bad_cast();
    45f6:	                  |                       \-------> e8 05 f1 ff ff       	callq  3700 <_ZSt16__throw_bad_castv@plt>
main():
/home/aliha951/forked_gapbs/gapbs/src/bfs.cc:266
    45fb:	                  \-------------------------------> e8 a0 f0 ff ff       	callq  36a0 <__stack_chk_fail@plt>
    4600:	                                                    f3 0f 1e fa          	endbr64 
_ZNKSt7__cxx1112basic_stringIcSt11char_traitsIcESaIcEE7_M_dataEv():
/usr/include/c++/10/bits/basic_string.h:195
      { return _M_dataplus._M_p; }
    4604:	                                                    48 89 c3             	mov    %rax,%rbx
    4607:	                                                    e9 00 f4 ff ff       	jmpq   3a0c <main.cold>
    460c:	                                                    f3 0f 1e fa          	endbr64 
    4610:	                                                    48 89 c3             	mov    %rax,%rbx
    4613:	                                                    e9 32 f4 ff ff       	jmpq   3a4a <main.cold+0x3e>
    4618:	                                                    f3 0f 1e fa          	endbr64 
    461c:	                                                    48 89 c3             	mov    %rax,%rbx
    461f:	                                                    e9 50 f4 ff ff       	jmpq   3a74 <main.cold+0x68>
    4624:	                                                    f3 0f 1e fa          	endbr64 
    4628:	                                                    48 89 c3             	mov    %rax,%rbx
    462b:	                                                    e9 1a f4 ff ff       	jmpq   3a4a <main.cold+0x3e>
    4630:	                                                    f3 0f 1e fa          	endbr64 
    4634:	                                                    48 89 c5             	mov    %rax,%rbp
    4637:	                                                    e9 5b f4 ff ff       	jmpq   3a97 <main.cold+0x8b>
    463c:	                                                    f3 0f 1e fa          	endbr64 
_ZN5CLAppD4Ev():
/home/aliha951/forked_gapbs/gapbs/src/command_line.h:114
class CLApp : public CLBase {
    4640:	                                                    48 89 c3             	mov    %rax,%rbx
    4643:	                                                    e9 e1 f3 ff ff       	jmpq   3a29 <main.cold+0x1d>
    4648:	                                                    f3 0f 1e fa          	endbr64 
    464c:	                                                    48 89 c3             	mov    %rax,%rbx
    464f:	                                                    e9 cd f3 ff ff       	jmpq   3a21 <main.cold+0x15>
    4654:	                                                    f3 0f 1e fa          	endbr64 
_ZN7pvectorIiE16ReleaseResourcesEv():
/home/aliha951/forked_gapbs/gapbs/src/pvector.h:73
    if (start_ != nullptr) {
    4658:	                                                    48 89 c3             	mov    %rax,%rbx
    465b:	                                                    e9 fc f3 ff ff       	jmpq   3a5c <main.cold+0x50>

0000000000004660 <_GLOBAL__sub_I__Z10PrintLabelRKNSt7__cxx1112basic_stringIcSt11char_traitsIcESaIcEEES6_>:
_GLOBAL__sub_I__Z10PrintLabelRKNSt7__cxx1112basic_stringIcSt11char_traitsIcESaIcEEES6_():
/home/aliha951/forked_gapbs/gapbs/src/bfs.cc:266
    4660:	f3 0f 1e fa          	endbr64 
    4664:	48 83 ec 08          	sub    $0x8,%rsp
/usr/include/c++/10/iostream:74
  extern wostream wclog;	/// Linked to standard error (buffered)
#endif
  ///@}

  // For construction of filebuffers for cout, cin, cerr, clog et. al.
  static ios_base::Init __ioinit;
    4668:	48 8d 3d 22 1b 01 00 	lea    0x11b22(%rip),%rdi        # 16191 <_ZStL8__ioinit>
__static_initialization_and_destruction_0():
/usr/include/c++/10/iostream:74
    466f:	e8 4c f1 ff ff       	callq  37c0 <_ZNSt8ios_base4InitC1Ev@plt>
    4674:	48 8b 3d 7d 19 01 00 	mov    0x1197d(%rip),%rdi        # 15ff8 <_ZNSt8ios_base4InitD1Ev@GLIBCXX_3.4>
_GLOBAL__sub_I__Z10PrintLabelRKNSt7__cxx1112basic_stringIcSt11char_traitsIcESaIcEEES6_():
/home/aliha951/forked_gapbs/gapbs/src/bfs.cc:266
    467b:	48 83 c4 08          	add    $0x8,%rsp
__static_initialization_and_destruction_0():
/usr/include/c++/10/iostream:74
    467f:	48 8d 15 82 19 01 00 	lea    0x11982(%rip),%rdx        # 16008 <__dso_handle>
    4686:	48 8d 35 04 1b 01 00 	lea    0x11b04(%rip),%rsi        # 16191 <_ZStL8__ioinit>
    468d:	e9 9e ef ff ff       	jmpq   3630 <__cxa_atexit@plt>
_GLOBAL__sub_I__Z10PrintLabelRKNSt7__cxx1112basic_stringIcSt11char_traitsIcESaIcEEES6_():
    4692:	66 2e 0f 1f 84 00 00 	nopw   %cs:0x0(%rax,%rax,1)
    4699:	00 00 00 
    469c:	0f 1f 40 00          	nopl   0x0(%rax)

00000000000046a0 <_start>:
_start():
    46a0:	f3 0f 1e fa          	endbr64 
    46a4:	31 ed                	xor    %ebp,%ebp
    46a6:	49 89 d1             	mov    %rdx,%r9
    46a9:	5e                   	pop    %rsi
    46aa:	48 89 e2             	mov    %rsp,%rdx
    46ad:	48 83 e4 f0          	and    $0xfffffffffffffff0,%rsp
    46b1:	50                   	push   %rax
    46b2:	54                   	push   %rsp
    46b3:	4c 8d 05 b6 d7 00 00 	lea    0xd7b6(%rip),%r8        # 11e70 <__libc_csu_fini>
    46ba:	48 8d 0d 3f d7 00 00 	lea    0xd73f(%rip),%rcx        # 11e00 <__libc_csu_init>
    46c1:	48 8d 3d f8 f3 ff ff 	lea    -0xc08(%rip),%rdi        # 3ac0 <main>
    46c8:	ff 15 12 19 01 00    	callq  *0x11912(%rip)        # 15fe0 <__libc_start_main@GLIBC_2.2.5>
    46ce:	f4                   	hlt    
    46cf:	90                   	nop

00000000000046d0 <deregister_tm_clones>:
deregister_tm_clones():
    46d0:	    48 8d 3d 41 19 01 00 	lea    0x11941(%rip),%rdi        # 16018 <__TMC_END__>
    46d7:	    48 8d 05 3a 19 01 00 	lea    0x1193a(%rip),%rax        # 16018 <__TMC_END__>
    46de:	    48 39 f8             	cmp    %rdi,%rax
    46e1:	/-- 74 15                	je     46f8 <deregister_tm_clones+0x28>
    46e3:	|   48 8b 05 ee 18 01 00 	mov    0x118ee(%rip),%rax        # 15fd8 <_ITM_deregisterTMCloneTable>
    46ea:	|   48 85 c0             	test   %rax,%rax
    46ed:	+-- 74 09                	je     46f8 <deregister_tm_clones+0x28>
    46ef:	|   ff e0                	jmpq   *%rax
    46f1:	|   0f 1f 80 00 00 00 00 	nopl   0x0(%rax)
    46f8:	\-> c3                   	retq   
    46f9:	    0f 1f 80 00 00 00 00 	nopl   0x0(%rax)

0000000000004700 <register_tm_clones>:
register_tm_clones():
    4700:	    48 8d 3d 11 19 01 00 	lea    0x11911(%rip),%rdi        # 16018 <__TMC_END__>
    4707:	    48 8d 35 0a 19 01 00 	lea    0x1190a(%rip),%rsi        # 16018 <__TMC_END__>
    470e:	    48 29 fe             	sub    %rdi,%rsi
    4711:	    48 89 f0             	mov    %rsi,%rax
    4714:	    48 c1 ee 3f          	shr    $0x3f,%rsi
    4718:	    48 c1 f8 03          	sar    $0x3,%rax
    471c:	    48 01 c6             	add    %rax,%rsi
    471f:	    48 d1 fe             	sar    %rsi
    4722:	/-- 74 14                	je     4738 <register_tm_clones+0x38>
    4724:	|   48 8b 05 c5 18 01 00 	mov    0x118c5(%rip),%rax        # 15ff0 <_ITM_registerTMCloneTable>
    472b:	|   48 85 c0             	test   %rax,%rax
    472e:	+-- 74 08                	je     4738 <register_tm_clones+0x38>
    4730:	|   ff e0                	jmpq   *%rax
    4732:	|   66 0f 1f 44 00 00    	nopw   0x0(%rax,%rax,1)
    4738:	\-> c3                   	retq   
    4739:	    0f 1f 80 00 00 00 00 	nopl   0x0(%rax)

0000000000004740 <__do_global_dtors_aux>:
__do_global_dtors_aux():
    4740:	       f3 0f 1e fa          	endbr64 
    4744:	       80 3d 45 1a 01 00 00 	cmpb   $0x0,0x11a45(%rip)        # 16190 <completed.0>
    474b:	/----- 75 2b                	jne    4778 <__do_global_dtors_aux+0x38>
    474d:	|      55                   	push   %rbp
    474e:	|      48 83 3d 7a 18 01 00 	cmpq   $0x0,0x1187a(%rip)        # 15fd0 <__cxa_finalize@GLIBC_2.2.5>
    4755:	00 
    4756:	|      48 89 e5             	mov    %rsp,%rbp
    4759:	|  /-- 74 0c                	je     4767 <__do_global_dtors_aux+0x27>
    475b:	|  |   48 8b 3d a6 18 01 00 	mov    0x118a6(%rip),%rdi        # 16008 <__dso_handle>
    4762:	|  |   e8 19 ed ff ff       	callq  3480 <__cxa_finalize@plt>
    4767:	|  \-> e8 64 ff ff ff       	callq  46d0 <deregister_tm_clones>
    476c:	|      c6 05 1d 1a 01 00 01 	movb   $0x1,0x11a1d(%rip)        # 16190 <completed.0>
    4773:	|      5d                   	pop    %rbp
    4774:	|      c3                   	retq   
    4775:	|      0f 1f 00             	nopl   (%rax)
    4778:	\----> c3                   	retq   
    4779:	       0f 1f 80 00 00 00 00 	nopl   0x0(%rax)

0000000000004780 <frame_dummy>:
frame_dummy():
    4780:	f3 0f 1e fa          	endbr64 
    4784:	e9 77 ff ff ff       	jmpq   4700 <register_tm_clones>
    4789:	0f 1f 80 00 00 00 00 	nopl   0x0(%rax)

0000000000004790 <_Z6BUStepRK8CSRGraphIiiLb1EER7pvectorIiER6BitmapS7_._omp_fn.0>:
_Z6BUStepRK8CSRGraphIiiLb1EER7pvectorIiER6BitmapS7_._omp_fn.0():
/home/aliha951/forked_gapbs/gapbs/src/bfs.cc:50
  #pragma omp parallel for reduction(+ : awake_count) schedule(dynamic, 1024)
    4790:	                      f3 0f 1e fa          	endbr64 
    4794:	                      41 57                	push   %r15
    4796:	                      b9 00 04 00 00       	mov    $0x400,%ecx
    479b:	                      ba 01 00 00 00       	mov    $0x1,%edx
    47a0:	                      41 56                	push   %r14
    47a2:	                      41 55                	push   %r13
    47a4:	                      41 54                	push   %r12
    47a6:	                      55                   	push   %rbp
    47a7:	                      31 ed                	xor    %ebp,%ebp
    47a9:	                      53                   	push   %rbx
    47aa:	                      48 89 fb             	mov    %rdi,%rbx
    47ad:	                      48 83 ec 48          	sub    $0x48,%rsp
    47b1:	                      64 48 8b 04 25 28 00 	mov    %fs:0x28,%rax
    47b8:	00 00 
    47ba:	                      48 89 44 24 38       	mov    %rax,0x38(%rsp)
    47bf:	                      31 c0                	xor    %eax,%eax
_ZNK8CSRGraphIiiLb1EE9num_nodesEv():
/home/aliha951/forked_gapbs/gapbs/src/graph.h:194
    return num_nodes_;
    47c1:	                      48 8b 07             	mov    (%rdi),%rax
    47c4:	                      4c 8d 74 24 30       	lea    0x30(%rsp),%r14
    47c9:	                      4c 8d 44 24 28       	lea    0x28(%rsp),%r8
    47ce:	                      4d 89 f1             	mov    %r14,%r9
    47d1:	                      31 ff                	xor    %edi,%edi
    47d3:	                      4c 89 44 24 08       	mov    %r8,0x8(%rsp)
    47d8:	                      48 63 70 08          	movslq 0x8(%rax),%rsi
    47dc:	                      e8 4f f0 ff ff       	callq  3830 <GOMP_loop_nonmonotonic_dynamic_start@plt>
    47e1:	                      84 c0                	test   %al,%al
    47e3:	/-------------------- 0f 84 e3 00 00 00    	je     48cc <_Z6BUStepRK8CSRGraphIiiLb1EER7pvectorIiER6BitmapS7_._omp_fn.0+0x13c>
_Z6BUStepRK8CSRGraphIiiLb1EER7pvectorIiER6BitmapS7_._omp_fn.0():
/home/aliha951/forked_gapbs/gapbs/src/bfs.cc:50
    47e9:	|                     48 c7 44 24 18 00 00 	movq   $0x0,0x18(%rsp)
    47f0:	00 00 
_ZN6Bitmap7set_bitEm():
/home/aliha951/forked_gapbs/gapbs/src/bitmap.h:40
  void reset() {
    std::fill(start_, end_, 0);
  }

  void set_bit(size_t pos) {
    start_[word_offset(pos)] |= ((uint64_t) 1l << bit_offset(pos));
    47f2:	|                     4c 89 74 24 10       	mov    %r14,0x10(%rsp)
    47f7:	|                     66 0f 1f 84 00 00 00 	nopw   0x0(%rax,%rax,1)
    47fe:	00 00 
    4800:	|  /----------------> 4c 63 44 24 28       	movslq 0x28(%rsp),%r8
_ZN7pvectorIiEixEm():
/home/aliha951/forked_gapbs/gapbs/src/pvector.h:116
    reserve(num_elements);
    end_size_ = start_ + num_elements;
  }

  T_& operator[](size_t n) {
    return start_[n];
    4805:	|  |                  48 8b 43 08          	mov    0x8(%rbx),%rax
    4809:	|  |                  44 8b 64 24 30       	mov    0x30(%rsp),%r12d
_Z6BUStepRK8CSRGraphIiiLb1EER7pvectorIiER6BitmapS7_._omp_fn.0():
/home/aliha951/forked_gapbs/gapbs/src/bfs.cc:53
      for (NodeID v : g.in_neigh(u)) {
    480e:	|  |                  4c 8b 2b             	mov    (%rbx),%r13
    4811:	|  |                  49 8d 78 01          	lea    0x1(%r8),%rdi
_ZN7pvectorIiEixEm():
/home/aliha951/forked_gapbs/gapbs/src/pvector.h:116
    4815:	|  |                  48 8b 28             	mov    (%rax),%rbp
_Z6BUStepRK8CSRGraphIiiLb1EER7pvectorIiER6BitmapS7_._omp_fn.0():
/home/aliha951/forked_gapbs/gapbs/src/bfs.cc:54
        if (front.get_bit(v)) {
    4818:	|  |                  4c 8b 73 10          	mov    0x10(%rbx),%r14
/home/aliha951/forked_gapbs/gapbs/src/bfs.cc:57
          next.set_bit(u);
    481c:	|  |                  4c 8b 7b 18          	mov    0x18(%rbx),%r15
    4820:	|  |                  4c 8d 0c fd 00 00 00 	lea    0x0(,%rdi,8),%r9
    4827:	00 
    4828:	|  |              /-- eb 16                	jmp    4840 <_Z6BUStepRK8CSRGraphIiiLb1EER7pvectorIiER6BitmapS7_._omp_fn.0+0xb0>
    482a:	|  |              |   66 0f 1f 44 00 00    	nopw   0x0(%rax,%rax,1)
    4830:	|  |        /-----|-> 49 89 f8             	mov    %rdi,%r8
    4833:	|  |        |     |   49 83 c1 08          	add    $0x8,%r9
    4837:	|  |        |     |   41 39 fc             	cmp    %edi,%r12d
    483a:	|  |  /-----|-----|-- 7e 74                	jle    48b0 <_Z6BUStepRK8CSRGraphIiiLb1EER7pvectorIiER6BitmapS7_._omp_fn.0+0x120>
    483c:	|  |  |  /--|-----|-> 48 83 c7 01          	add    $0x1,%rdi
/home/aliha951/forked_gapbs/gapbs/src/bfs.cc:52 (discriminator 1)
    if (parent[u] < 0) {
    4840:	|  |  |  |  |     \-> 42 8b 44 85 00       	mov    0x0(%rbp,%r8,4),%eax
    4845:	|  |  |  |  |         44 89 c1             	mov    %r8d,%ecx
    4848:	|  |  |  |  |         85 c0                	test   %eax,%eax
    484a:	|  |  |  |  +-------- 79 e4                	jns    4830 <_Z6BUStepRK8CSRGraphIiiLb1EER7pvectorIiER6BitmapS7_._omp_fn.0+0xa0>
_ZNK8CSRGraphIiiLb1EE8in_neighEim():
/home/aliha951/forked_gapbs/gapbs/src/graph.h:220
    return Neighborhood(n, out_index_, start_offset);
  }

  Neighborhood in_neigh(NodeID_ n, OffsetT start_offset = 0) const {
    static_assert(MakeInverse, "Graph inversion disabled but reading inverse");
    return Neighborhood(n, in_index_, start_offset);
    484c:	|  |  |  |  |         49 8b 45 28          	mov    0x28(%r13),%rax
_ZN8CSRGraphIiiLb1EE12Neighborhood3endEv():
/home/aliha951/forked_gapbs/gapbs/src/graph.h:116
    iterator end()   { return g_index_[n_+1]; }
    4850:	|  |  |  |  |         4e 8b 14 08          	mov    (%rax,%r9,1),%r10
_ZN8CSRGraphIiiLb1EE12Neighborhood5beginEv():
/home/aliha951/forked_gapbs/gapbs/src/graph.h:115
    iterator begin() { return g_index_[n_] + start_offset_; }
    4854:	|  |  |  |  |         4a 8b 04 c0          	mov    (%rax,%r8,8),%rax
_Z6BUStepRK8CSRGraphIiiLb1EER7pvectorIiER6BitmapS7_._omp_fn.0():
/home/aliha951/forked_gapbs/gapbs/src/bfs.cc:53
      for (NodeID v : g.in_neigh(u)) {
    4858:	|  |  |  |  |         49 39 c2             	cmp    %rax,%r10
    485b:	|  |  |  |  +-------- 74 d3                	je     4830 <_Z6BUStepRK8CSRGraphIiiLb1EER7pvectorIiER6BitmapS7_._omp_fn.0+0xa0>
_ZNK6Bitmap7get_bitEm():
/home/aliha951/forked_gapbs/gapbs/src/bitmap.h:52
      new_val = old_val | ((uint64_t) 1l << bit_offset(pos));
    } while (!compare_and_swap(start_[word_offset(pos)], old_val, new_val));
  }

  bool get_bit(size_t pos) const {
    return (start_[word_offset(pos)] >> bit_offset(pos)) & 1l;
    485d:	|  |  |  |  |         4d 8b 1e             	mov    (%r14),%r11
    4860:	|  |  |  |  |     /-- eb 0f                	jmp    4871 <_Z6BUStepRK8CSRGraphIiiLb1EER7pvectorIiER6BitmapS7_._omp_fn.0+0xe1>
    4862:	|  |  |  |  |     |   66 0f 1f 44 00 00    	nopw   0x0(%rax,%rax,1)
_Z6BUStepRK8CSRGraphIiiLb1EER7pvectorIiER6BitmapS7_._omp_fn.0():
/home/aliha951/forked_gapbs/gapbs/src/bfs.cc:53 (discriminator 3)
    4868:	|  |  |  |  |  /--|-> 48 83 c0 04          	add    $0x4,%rax
    486c:	|  |  |  |  |  |  |   49 39 c2             	cmp    %rax,%r10
    486f:	|  |  |  |  \--|--|-- 74 bf                	je     4830 <_Z6BUStepRK8CSRGraphIiiLb1EER7pvectorIiER6BitmapS7_._omp_fn.0+0xa0>
/home/aliha951/forked_gapbs/gapbs/src/bfs.cc:53 (discriminator 2)
    4871:	|  |  |  |     |  \-> 48 63 10             	movslq (%rax),%rdx
    4874:	|  |  |  |     |      48 89 d6             	mov    %rdx,%rsi
_ZN6Bitmap11word_offsetEm():
/home/aliha951/forked_gapbs/gapbs/src/bitmap.h:65 (discriminator 2)
 private:
  uint64_t *start_;
  uint64_t *end_;

  static const uint64_t kBitsPerWord = 64;
  static uint64_t word_offset(size_t n) { return n / kBitsPerWord; }
    4877:	|  |  |  |     |      48 c1 ea 06          	shr    $0x6,%rdx
_ZNK6Bitmap7get_bitEm():
/home/aliha951/forked_gapbs/gapbs/src/bitmap.h:52 (discriminator 2)
    return (start_[word_offset(pos)] >> bit_offset(pos)) & 1l;
    487b:	|  |  |  |     |      49 8b 14 d3          	mov    (%r11,%rdx,8),%rdx
_Z6BUStepRK8CSRGraphIiiLb1EER7pvectorIiER6BitmapS7_._omp_fn.0():
/home/aliha951/forked_gapbs/gapbs/src/bfs.cc:54 (discriminator 2)
        if (front.get_bit(v)) {
    487f:	|  |  |  |     |      48 0f a3 f2          	bt     %rsi,%rdx
    4883:	|  |  |  |     \----- 73 e3                	jae    4868 <_Z6BUStepRK8CSRGraphIiiLb1EER7pvectorIiER6BitmapS7_._omp_fn.0+0xd8>
_ZN6Bitmap7set_bitEm():
/home/aliha951/forked_gapbs/gapbs/src/bitmap.h:40
    start_[word_offset(pos)] |= ((uint64_t) 1l << bit_offset(pos));
    4885:	|  |  |  |            49 8b 07             	mov    (%r15),%rax
_Z6BUStepRK8CSRGraphIiiLb1EER7pvectorIiER6BitmapS7_._omp_fn.0():
/home/aliha951/forked_gapbs/gapbs/src/bfs.cc:55
          parent[u] = v;
    4888:	|  |  |  |            42 89 74 85 00       	mov    %esi,0x0(%rbp,%r8,4)
_ZN6Bitmap7set_bitEm():
/home/aliha951/forked_gapbs/gapbs/src/bitmap.h:40
    488d:	|  |  |  |            ba 01 00 00 00       	mov    $0x1,%edx
_ZN6Bitmap11word_offsetEm():
/home/aliha951/forked_gapbs/gapbs/src/bitmap.h:65
  static uint64_t word_offset(size_t n) { return n / kBitsPerWord; }
    4892:	|  |  |  |            49 c1 e8 06          	shr    $0x6,%r8
_ZN6Bitmap7set_bitEm():
/home/aliha951/forked_gapbs/gapbs/src/bitmap.h:40
    start_[word_offset(pos)] |= ((uint64_t) 1l << bit_offset(pos));
    4896:	|  |  |  |            48 d3 e2             	shl    %cl,%rdx
_Z6BUStepRK8CSRGraphIiiLb1EER7pvectorIiER6BitmapS7_._omp_fn.0():
/home/aliha951/forked_gapbs/gapbs/src/bfs.cc:56
          awake_count++;
    4899:	|  |  |  |            48 83 44 24 18 01    	addq   $0x1,0x18(%rsp)
    489f:	|  |  |  |            49 83 c1 08          	add    $0x8,%r9
_ZN6Bitmap7set_bitEm():
/home/aliha951/forked_gapbs/gapbs/src/bitmap.h:40
    48a3:	|  |  |  |            4a 09 14 c0          	or     %rdx,(%rax,%r8,8)
    48a7:	|  |  |  |            49 89 f8             	mov    %rdi,%r8
    48aa:	|  |  |  |            41 39 fc             	cmp    %edi,%r12d
    48ad:	|  |  |  \----------- 7f 8d                	jg     483c <_Z6BUStepRK8CSRGraphIiiLb1EER7pvectorIiER6BitmapS7_._omp_fn.0+0xac>
    48af:	|  |  |               90                   	nop
    48b0:	|  |  \-------------> 48 8b 74 24 10       	mov    0x10(%rsp),%rsi
    48b5:	|  |                  48 8b 7c 24 08       	mov    0x8(%rsp),%rdi
    48ba:	|  |                  e8 51 ee ff ff       	callq  3710 <GOMP_loop_nonmonotonic_dynamic_next@plt>
    48bf:	|  |                  84 c0                	test   %al,%al
    48c1:	|  \----------------- 0f 85 39 ff ff ff    	jne    4800 <_Z6BUStepRK8CSRGraphIiiLb1EER7pvectorIiER6BitmapS7_._omp_fn.0+0x70>
_Z6BUStepRK8CSRGraphIiiLb1EER7pvectorIiER6BitmapS7_._omp_fn.0():
/home/aliha951/forked_gapbs/gapbs/src/bfs.cc:50
  #pragma omp parallel for reduction(+ : awake_count) schedule(dynamic, 1024)
    48c7:	|                     48 8b 6c 24 18       	mov    0x18(%rsp),%rbp
    48cc:	\-------------------> e8 bf ec ff ff       	callq  3590 <GOMP_loop_end_nowait@plt>
/home/aliha951/forked_gapbs/gapbs/src/bfs.cc:50 (discriminator 2)
    48d1:	                      f0 48 01 6b 20       	lock add %rbp,0x20(%rbx)
    48d6:	                      48 8b 44 24 38       	mov    0x38(%rsp),%rax
    48db:	                      64 48 2b 04 25 28 00 	sub    %fs:0x28,%rax
    48e2:	00 00 
    48e4:	                  /-- 75 0f                	jne    48f5 <_Z6BUStepRK8CSRGraphIiiLb1EER7pvectorIiER6BitmapS7_._omp_fn.0+0x165>
/home/aliha951/forked_gapbs/gapbs/src/bfs.cc:50
    48e6:	                  |   48 83 c4 48          	add    $0x48,%rsp
    48ea:	                  |   5b                   	pop    %rbx
    48eb:	                  |   5d                   	pop    %rbp
    48ec:	                  |   41 5c                	pop    %r12
    48ee:	                  |   41 5d                	pop    %r13
    48f0:	                  |   41 5e                	pop    %r14
    48f2:	                  |   41 5f                	pop    %r15
    48f4:	                  |   c3                   	retq   
    48f5:	                  \-> e8 a6 ed ff ff       	callq  36a0 <__stack_chk_fail@plt>
    48fa:	                      66 0f 1f 44 00 00    	nopw   0x0(%rax,%rax,1)

0000000000004900 <_Z13QueueToBitmapRK12SlidingQueueIiER6Bitmap._omp_fn.0>:
_Z13QueueToBitmapRK12SlidingQueueIiER6Bitmap._omp_fn.0():
/home/aliha951/forked_gapbs/gapbs/src/bfs.cc:93
  #pragma omp parallel for
    4900:	                f3 0f 1e fa          	endbr64 
    4904:	                41 55                	push   %r13
    4906:	                41 54                	push   %r12
    4908:	                55                   	push   %rbp
    4909:	                53                   	push   %rbx
    490a:	                48 83 ec 08          	sub    $0x8,%rsp
/home/aliha951/forked_gapbs/gapbs/src/bfs.cc:94
  for (auto q_iter = queue.begin(); q_iter < queue.end(); q_iter++) {
    490e:	                48 8b 07             	mov    (%rdi),%rax
_ZNK12SlidingQueueIiE5beginEv():
/home/aliha951/forked_gapbs/gapbs/src/sliding_queue.h:66
  }

  typedef T* iterator;

  iterator begin() const {
    return shared + shared_out_start;
    4911:	                48 8b 10             	mov    (%rax),%rdx
    4914:	                48 8b 48 10          	mov    0x10(%rax),%rcx
_ZNK12SlidingQueueIiE3endEv():
/home/aliha951/forked_gapbs/gapbs/src/sliding_queue.h:70
  }

  iterator end() const {
    return shared + shared_out_end;
    4918:	                48 8b 40 18          	mov    0x18(%rax),%rax
_ZNK12SlidingQueueIiE5beginEv():
/home/aliha951/forked_gapbs/gapbs/src/sliding_queue.h:66
    return shared + shared_out_start;
    491c:	                4c 8d 24 8a          	lea    (%rdx,%rcx,4),%r12
_ZNK12SlidingQueueIiE3endEv():
/home/aliha951/forked_gapbs/gapbs/src/sliding_queue.h:70
    return shared + shared_out_end;
    4920:	                4c 8d 2c 82          	lea    (%rdx,%rax,4),%r13
    4924:	                4d 39 e5             	cmp    %r12,%r13
    4927:	/-------------- 0f 86 8a 00 00 00    	jbe    49b7 <_Z13QueueToBitmapRK12SlidingQueueIiER6Bitmap._omp_fn.0+0xb7>
    492d:	|               48 89 fb             	mov    %rdi,%rbx
    4930:	|               e8 7b ef ff ff       	callq  38b0 <omp_get_num_threads@plt>
    4935:	|               48 63 e8             	movslq %eax,%rbp
    4938:	|               e8 b3 ee ff ff       	callq  37f0 <omp_get_thread_num@plt>
    493d:	|               48 63 c8             	movslq %eax,%rcx
    4940:	|               49 8d 45 03          	lea    0x3(%r13),%rax
    4944:	|               4c 29 e0             	sub    %r12,%rax
    4947:	|               48 89 c2             	mov    %rax,%rdx
    494a:	|               48 8d 40 03          	lea    0x3(%rax),%rax
    494e:	|               48 0f 49 c2          	cmovns %rdx,%rax
    4952:	|               48 c1 f8 02          	sar    $0x2,%rax
    4956:	|               48 99                	cqto   
    4958:	|               48 f7 fd             	idiv   %rbp
    495b:	|               48 39 d1             	cmp    %rdx,%rcx
    495e:	|     /-------- 7c 68                	jl     49c8 <_Z13QueueToBitmapRK12SlidingQueueIiER6Bitmap._omp_fn.0+0xc8>
    4960:	|  /--|-------> 48 0f af c8          	imul   %rax,%rcx
    4964:	|  |  |         48 01 ca             	add    %rcx,%rdx
    4967:	|  |  |         48 01 d0             	add    %rdx,%rax
    496a:	|  |  |         48 39 c2             	cmp    %rax,%rdx
    496d:	+--|--|-------- 7d 48                	jge    49b7 <_Z13QueueToBitmapRK12SlidingQueueIiER6Bitmap._omp_fn.0+0xb7>
    496f:	|  |  |         49 8d 34 94          	lea    (%r12,%rdx,4),%rsi
    4973:	|  |  |         4d 8d 14 84          	lea    (%r12,%rax,4),%r10
_ZN6Bitmap14set_bit_atomicEm():
/home/aliha951/forked_gapbs/gapbs/src/bitmap.h:47
      new_val = old_val | ((uint64_t) 1l << bit_offset(pos));
    4977:	|  |  |         41 b9 01 00 00 00    	mov    $0x1,%r9d
    497d:	|  |  |         0f 1f 00             	nopl   (%rax)
_Z13QueueToBitmapRK12SlidingQueueIiER6Bitmap._omp_fn.0():
/home/aliha951/forked_gapbs/gapbs/src/bfs.cc:95 (discriminator 1)
    NodeID u = *q_iter;
    4980:	|  |  |  /----> 48 63 16             	movslq (%rsi),%rdx
_ZN6Bitmap14set_bit_atomicEm():
/home/aliha951/forked_gapbs/gapbs/src/bitmap.h:47 (discriminator 1)
    4983:	|  |  |  |      4d 89 cb             	mov    %r9,%r11
_Z13QueueToBitmapRK12SlidingQueueIiER6Bitmap._omp_fn.0():
/home/aliha951/forked_gapbs/gapbs/src/bfs.cc:96 (discriminator 1)
    bm.set_bit_atomic(u);
    4986:	|  |  |  |      4c 8b 43 08          	mov    0x8(%rbx),%r8
/home/aliha951/forked_gapbs/gapbs/src/bfs.cc:95 (discriminator 1)
    NodeID u = *q_iter;
    498a:	|  |  |  |      48 89 d1             	mov    %rdx,%rcx
_ZN6Bitmap11word_offsetEm():
/home/aliha951/forked_gapbs/gapbs/src/bitmap.h:65 (discriminator 1)
  static uint64_t word_offset(size_t n) { return n / kBitsPerWord; }
    498d:	|  |  |  |      48 c1 ea 06          	shr    $0x6,%rdx
_ZN6Bitmap14set_bit_atomicEm():
/home/aliha951/forked_gapbs/gapbs/src/bitmap.h:46 (discriminator 1)
      old_val = start_[word_offset(pos)];
    4991:	|  |  |  |      48 c1 e2 03          	shl    $0x3,%rdx
/home/aliha951/forked_gapbs/gapbs/src/bitmap.h:47 (discriminator 1)
      new_val = old_val | ((uint64_t) 1l << bit_offset(pos));
    4995:	|  |  |  |      49 d3 e3             	shl    %cl,%r11
/home/aliha951/forked_gapbs/gapbs/src/bitmap.h:46
      old_val = start_[word_offset(pos)];
    4998:	|  |  |  |  /-> 49 8b 08             	mov    (%r8),%rcx
    499b:	|  |  |  |  |   48 01 d1             	add    %rdx,%rcx
    499e:	|  |  |  |  |   48 8b 01             	mov    (%rcx),%rax
/home/aliha951/forked_gapbs/gapbs/src/bitmap.h:47
      new_val = old_val | ((uint64_t) 1l << bit_offset(pos));
    49a1:	|  |  |  |  |   48 89 c7             	mov    %rax,%rdi
    49a4:	|  |  |  |  |   4c 09 df             	or     %r11,%rdi
_Z16compare_and_swapImEbRT_RKS0_S3_():
/home/aliha951/forked_gapbs/gapbs/src/platform_atomics.h:31
      return __sync_fetch_and_add(&x, inc);
    }

    template<typename T>
    bool compare_and_swap(T &x, const T &old_val, const T &new_val) {
      return __sync_bool_compare_and_swap(&x, old_val, new_val);
    49a7:	|  |  |  |  |   f0 48 0f b1 39       	lock cmpxchg %rdi,(%rcx)
_ZN6Bitmap14set_bit_atomicEm():
/home/aliha951/forked_gapbs/gapbs/src/bitmap.h:48
    } while (!compare_and_swap(start_[word_offset(pos)], old_val, new_val));
    49ac:	|  |  |  |  \-- 75 ea                	jne    4998 <_Z13QueueToBitmapRK12SlidingQueueIiER6Bitmap._omp_fn.0+0x98>
    49ae:	|  |  |  |      48 83 c6 04          	add    $0x4,%rsi
    49b2:	|  |  |  |      49 39 f2             	cmp    %rsi,%r10
    49b5:	|  |  |  \----- 77 c9                	ja     4980 <_Z13QueueToBitmapRK12SlidingQueueIiER6Bitmap._omp_fn.0+0x80>
_Z13QueueToBitmapRK12SlidingQueueIiER6Bitmap._omp_fn.0():
/home/aliha951/forked_gapbs/gapbs/src/bfs.cc:93
  #pragma omp parallel for
    49b7:	\--|--|-------> 48 83 c4 08          	add    $0x8,%rsp
    49bb:	   |  |         5b                   	pop    %rbx
    49bc:	   |  |         5d                   	pop    %rbp
    49bd:	   |  |         41 5c                	pop    %r12
    49bf:	   |  |         41 5d                	pop    %r13
    49c1:	   |  |         c3                   	retq   
    49c2:	   |  |         66 0f 1f 44 00 00    	nopw   0x0(%rax,%rax,1)
    49c8:	   |  \-------> 48 83 c0 01          	add    $0x1,%rax
_ZNK12SlidingQueueIiE3endEv():
/home/aliha951/forked_gapbs/gapbs/src/sliding_queue.h:70
    49cc:	   |            31 d2                	xor    %edx,%edx
    49ce:	   \----------- eb 90                	jmp    4960 <_Z13QueueToBitmapRK12SlidingQueueIiER6Bitmap._omp_fn.0+0x60>

00000000000049d0 <_Z10InitParentRK8CSRGraphIiiLb1EE._omp_fn.0>:
_Z10InitParentRK8CSRGraphIiiLb1EE._omp_fn.0():
/home/aliha951/forked_gapbs/gapbs/src/bfs.cc:116
  #pragma omp parallel for
    49d0:	                f3 0f 1e fa          	endbr64 
    49d4:	                41 54                	push   %r12
    49d6:	                55                   	push   %rbp
    49d7:	                48 89 fd             	mov    %rdi,%rbp
    49da:	                53                   	push   %rbx
/home/aliha951/forked_gapbs/gapbs/src/bfs.cc:117
  for (NodeID n=0; n < g.num_nodes(); n++)
    49db:	                4c 8b 27             	mov    (%rdi),%r12
_ZNK8CSRGraphIiiLb1EE9num_nodesEv():
/home/aliha951/forked_gapbs/gapbs/src/graph.h:193
  int64_t num_nodes() const {
    49de:	                e8 cd ee ff ff       	callq  38b0 <omp_get_num_threads@plt>
    49e3:	                89 c3                	mov    %eax,%ebx
    49e5:	                e8 06 ee ff ff       	callq  37f0 <omp_get_thread_num@plt>
    49ea:	                89 c1                	mov    %eax,%ecx
_Z10InitParentRK8CSRGraphIiiLb1EE._omp_fn.0():
/home/aliha951/forked_gapbs/gapbs/src/bfs.cc:117
    49ec:	                49 8b 44 24 08       	mov    0x8(%r12),%rax
    49f1:	                99                   	cltd   
    49f2:	                f7 fb                	idiv   %ebx
    49f4:	                39 d1                	cmp    %edx,%ecx
    49f6:	   /----------- 7c 60                	jl     4a58 <_Z10InitParentRK8CSRGraphIiiLb1EE._omp_fn.0+0x88>
    49f8:	/--|----------> 0f af c8             	imul   %eax,%ecx
    49fb:	|  |            01 ca                	add    %ecx,%edx
    49fd:	|  |            01 d0                	add    %edx,%eax
    49ff:	|  |            39 c2                	cmp    %eax,%edx
    4a01:	|  |  /-------- 7d 38                	jge    4a3b <_Z10InitParentRK8CSRGraphIiiLb1EE._omp_fn.0+0x6b>
_ZN7pvectorIiEixEm():
/home/aliha951/forked_gapbs/gapbs/src/pvector.h:116
    4a03:	|  |  |         48 8b 4d 08          	mov    0x8(%rbp),%rcx
_ZNK8CSRGraphIiiLb1EE10out_degreeEi():
/home/aliha951/forked_gapbs/gapbs/src/graph.h:206
    return out_index_[v+1] - out_index_[v];
    4a07:	|  |  |         49 8b 7c 24 18       	mov    0x18(%r12),%rdi
    4a0c:	|  |  |         48 63 d2             	movslq %edx,%rdx
_ZN7pvectorIiEixEm():
/home/aliha951/forked_gapbs/gapbs/src/pvector.h:116
    4a0f:	|  |  |         4c 8b 01             	mov    (%rcx),%r8
    4a12:	|  |  |         66 0f 1f 44 00 00    	nopw   0x0(%rax,%rax,1)
_ZNK8CSRGraphIiiLb1EE10out_degreeEi():
/home/aliha951/forked_gapbs/gapbs/src/graph.h:206
    4a18:	|  |  |  /----> 48 8b 4c d7 08       	mov    0x8(%rdi,%rdx,8),%rcx
    4a1d:	|  |  |  |      48 8b 34 d7          	mov    (%rdi,%rdx,8),%rsi
_Z10InitParentRK8CSRGraphIiiLb1EE._omp_fn.0():
/home/aliha951/forked_gapbs/gapbs/src/bfs.cc:118
    parent[n] = g.out_degree(n) != 0 ? -g.out_degree(n) : -1;
    4a21:	|  |  |  |      48 39 ce             	cmp    %rcx,%rsi
    4a24:	|  |  |  |  /-- 74 1a                	je     4a40 <_Z10InitParentRK8CSRGraphIiiLb1EE._omp_fn.0+0x70>
_ZNK8CSRGraphIiiLb1EE10out_degreeEi():
/home/aliha951/forked_gapbs/gapbs/src/graph.h:206
    4a26:	|  |  |  |  |   48 29 f1             	sub    %rsi,%rcx
    4a29:	|  |  |  |  |   48 c1 f9 02          	sar    $0x2,%rcx
_Z10InitParentRK8CSRGraphIiiLb1EE._omp_fn.0():
/home/aliha951/forked_gapbs/gapbs/src/bfs.cc:118
    4a2d:	|  |  |  |  |   f7 d9                	neg    %ecx
    4a2f:	|  |  |  |  |   41 89 0c 90          	mov    %ecx,(%r8,%rdx,4)
    4a33:	|  |  |  |  |   48 83 c2 01          	add    $0x1,%rdx
    4a37:	|  |  |  |  |   39 d0                	cmp    %edx,%eax
    4a39:	|  |  |  +--|-- 7f dd                	jg     4a18 <_Z10InitParentRK8CSRGraphIiiLb1EE._omp_fn.0+0x48>
/home/aliha951/forked_gapbs/gapbs/src/bfs.cc:116
  #pragma omp parallel for
    4a3b:	|  |  \--|--|-> 5b                   	pop    %rbx
    4a3c:	|  |     |  |   5d                   	pop    %rbp
    4a3d:	|  |     |  |   41 5c                	pop    %r12
    4a3f:	|  |     |  |   c3                   	retq   
/home/aliha951/forked_gapbs/gapbs/src/bfs.cc:118
    parent[n] = g.out_degree(n) != 0 ? -g.out_degree(n) : -1;
    4a40:	|  |     |  \-> 41 c7 04 90 ff ff ff 	movl   $0xffffffff,(%r8,%rdx,4)
    4a47:	ff 
    4a48:	|  |     |      48 83 c2 01          	add    $0x1,%rdx
    4a4c:	|  |     |      39 d0                	cmp    %edx,%eax
    4a4e:	|  |     \----- 7f c8                	jg     4a18 <_Z10InitParentRK8CSRGraphIiiLb1EE._omp_fn.0+0x48>
/home/aliha951/forked_gapbs/gapbs/src/bfs.cc:116
  #pragma omp parallel for
    4a50:	|  |            5b                   	pop    %rbx
    4a51:	|  |            5d                   	pop    %rbp
    4a52:	|  |            41 5c                	pop    %r12
    4a54:	|  |            c3                   	retq   
    4a55:	|  |            0f 1f 00             	nopl   (%rax)
    4a58:	|  \----------> 83 c0 01             	add    $0x1,%eax
/home/aliha951/forked_gapbs/gapbs/src/bfs.cc:117
  for (NodeID n=0; n < g.num_nodes(); n++)
    4a5b:	|               31 d2                	xor    %edx,%edx
    4a5d:	\-------------- eb 99                	jmp    49f8 <_Z10InitParentRK8CSRGraphIiiLb1EE._omp_fn.0+0x28>
    4a5f:	                90                   	nop

0000000000004a60 <_Z5DOBFSRK8CSRGraphIiiLb1EEibii._omp_fn.0>:
_Z5DOBFSRK8CSRGraphIiiLb1EEibii._omp_fn.0():
/home/aliha951/forked_gapbs/gapbs/src/bfs.cc:174
  #pragma omp parallel for
    4a60:	                f3 0f 1e fa          	endbr64 
    4a64:	                55                   	push   %rbp
    4a65:	                48 89 fd             	mov    %rdi,%rbp
    4a68:	                53                   	push   %rbx
    4a69:	                48 83 ec 08          	sub    $0x8,%rsp
    4a6d:	                e8 3e ee ff ff       	callq  38b0 <omp_get_num_threads@plt>
    4a72:	                89 c3                	mov    %eax,%ebx
    4a74:	                e8 77 ed ff ff       	callq  37f0 <omp_get_thread_num@plt>
    4a79:	                89 c1                	mov    %eax,%ecx
_ZNK8CSRGraphIiiLb1EE9num_nodesEv():
/home/aliha951/forked_gapbs/gapbs/src/graph.h:194
    return num_nodes_;
    4a7b:	                48 8b 45 00          	mov    0x0(%rbp),%rax
_Z5DOBFSRK8CSRGraphIiiLb1EEibii._omp_fn.0():
/home/aliha951/forked_gapbs/gapbs/src/bfs.cc:175
  for (NodeID n = 0; n < g.num_nodes(); n++)
    4a7f:	                48 8b 40 08          	mov    0x8(%rax),%rax
    4a83:	                99                   	cltd   
    4a84:	                f7 fb                	idiv   %ebx
    4a86:	                39 d1                	cmp    %edx,%ecx
    4a88:	   /----------- 7c 46                	jl     4ad0 <_Z5DOBFSRK8CSRGraphIiiLb1EEibii._omp_fn.0+0x70>
    4a8a:	/--|----------> 0f af c8             	imul   %eax,%ecx
    4a8d:	|  |            01 ca                	add    %ecx,%edx
    4a8f:	|  |            8d 0c 10             	lea    (%rax,%rdx,1),%ecx
    4a92:	|  |            39 ca                	cmp    %ecx,%edx
    4a94:	|  |  /-------- 7d 2e                	jge    4ac4 <_Z5DOBFSRK8CSRGraphIiiLb1EEibii._omp_fn.0+0x64>
_ZN7pvectorIiEixEm():
/home/aliha951/forked_gapbs/gapbs/src/pvector.h:116
    4a96:	|  |  |         48 8b 4d 08          	mov    0x8(%rbp),%rcx
    4a9a:	|  |  |         83 e8 01             	sub    $0x1,%eax
    4a9d:	|  |  |         48 8b 31             	mov    (%rcx),%rsi
    4aa0:	|  |  |         48 63 ca             	movslq %edx,%rcx
    4aa3:	|  |  |         48 8d 14 8e          	lea    (%rsi,%rcx,4),%rdx
    4aa7:	|  |  |         48 01 c1             	add    %rax,%rcx
    4aaa:	|  |  |         48 8d 44 8e 04       	lea    0x4(%rsi,%rcx,4),%rax
    4aaf:	|  |  |         90                   	nop
_Z5DOBFSRK8CSRGraphIiiLb1EEibii._omp_fn.0():
/home/aliha951/forked_gapbs/gapbs/src/bfs.cc:176
    if (parent[n] < -1)
    4ab0:	|  |  |  /----> 83 3a ff             	cmpl   $0xffffffff,(%rdx)
    4ab3:	|  |  |  |  /-- 7d 06                	jge    4abb <_Z5DOBFSRK8CSRGraphIiiLb1EEibii._omp_fn.0+0x5b>
/home/aliha951/forked_gapbs/gapbs/src/bfs.cc:177
      parent[n] = -1;
    4ab5:	|  |  |  |  |   c7 02 ff ff ff ff    	movl   $0xffffffff,(%rdx)
    4abb:	|  |  |  |  \-> 48 83 c2 04          	add    $0x4,%rdx
    4abf:	|  |  |  |      48 39 c2             	cmp    %rax,%rdx
    4ac2:	|  |  |  \----- 75 ec                	jne    4ab0 <_Z5DOBFSRK8CSRGraphIiiLb1EEibii._omp_fn.0+0x50>
/home/aliha951/forked_gapbs/gapbs/src/bfs.cc:174
  #pragma omp parallel for
    4ac4:	|  |  \-------> 48 83 c4 08          	add    $0x8,%rsp
    4ac8:	|  |            5b                   	pop    %rbx
    4ac9:	|  |            5d                   	pop    %rbp
    4aca:	|  |            c3                   	retq   
    4acb:	|  |            0f 1f 44 00 00       	nopl   0x0(%rax,%rax,1)
    4ad0:	|  \----------> 83 c0 01             	add    $0x1,%eax
/home/aliha951/forked_gapbs/gapbs/src/bfs.cc:175
  for (NodeID n = 0; n < g.num_nodes(); n++)
    4ad3:	|               31 d2                	xor    %edx,%edx
    4ad5:	\-------------- eb b3                	jmp    4a8a <_Z5DOBFSRK8CSRGraphIiiLb1EEibii._omp_fn.0+0x2a>
    4ad7:	                66 0f 1f 84 00 00 00 	nopw   0x0(%rax,%rax,1)
    4ade:	00 00 

0000000000004ae0 <_ZN7pvectorIiE4fillEi._omp_fn.0>:
_ZN7pvectorIiE4fillEi._omp_fn.0():
/home/aliha951/forked_gapbs/gapbs/src/pvector.h:133
    *end_size_ = val;
    end_size_++;
  }

  void fill(T_ init_val) {
    #pragma omp parallel for
    4ae0:	                f3 0f 1e fa          	endbr64 
    4ae4:	                41 55                	push   %r13
    4ae6:	                41 54                	push   %r12
    4ae8:	                55                   	push   %rbp
    4ae9:	                53                   	push   %rbx
    4aea:	                48 83 ec 08          	sub    $0x8,%rsp
    4aee:	                48 8b 07             	mov    (%rdi),%rax
/home/aliha951/forked_gapbs/gapbs/src/pvector.h:134
    for (T_* ptr=start_; ptr < end_size_; ptr++)
    4af1:	                48 8b 28             	mov    (%rax),%rbp
    4af4:	                4c 8b 68 08          	mov    0x8(%rax),%r13
    4af8:	                4c 39 ed             	cmp    %r13,%rbp
    4afb:	/-------------- 0f 83 dd 00 00 00    	jae    4bde <_ZN7pvectorIiE4fillEi._omp_fn.0+0xfe>
    4b01:	|               49 89 fc             	mov    %rdi,%r12
    4b04:	|               e8 a7 ed ff ff       	callq  38b0 <omp_get_num_threads@plt>
    4b09:	|               48 63 d8             	movslq %eax,%rbx
    4b0c:	|               e8 df ec ff ff       	callq  37f0 <omp_get_thread_num@plt>
    4b11:	|               48 63 c8             	movslq %eax,%rcx
    4b14:	|               49 8d 45 03          	lea    0x3(%r13),%rax
    4b18:	|               48 29 e8             	sub    %rbp,%rax
    4b1b:	|               48 89 c2             	mov    %rax,%rdx
    4b1e:	|               48 8d 40 03          	lea    0x3(%rax),%rax
    4b22:	|               48 0f 49 c2          	cmovns %rdx,%rax
    4b26:	|               48 c1 f8 02          	sar    $0x2,%rax
    4b2a:	|               48 99                	cqto   
    4b2c:	|               48 f7 fb             	idiv   %rbx
    4b2f:	|               48 39 d1             	cmp    %rdx,%rcx
    4b32:	|     /-------- 0f 8c b8 00 00 00    	jl     4bf0 <_ZN7pvectorIiE4fillEi._omp_fn.0+0x110>
    4b38:	|  /--|-------> 48 0f af c8          	imul   %rax,%rcx
    4b3c:	|  |  |         48 01 ca             	add    %rcx,%rdx
    4b3f:	|  |  |         48 01 d0             	add    %rdx,%rax
    4b42:	|  |  |         48 39 c2             	cmp    %rax,%rdx
    4b45:	+--|--|-------- 0f 8d 93 00 00 00    	jge    4bde <_ZN7pvectorIiE4fillEi._omp_fn.0+0xfe>
    4b4b:	|  |  |         48 c1 e2 02          	shl    $0x2,%rdx
    4b4f:	|  |  |         48 c1 e0 02          	shl    $0x2,%rax
/home/aliha951/forked_gapbs/gapbs/src/pvector.h:133
    #pragma omp parallel for
    4b53:	|  |  |         41 8b 7c 24 08       	mov    0x8(%r12),%edi
    4b58:	|  |  |         48 8d 74 15 00       	lea    0x0(%rbp,%rdx,1),%rsi
    4b5d:	|  |  |         48 01 c5             	add    %rax,%rbp
    4b60:	|  |  |         48 29 d0             	sub    %rdx,%rax
    4b63:	|  |  |         48 83 e8 01          	sub    $0x1,%rax
    4b67:	|  |  |         4c 8d 46 01          	lea    0x1(%rsi),%r8
    4b6b:	|  |  |         48 89 f1             	mov    %rsi,%rcx
    4b6e:	|  |  |         48 89 c2             	mov    %rax,%rdx
    4b71:	|  |  |         48 c1 ea 02          	shr    $0x2,%rdx
    4b75:	|  |  |         48 83 c2 01          	add    $0x1,%rdx
    4b79:	|  |  |         4c 39 c5             	cmp    %r8,%rbp
    4b7c:	|  |  |         41 b8 01 00 00 00    	mov    $0x1,%r8d
    4b82:	|  |  |         49 0f 42 d0          	cmovb  %r8,%rdx
    4b86:	|  |  |  /----- 72 3c                	jb     4bc4 <_ZN7pvectorIiE4fillEi._omp_fn.0+0xe4>
    4b88:	|  |  |  |      48 83 f8 0b          	cmp    $0xb,%rax
    4b8c:	|  |  |  +----- 76 36                	jbe    4bc4 <_ZN7pvectorIiE4fillEi._omp_fn.0+0xe4>
    4b8e:	|  |  |  |      48 89 d0             	mov    %rdx,%rax
    4b91:	|  |  |  |      66 0f 6e cf          	movd   %edi,%xmm1
    4b95:	|  |  |  |      48 c1 e8 02          	shr    $0x2,%rax
    4b99:	|  |  |  |      66 0f 70 c1 00       	pshufd $0x0,%xmm1,%xmm0
    4b9e:	|  |  |  |      48 c1 e0 04          	shl    $0x4,%rax
    4ba2:	|  |  |  |      48 01 f0             	add    %rsi,%rax
    4ba5:	|  |  |  |      0f 1f 00             	nopl   (%rax)
/home/aliha951/forked_gapbs/gapbs/src/pvector.h:135 (discriminator 1)
      *ptr = init_val;
    4ba8:	|  |  |  |  /-> 0f 11 01             	movups %xmm0,(%rcx)
    4bab:	|  |  |  |  |   48 83 c1 10          	add    $0x10,%rcx
    4baf:	|  |  |  |  |   48 39 c1             	cmp    %rax,%rcx
    4bb2:	|  |  |  |  \-- 75 f4                	jne    4ba8 <_ZN7pvectorIiE4fillEi._omp_fn.0+0xc8>
    4bb4:	|  |  |  |      48 89 d0             	mov    %rdx,%rax
    4bb7:	|  |  |  |      48 83 e0 fc          	and    $0xfffffffffffffffc,%rax
    4bbb:	|  |  |  |      48 8d 34 86          	lea    (%rsi,%rax,4),%rsi
    4bbf:	|  |  |  |      48 39 c2             	cmp    %rax,%rdx
    4bc2:	+--|--|--|----- 74 1a                	je     4bde <_ZN7pvectorIiE4fillEi._omp_fn.0+0xfe>
    4bc4:	|  |  |  \----> 48 8d 46 04          	lea    0x4(%rsi),%rax
/home/aliha951/forked_gapbs/gapbs/src/pvector.h:135
    4bc8:	|  |  |         89 3e                	mov    %edi,(%rsi)
    4bca:	|  |  |         48 39 c5             	cmp    %rax,%rbp
    4bcd:	+--|--|-------- 76 0f                	jbe    4bde <_ZN7pvectorIiE4fillEi._omp_fn.0+0xfe>
    4bcf:	|  |  |         48 8d 46 08          	lea    0x8(%rsi),%rax
    4bd3:	|  |  |         89 7e 04             	mov    %edi,0x4(%rsi)
    4bd6:	|  |  |         48 39 c5             	cmp    %rax,%rbp
    4bd9:	+--|--|-------- 76 03                	jbe    4bde <_ZN7pvectorIiE4fillEi._omp_fn.0+0xfe>
    4bdb:	|  |  |         89 7e 08             	mov    %edi,0x8(%rsi)
/home/aliha951/forked_gapbs/gapbs/src/pvector.h:133
    #pragma omp parallel for
    4bde:	\--|--|-------> 48 83 c4 08          	add    $0x8,%rsp
    4be2:	   |  |         5b                   	pop    %rbx
    4be3:	   |  |         5d                   	pop    %rbp
    4be4:	   |  |         41 5c                	pop    %r12
    4be6:	   |  |         41 5d                	pop    %r13
    4be8:	   |  |         c3                   	retq   
    4be9:	   |  |         0f 1f 80 00 00 00 00 	nopl   0x0(%rax)
    4bf0:	   |  \-------> 48 83 c0 01          	add    $0x1,%rax
/home/aliha951/forked_gapbs/gapbs/src/pvector.h:134
    for (T_* ptr=start_; ptr < end_size_; ptr++)
    4bf4:	   |            31 d2                	xor    %edx,%edx
    4bf6:	   \----------- e9 3d ff ff ff       	jmpq   4b38 <_ZN7pvectorIiE4fillEi._omp_fn.0+0x58>
    4bfb:	                0f 1f 44 00 00       	nopl   0x0(%rax,%rax,1)

0000000000004c00 <_ZN8CSRGraphIiiLb1EE8GenIndexERK7pvectorIlEPi._omp_fn.0>:
_ZN8CSRGraphIiiLb1EE8GenIndexERK7pvectorIlEPi._omp_fn.0():
/home/aliha951/forked_gapbs/gapbs/src/graph.h:245
  }

  static DestID_** GenIndex(const pvector<SGOffset> &offsets, DestID_* neighs) {
    NodeID_ length = offsets.size();
    DestID_** index = new DestID_*[length];
    #pragma omp parallel for
    4c00:	             f3 0f 1e fa          	endbr64 
    4c04:	             55                   	push   %rbp
    4c05:	             53                   	push   %rbx
    4c06:	             48 89 fb             	mov    %rdi,%rbx
    4c09:	             48 83 ec 08          	sub    $0x8,%rsp
    4c0d:	             e8 9e ec ff ff       	callq  38b0 <omp_get_num_threads@plt>
    4c12:	             89 c5                	mov    %eax,%ebp
    4c14:	             e8 d7 eb ff ff       	callq  37f0 <omp_get_thread_num@plt>
    4c19:	             89 c1                	mov    %eax,%ecx
    4c1b:	             8b 43 18             	mov    0x18(%rbx),%eax
    4c1e:	             99                   	cltd   
    4c1f:	             f7 fd                	idiv   %ebp
    4c21:	             39 d1                	cmp    %edx,%ecx
    4c23:	   /-------- 7c 43                	jl     4c68 <_ZN8CSRGraphIiiLb1EE8GenIndexERK7pvectorIlEPi._omp_fn.0+0x68>
    4c25:	/--|-------> 0f af c8             	imul   %eax,%ecx
    4c28:	|  |         01 ca                	add    %ecx,%edx
    4c2a:	|  |         01 d0                	add    %edx,%eax
    4c2c:	|  |         39 c2                	cmp    %eax,%edx
    4c2e:	|  |  /----- 7d 2c                	jge    4c5c <_ZN8CSRGraphIiiLb1EE8GenIndexERK7pvectorIlEPi._omp_fn.0+0x5c>
_ZNK7pvectorIlEixEm():
/home/aliha951/forked_gapbs/gapbs/src/pvector.h:120
    return start_[n];
    4c30:	|  |  |      48 8b 0b             	mov    (%rbx),%rcx
_ZN8CSRGraphIiiLb1EE8GenIndexERK7pvectorIlEPi._omp_fn.0():
/home/aliha951/forked_gapbs/gapbs/src/graph.h:245
    4c33:	|  |  |      4c 8b 43 10          	mov    0x10(%rbx),%r8
    4c37:	|  |  |      48 63 d2             	movslq %edx,%rdx
    4c3a:	|  |  |      48 8b 7b 08          	mov    0x8(%rbx),%rdi
_ZNK7pvectorIlEixEm():
/home/aliha951/forked_gapbs/gapbs/src/pvector.h:120
    4c3e:	|  |  |      48 8b 31             	mov    (%rcx),%rsi
    4c41:	|  |  |      0f 1f 80 00 00 00 00 	nopl   0x0(%rax)
_ZN8CSRGraphIiiLb1EE8GenIndexERK7pvectorIlEPi._omp_fn.0():
/home/aliha951/forked_gapbs/gapbs/src/graph.h:247 (discriminator 1)
    for (NodeID_ n=0; n < length; n++)
      index[n] = neighs + offsets[n];
    4c48:	|  |  |  /-> 48 8b 0c d6          	mov    (%rsi,%rdx,8),%rcx
    4c4c:	|  |  |  |   48 8d 0c 8f          	lea    (%rdi,%rcx,4),%rcx
    4c50:	|  |  |  |   49 89 0c d0          	mov    %rcx,(%r8,%rdx,8)
    4c54:	|  |  |  |   48 83 c2 01          	add    $0x1,%rdx
    4c58:	|  |  |  |   39 d0                	cmp    %edx,%eax
    4c5a:	|  |  |  \-- 7f ec                	jg     4c48 <_ZN8CSRGraphIiiLb1EE8GenIndexERK7pvectorIlEPi._omp_fn.0+0x48>
/home/aliha951/forked_gapbs/gapbs/src/graph.h:245
    #pragma omp parallel for
    4c5c:	|  |  \----> 48 83 c4 08          	add    $0x8,%rsp
    4c60:	|  |         5b                   	pop    %rbx
    4c61:	|  |         5d                   	pop    %rbp
    4c62:	|  |         c3                   	retq   
    4c63:	|  |         0f 1f 44 00 00       	nopl   0x0(%rax,%rax,1)
    4c68:	|  \-------> 83 c0 01             	add    $0x1,%eax
    4c6b:	|            31 d2                	xor    %edx,%edx
    4c6d:	\----------- eb b6                	jmp    4c25 <_ZN8CSRGraphIiiLb1EE8GenIndexERK7pvectorIlEPi._omp_fn.0+0x25>
    4c6f:	             90                   	nop

0000000000004c70 <_ZN7pvectorI8EdgePairIiiEE7reserveEm._omp_fn.0>:
_ZN7pvectorI8EdgePairIiiEE7reserveEm._omp_fn.0():
/home/aliha951/forked_gapbs/gapbs/src/pvector.h:86
      #pragma omp parallel for
    4c70:	             f3 0f 1e fa          	endbr64 
    4c74:	             41 55                	push   %r13
    4c76:	             41 54                	push   %r12
    4c78:	             55                   	push   %rbp
    4c79:	             53                   	push   %rbx
    4c7a:	             48 83 ec 08          	sub    $0x8,%rsp
    4c7e:	             48 8b 07             	mov    (%rdi),%rax
_ZNK7pvectorI8EdgePairIiiEE4sizeEv():
/home/aliha951/forked_gapbs/gapbs/src/pvector.h:143
  size_t capacity() const {
    return end_capacity_ - start_;
  }

  size_t size() const {
    return end_size_ - start_;
    4c81:	             4c 8b 20             	mov    (%rax),%r12
    4c84:	             48 8b 40 08          	mov    0x8(%rax),%rax
    4c88:	             4c 29 e0             	sub    %r12,%rax
    4c8b:	             48 c1 f8 03          	sar    $0x3,%rax
    4c8f:	/----------- 74 50                	je     4ce1 <_ZN7pvectorI8EdgePairIiiEE7reserveEm._omp_fn.0+0x71>
    4c91:	|            49 89 fd             	mov    %rdi,%r13
    4c94:	|            48 89 c3             	mov    %rax,%rbx
    4c97:	|            e8 14 ec ff ff       	callq  38b0 <omp_get_num_threads@plt>
    4c9c:	|            89 c5                	mov    %eax,%ebp
    4c9e:	|            e8 4d eb ff ff       	callq  37f0 <omp_get_thread_num@plt>
    4ca3:	|            48 63 f5             	movslq %ebp,%rsi
    4ca6:	|            31 d2                	xor    %edx,%edx
    4ca8:	|            48 63 c8             	movslq %eax,%rcx
    4cab:	|            48 89 d8             	mov    %rbx,%rax
    4cae:	|            48 f7 f6             	div    %rsi
    4cb1:	|            48 39 d1             	cmp    %rdx,%rcx
    4cb4:	|     /----- 72 3a                	jb     4cf0 <_ZN7pvectorI8EdgePairIiiEE7reserveEm._omp_fn.0+0x80>
    4cb6:	|  /--|----> 48 0f af c8          	imul   %rax,%rcx
    4cba:	|  |  |      48 01 ca             	add    %rcx,%rdx
    4cbd:	|  |  |      48 01 d0             	add    %rdx,%rax
    4cc0:	|  |  |      48 39 c2             	cmp    %rax,%rdx
    4cc3:	+--|--|----- 73 1c                	jae    4ce1 <_ZN7pvectorI8EdgePairIiiEE7reserveEm._omp_fn.0+0x71>
_ZN7pvectorI8EdgePairIiiEE7reserveEm._omp_fn.0():
/home/aliha951/forked_gapbs/gapbs/src/pvector.h:86
      #pragma omp parallel for
    4cc5:	|  |  |      49 8b 75 08          	mov    0x8(%r13),%rsi
    4cc9:	|  |  |      0f 1f 80 00 00 00 00 	nopl   0x0(%rax)
/home/aliha951/forked_gapbs/gapbs/src/pvector.h:88 (discriminator 1)
        new_range[i] = start_[i];
    4cd0:	|  |  |  /-> 49 8b 0c d4          	mov    (%r12,%rdx,8),%rcx
    4cd4:	|  |  |  |   48 89 0c d6          	mov    %rcx,(%rsi,%rdx,8)
    4cd8:	|  |  |  |   48 83 c2 01          	add    $0x1,%rdx
    4cdc:	|  |  |  |   48 39 d0             	cmp    %rdx,%rax
    4cdf:	|  |  |  \-- 75 ef                	jne    4cd0 <_ZN7pvectorI8EdgePairIiiEE7reserveEm._omp_fn.0+0x60>
/home/aliha951/forked_gapbs/gapbs/src/pvector.h:86
      #pragma omp parallel for
    4ce1:	\--|--|----> 48 83 c4 08          	add    $0x8,%rsp
    4ce5:	   |  |      5b                   	pop    %rbx
    4ce6:	   |  |      5d                   	pop    %rbp
    4ce7:	   |  |      41 5c                	pop    %r12
    4ce9:	   |  |      41 5d                	pop    %r13
    4ceb:	   |  |      c3                   	retq   
    4cec:	   |  |      0f 1f 40 00          	nopl   0x0(%rax)
    4cf0:	   |  \----> 48 83 c0 01          	add    $0x1,%rax
_ZNK7pvectorI8EdgePairIiiEE4sizeEv():
/home/aliha951/forked_gapbs/gapbs/src/pvector.h:143
    return end_size_ - start_;
    4cf4:	   |         31 d2                	xor    %edx,%edx
    4cf6:	   \-------- eb be                	jmp    4cb6 <_ZN7pvectorI8EdgePairIiiEE7reserveEm._omp_fn.0+0x46>
_ZN7pvectorI8EdgePairIiiEE7reserveEm._omp_fn.0():
/home/aliha951/forked_gapbs/gapbs/src/pvector.h:143
    4cf8:	             0f 1f 84 00 00 00 00 	nopl   0x0(%rax,%rax,1)
    4cff:	00 

0000000000004d00 <_ZN11BuilderBaseIiiiLb1EE12CountDegreesERK7pvectorI8EdgePairIiiEEb._omp_fn.0>:
_ZN11BuilderBaseIiiiLb1EE12CountDegreesERK7pvectorI8EdgePairIiiEEb._omp_fn.0():
/home/aliha951/forked_gapbs/gapbs/src/builder.h:82
    return max_seen;
  }

  pvector<NodeID_> CountDegrees(const EdgeList &el, bool transpose) {
    pvector<NodeID_> degrees(num_nodes_, 0);
    #pragma omp parallel for
    4d00:	                   f3 0f 1e fa          	endbr64 
    4d04:	                   41 55                	push   %r13
    4d06:	                   41 54                	push   %r12
    4d08:	                   55                   	push   %rbp
    4d09:	                   53                   	push   %rbx
    4d0a:	                   48 83 ec 08          	sub    $0x8,%rsp
/home/aliha951/forked_gapbs/gapbs/src/builder.h:83
    for (auto it = el.begin(); it < el.end(); it++) {
    4d0e:	                   48 8b 47 08          	mov    0x8(%rdi),%rax
_ZNK7pvectorI8EdgePairIiiEE5beginEv():
/home/aliha951/forked_gapbs/gapbs/src/pvector.h:147
  }

  iterator begin() const {
    return start_;
    4d12:	                   4c 8b 20             	mov    (%rax),%r12
_ZNK7pvectorI8EdgePairIiiEE3endEv():
/home/aliha951/forked_gapbs/gapbs/src/pvector.h:151
  }

  iterator end() const {
    return end_size_;
    4d15:	                   4c 8b 68 08          	mov    0x8(%rax),%r13
    4d19:	                   4d 39 e5             	cmp    %r12,%r13
    4d1c:	/----------------- 0f 86 8a 00 00 00    	jbe    4dac <_ZN11BuilderBaseIiiiLb1EE12CountDegreesERK7pvectorI8EdgePairIiiEEb._omp_fn.0+0xac>
    4d22:	|                  48 89 fb             	mov    %rdi,%rbx
    4d25:	|                  e8 86 eb ff ff       	callq  38b0 <omp_get_num_threads@plt>
    4d2a:	|                  48 63 e8             	movslq %eax,%rbp
    4d2d:	|                  e8 be ea ff ff       	callq  37f0 <omp_get_thread_num@plt>
    4d32:	|                  48 63 c8             	movslq %eax,%rcx
    4d35:	|                  49 8d 45 07          	lea    0x7(%r13),%rax
    4d39:	|                  4c 29 e0             	sub    %r12,%rax
    4d3c:	|                  48 89 c2             	mov    %rax,%rdx
    4d3f:	|                  48 8d 40 07          	lea    0x7(%rax),%rax
    4d43:	|                  48 0f 49 c2          	cmovns %rdx,%rax
    4d47:	|                  48 c1 f8 03          	sar    $0x3,%rax
    4d4b:	|                  48 99                	cqto   
    4d4d:	|                  48 f7 fd             	idiv   %rbp
    4d50:	|                  48 39 d1             	cmp    %rdx,%rcx
    4d53:	|        /-------- 7c 6b                	jl     4dc0 <_ZN11BuilderBaseIiiiLb1EE12CountDegreesERK7pvectorI8EdgePairIiiEEb._omp_fn.0+0xc0>
    4d55:	|     /--|-------> 48 0f af c8          	imul   %rax,%rcx
    4d59:	|     |  |         48 01 ca             	add    %rcx,%rdx
    4d5c:	|     |  |         48 01 d0             	add    %rdx,%rax
    4d5f:	|     |  |         48 39 c2             	cmp    %rax,%rdx
    4d62:	+-----|--|-------- 7d 48                	jge    4dac <_ZN11BuilderBaseIiiiLb1EE12CountDegreesERK7pvectorI8EdgePairIiiEEb._omp_fn.0+0xac>
    4d64:	|     |  |         80 7b 18 00          	cmpb   $0x0,0x18(%rbx)
_ZN11BuilderBaseIiiiLb1EE12CountDegreesERK7pvectorI8EdgePairIiiEEb._omp_fn.0():
/home/aliha951/forked_gapbs/gapbs/src/builder.h:82
    #pragma omp parallel for
    4d68:	|     |  |         48 8b 3b             	mov    (%rbx),%rdi
    4d6b:	|     |  |         49 8d 14 d4          	lea    (%r12,%rdx,8),%rdx
    4d6f:	|     |  |         4d 8d 04 c4          	lea    (%r12,%rax,8),%r8
    4d73:	|  /--|--|-------- 75 53                	jne    4dc8 <_ZN11BuilderBaseIiiiLb1EE12CountDegreesERK7pvectorI8EdgePairIiiEEb._omp_fn.0+0xc8>
    4d75:	|  |  |  |         0f 1f 00             	nopl   (%rax)
_ZN7pvectorIiEixEm():
/home/aliha951/forked_gapbs/gapbs/src/pvector.h:116
    return start_[n];
    4d78:	|  |  |  |  /----> 48 8b 4b 10          	mov    0x10(%rbx),%rcx
_ZN11BuilderBaseIiiiLb1EE12CountDegreesERK7pvectorI8EdgePairIiiEEb._omp_fn.0():
/home/aliha951/forked_gapbs/gapbs/src/builder.h:84
      Edge e = *it;
    4d7c:	|  |  |  |  |      48 63 42 04          	movslq 0x4(%rdx),%rax
/home/aliha951/forked_gapbs/gapbs/src/builder.h:86
      if (symmetrize_ || (!symmetrize_ && !transpose))
        fetch_and_add(degrees[e.u], 1);
    4d80:	|  |  |  |  |      48 63 32             	movslq (%rdx),%rsi
_Z13fetch_and_addIiiET_RS0_T0_():
/home/aliha951/forked_gapbs/gapbs/src/platform_atomics.h:26
      return __sync_fetch_and_add(&x, inc);
    4d83:	|  |  |  |  |      48 8b 09             	mov    (%rcx),%rcx
    4d86:	|  |  |  |  |      f0 83 04 b1 01       	lock addl $0x1,(%rcx,%rsi,4)
_ZN11BuilderBaseIiiiLb1EE12CountDegreesERK7pvectorI8EdgePairIiiEEb._omp_fn.0():
/home/aliha951/forked_gapbs/gapbs/src/builder.h:87
      if ((symmetrize_ && !in_place_) || (!symmetrize_ && transpose))
    4d8b:	|  |  |  |  |      80 7f 08 00          	cmpb   $0x0,0x8(%rdi)
    4d8f:	|  |  |  |  |  /-- 74 12                	je     4da3 <_ZN11BuilderBaseIiiiLb1EE12CountDegreesERK7pvectorI8EdgePairIiiEEb._omp_fn.0+0xa3>
    4d91:	|  |  |  |  |  |   80 7f 0a 00          	cmpb   $0x0,0xa(%rdi)
    4d95:	|  |  |  |  |  +-- 75 0c                	jne    4da3 <_ZN11BuilderBaseIiiiLb1EE12CountDegreesERK7pvectorI8EdgePairIiiEEb._omp_fn.0+0xa3>
_ZN7pvectorIiEixEm():
/home/aliha951/forked_gapbs/gapbs/src/pvector.h:116
    4d97:	|  |  |  |  |  |   48 8b 4b 10          	mov    0x10(%rbx),%rcx
_Z13fetch_and_addIiiET_RS0_T0_():
/home/aliha951/forked_gapbs/gapbs/src/platform_atomics.h:26
    4d9b:	|  |  |  |  |  |   48 8b 09             	mov    (%rcx),%rcx
    4d9e:	|  |  |  |  |  |   f0 83 04 81 01       	lock addl $0x1,(%rcx,%rax,4)
    4da3:	|  |  |  |  |  \-> 48 83 c2 08          	add    $0x8,%rdx
    4da7:	|  |  |  |  |      49 39 d0             	cmp    %rdx,%r8
    4daa:	|  |  |  |  \----- 77 cc                	ja     4d78 <_ZN11BuilderBaseIiiiLb1EE12CountDegreesERK7pvectorI8EdgePairIiiEEb._omp_fn.0+0x78>
_ZN11BuilderBaseIiiiLb1EE12CountDegreesERK7pvectorI8EdgePairIiiEEb._omp_fn.0():
/home/aliha951/forked_gapbs/gapbs/src/builder.h:82
    #pragma omp parallel for
    4dac:	>--|--|--|-------> 48 83 c4 08          	add    $0x8,%rsp
    4db0:	|  |  |  |         5b                   	pop    %rbx
    4db1:	|  |  |  |         5d                   	pop    %rbp
    4db2:	|  |  |  |         41 5c                	pop    %r12
    4db4:	|  |  |  |         41 5d                	pop    %r13
    4db6:	|  |  |  |         c3                   	retq   
    4db7:	|  |  |  |         66 0f 1f 84 00 00 00 	nopw   0x0(%rax,%rax,1)
    4dbe:	00 00 
    4dc0:	|  |  |  \-------> 48 83 c0 01          	add    $0x1,%rax
_ZNK7pvectorI8EdgePairIiiEE3endEv():
/home/aliha951/forked_gapbs/gapbs/src/pvector.h:151
    return end_size_;
    4dc4:	|  |  |            31 d2                	xor    %edx,%edx
    4dc6:	|  |  \----------- eb 8d                	jmp    4d55 <_ZN11BuilderBaseIiiiLb1EE12CountDegreesERK7pvectorI8EdgePairIiiEEb._omp_fn.0+0x55>
_ZN11BuilderBaseIiiiLb1EE12CountDegreesERK7pvectorI8EdgePairIiiEEb._omp_fn.0():
/home/aliha951/forked_gapbs/gapbs/src/builder.h:85
      if (symmetrize_ || (!symmetrize_ && !transpose))
    4dc8:	|  >-------------> 80 7f 08 00          	cmpb   $0x0,0x8(%rdi)
/home/aliha951/forked_gapbs/gapbs/src/builder.h:84
      Edge e = *it;
    4dcc:	|  |               48 63 42 04          	movslq 0x4(%rdx),%rax
/home/aliha951/forked_gapbs/gapbs/src/builder.h:85
      if (symmetrize_ || (!symmetrize_ && !transpose))
    4dd0:	|  |        /----- 74 1b                	je     4ded <_ZN11BuilderBaseIiiiLb1EE12CountDegreesERK7pvectorI8EdgePairIiiEEb._omp_fn.0+0xed>
_ZN7pvectorIiEixEm():
/home/aliha951/forked_gapbs/gapbs/src/pvector.h:116
    return start_[n];
    4dd2:	|  |        |      48 8b 4b 10          	mov    0x10(%rbx),%rcx
_ZN11BuilderBaseIiiiLb1EE12CountDegreesERK7pvectorI8EdgePairIiiEEb._omp_fn.0():
/home/aliha951/forked_gapbs/gapbs/src/builder.h:86
        fetch_and_add(degrees[e.u], 1);
    4dd6:	|  |        |      48 63 32             	movslq (%rdx),%rsi
_Z13fetch_and_addIiiET_RS0_T0_():
/home/aliha951/forked_gapbs/gapbs/src/platform_atomics.h:26
    4dd9:	|  |        |      48 8b 09             	mov    (%rcx),%rcx
    4ddc:	|  |        |      f0 83 04 b1 01       	lock addl $0x1,(%rcx,%rsi,4)
_ZN11BuilderBaseIiiiLb1EE12CountDegreesERK7pvectorI8EdgePairIiiEEb._omp_fn.0():
/home/aliha951/forked_gapbs/gapbs/src/builder.h:87
      if ((symmetrize_ && !in_place_) || (!symmetrize_ && transpose))
    4de1:	|  |        |      80 7f 08 00          	cmpb   $0x0,0x8(%rdi)
    4de5:	|  |        +----- 74 06                	je     4ded <_ZN11BuilderBaseIiiiLb1EE12CountDegreesERK7pvectorI8EdgePairIiiEEb._omp_fn.0+0xed>
/home/aliha951/forked_gapbs/gapbs/src/builder.h:87 (discriminator 1)
    4de7:	|  |        |      80 7f 0a 00          	cmpb   $0x0,0xa(%rdi)
    4deb:	|  |        |  /-- 75 0c                	jne    4df9 <_ZN11BuilderBaseIiiiLb1EE12CountDegreesERK7pvectorI8EdgePairIiiEEb._omp_fn.0+0xf9>
_ZN7pvectorIiEixEm():
/home/aliha951/forked_gapbs/gapbs/src/pvector.h:116
    4ded:	|  |        \--|-> 48 8b 4b 10          	mov    0x10(%rbx),%rcx
_Z13fetch_and_addIiiET_RS0_T0_():
/home/aliha951/forked_gapbs/gapbs/src/platform_atomics.h:26
    4df1:	|  |           |   48 8b 09             	mov    (%rcx),%rcx
    4df4:	|  |           |   f0 83 04 81 01       	lock addl $0x1,(%rcx,%rax,4)
    4df9:	|  |           \-> 48 83 c2 08          	add    $0x8,%rdx
    4dfd:	|  |               49 39 d0             	cmp    %rdx,%r8
    4e00:	|  \-------------- 77 c6                	ja     4dc8 <_ZN11BuilderBaseIiiiLb1EE12CountDegreesERK7pvectorI8EdgePairIiiEEb._omp_fn.0+0xc8>
    4e02:	\----------------- eb a8                	jmp    4dac <_ZN11BuilderBaseIiiiLb1EE12CountDegreesERK7pvectorI8EdgePairIiiEEb._omp_fn.0+0xac>
_ZN11BuilderBaseIiiiLb1EE12CountDegreesERK7pvectorI8EdgePairIiiEEb._omp_fn.0():
/home/aliha951/forked_gapbs/gapbs/src/platform_atomics.h:26
    4e04:	                   66 66 2e 0f 1f 84 00 	data16 nopw %cs:0x0(%rax,%rax,1)
    4e0b:	00 00 00 00 
    4e0f:	                   90                   	nop

0000000000004e10 <_ZN11BuilderBaseIiiiLb1EE17ParallelPrefixSumERK7pvectorIiE._omp_fn.0>:
_ZN11BuilderBaseIiiiLb1EE17ParallelPrefixSumERK7pvectorIiE._omp_fn.0():
/home/aliha951/forked_gapbs/gapbs/src/builder.h:110
  static
  pvector<SGOffset> ParallelPrefixSum(const pvector<NodeID_> &degrees) {
    const size_t block_size = 1<<20;
    const size_t num_blocks = (degrees.size() + block_size - 1) / block_size;
    pvector<SGOffset> local_sums(num_blocks);
    #pragma omp parallel for
    4e10:	                         f3 0f 1e fa          	endbr64 
    4e14:	                         41 54                	push   %r12
    4e16:	                         55                   	push   %rbp
    4e17:	                         53                   	push   %rbx
    4e18:	                         48 8b 5f 08          	mov    0x8(%rdi),%rbx
    4e1c:	                         48 85 db             	test   %rbx,%rbx
    4e1f:	/----------------------- 0f 84 4d 01 00 00    	je     4f72 <_ZN11BuilderBaseIiiiLb1EE17ParallelPrefixSumERK7pvectorIiE._omp_fn.0+0x162>
    4e25:	|                        49 89 fc             	mov    %rdi,%r12
    4e28:	|                        e8 83 ea ff ff       	callq  38b0 <omp_get_num_threads@plt>
    4e2d:	|                        89 c5                	mov    %eax,%ebp
    4e2f:	|                        e8 bc e9 ff ff       	callq  37f0 <omp_get_thread_num@plt>
    4e34:	|                        48 63 cd             	movslq %ebp,%rcx
    4e37:	|                        31 d2                	xor    %edx,%edx
    4e39:	|                        48 63 f0             	movslq %eax,%rsi
    4e3c:	|                        48 89 d8             	mov    %rbx,%rax
    4e3f:	|                        48 f7 f1             	div    %rcx
    4e42:	|                        48 39 d6             	cmp    %rdx,%rsi
    4e45:	|     /----------------- 0f 82 3d 01 00 00    	jb     4f88 <_ZN11BuilderBaseIiiiLb1EE17ParallelPrefixSumERK7pvectorIiE._omp_fn.0+0x178>
    4e4b:	|  /--|----------------> 48 0f af f0          	imul   %rax,%rsi
    4e4f:	|  |  |                  48 01 d6             	add    %rdx,%rsi
    4e52:	|  |  |                  48 01 f0             	add    %rsi,%rax
    4e55:	|  |  |                  48 39 c6             	cmp    %rax,%rsi
    4e58:	+--|--|----------------- 0f 83 14 01 00 00    	jae    4f72 <_ZN11BuilderBaseIiiiLb1EE17ParallelPrefixSumERK7pvectorIiE._omp_fn.0+0x162>
/home/aliha951/forked_gapbs/gapbs/src/builder.h:113
    for (size_t block=0; block < num_blocks; block++) {
      SGOffset lsum = 0;
      size_t block_end = std::min((block + 1) * block_size, degrees.size());
    4e5e:	|  |  |                  49 8b 14 24          	mov    (%r12),%rdx
    4e62:	|  |  |                  49 89 f0             	mov    %rsi,%r8
/home/aliha951/forked_gapbs/gapbs/src/builder.h:115
      for (size_t i=block * block_size; i < block_end; i++)
        lsum += degrees[i];
    4e65:	|  |  |                  66 0f ef e4          	pxor   %xmm4,%xmm4
    4e69:	|  |  |                  49 c1 e0 14          	shl    $0x14,%r8
_ZNK7pvectorIiE4sizeEv():
/home/aliha951/forked_gapbs/gapbs/src/pvector.h:143
    return end_size_ - start_;
    4e6d:	|  |  |                  4c 8b 1a             	mov    (%rdx),%r11
    4e70:	|  |  |                  4c 8b 52 08          	mov    0x8(%rdx),%r10
_ZN7pvectorIlEixEm():
/home/aliha951/forked_gapbs/gapbs/src/pvector.h:116
    return start_[n];
    4e74:	|  |  |                  49 8b 54 24 10       	mov    0x10(%r12),%rdx
_ZNK7pvectorIiE4sizeEv():
/home/aliha951/forked_gapbs/gapbs/src/pvector.h:143
    return end_size_ - start_;
    4e79:	|  |  |                  4d 29 da             	sub    %r11,%r10
_ZN7pvectorIlEixEm():
/home/aliha951/forked_gapbs/gapbs/src/pvector.h:116
    return start_[n];
    4e7c:	|  |  |                  48 8b 12             	mov    (%rdx),%rdx
_ZNK7pvectorIiE4sizeEv():
/home/aliha951/forked_gapbs/gapbs/src/pvector.h:143
    return end_size_ - start_;
    4e7f:	|  |  |                  49 c1 fa 02          	sar    $0x2,%r10
    4e83:	|  |  |                  4c 8d 0c f2          	lea    (%rdx,%rsi,8),%r9
    4e87:	|  |  |                  48 c1 e6 16          	shl    $0x16,%rsi
    4e8b:	|  |  |                  48 8d 2c c2          	lea    (%rdx,%rax,8),%rbp
    4e8f:	|  |  |                  4c 01 de             	add    %r11,%rsi
    4e92:	|  |  |                  66 0f 1f 44 00 00    	nopw   0x0(%rax,%rax,1)
/home/aliha951/forked_gapbs/gapbs/src/pvector.h:142
  size_t size() const {
    4e98:	|  |  |  /-------------> 4c 89 c1             	mov    %r8,%rcx
_ZN11BuilderBaseIiiiLb1EE17ParallelPrefixSumERK7pvectorIiE._omp_fn.0():
/home/aliha951/forked_gapbs/gapbs/src/builder.h:113
      size_t block_end = std::min((block + 1) * block_size, degrees.size());
    4e9b:	|  |  |  |               49 81 c0 00 00 10 00 	add    $0x100000,%r8
    4ea2:	|  |  |  |               4c 89 d3             	mov    %r10,%rbx
    4ea5:	|  |  |  |               4d 39 d0             	cmp    %r10,%r8
    4ea8:	|  |  |  |               49 0f 46 d8          	cmovbe %r8,%rbx
/home/aliha951/forked_gapbs/gapbs/src/builder.h:114
      for (size_t i=block * block_size; i < block_end; i++)
    4eac:	|  |  |  |               48 39 cb             	cmp    %rcx,%rbx
    4eaf:	|  |  |  |  /----------- 0f 86 cb 00 00 00    	jbe    4f80 <_ZN11BuilderBaseIiiiLb1EE17ParallelPrefixSumERK7pvectorIiE._omp_fn.0+0x170>
    4eb5:	|  |  |  |  |            48 89 df             	mov    %rbx,%rdi
    4eb8:	|  |  |  |  |            48 29 cf             	sub    %rcx,%rdi
    4ebb:	|  |  |  |  |            48 8d 47 ff          	lea    -0x1(%rdi),%rax
    4ebf:	|  |  |  |  |            48 83 f8 02          	cmp    $0x2,%rax
    4ec3:	|  |  |  |  |  /-------- 0f 86 bb 00 00 00    	jbe    4f84 <_ZN11BuilderBaseIiiiLb1EE17ParallelPrefixSumERK7pvectorIiE._omp_fn.0+0x174>
    4ec9:	|  |  |  |  |  |         48 89 fa             	mov    %rdi,%rdx
    4ecc:	|  |  |  |  |  |         48 89 f0             	mov    %rsi,%rax
    4ecf:	|  |  |  |  |  |         66 0f ef c9          	pxor   %xmm1,%xmm1
    4ed3:	|  |  |  |  |  |         48 c1 ea 02          	shr    $0x2,%rdx
    4ed7:	|  |  |  |  |  |         48 c1 e2 04          	shl    $0x4,%rdx
    4edb:	|  |  |  |  |  |         48 01 f2             	add    %rsi,%rdx
    4ede:	|  |  |  |  |  |         66 90                	xchg   %ax,%ax
/home/aliha951/forked_gapbs/gapbs/src/builder.h:115 (discriminator 2)
        lsum += degrees[i];
    4ee0:	|  |  |  |  |  |     /-> f3 0f 6f 00          	movdqu (%rax),%xmm0
    4ee4:	|  |  |  |  |  |     |   66 0f 6f d4          	movdqa %xmm4,%xmm2
    4ee8:	|  |  |  |  |  |     |   48 83 c0 10          	add    $0x10,%rax
    4eec:	|  |  |  |  |  |     |   66 0f 66 d0          	pcmpgtd %xmm0,%xmm2
    4ef0:	|  |  |  |  |  |     |   66 0f 6f d8          	movdqa %xmm0,%xmm3
    4ef4:	|  |  |  |  |  |     |   66 0f 62 da          	punpckldq %xmm2,%xmm3
    4ef8:	|  |  |  |  |  |     |   66 0f 6a c2          	punpckhdq %xmm2,%xmm0
    4efc:	|  |  |  |  |  |     |   66 0f d4 cb          	paddq  %xmm3,%xmm1
    4f00:	|  |  |  |  |  |     |   66 0f d4 c8          	paddq  %xmm0,%xmm1
/home/aliha951/forked_gapbs/gapbs/src/builder.h:114 (discriminator 2)
      for (size_t i=block * block_size; i < block_end; i++)
    4f04:	|  |  |  |  |  |     |   48 39 d0             	cmp    %rdx,%rax
    4f07:	|  |  |  |  |  |     \-- 75 d7                	jne    4ee0 <_ZN11BuilderBaseIiiiLb1EE17ParallelPrefixSumERK7pvectorIiE._omp_fn.0+0xd0>
    4f09:	|  |  |  |  |  |         66 0f 6f c1          	movdqa %xmm1,%xmm0
    4f0d:	|  |  |  |  |  |         48 89 fa             	mov    %rdi,%rdx
    4f10:	|  |  |  |  |  |         66 0f 73 d8 08       	psrldq $0x8,%xmm0
    4f15:	|  |  |  |  |  |         48 83 e2 fc          	and    $0xfffffffffffffffc,%rdx
    4f19:	|  |  |  |  |  |         66 0f d4 c1          	paddq  %xmm1,%xmm0
    4f1d:	|  |  |  |  |  |         48 01 d1             	add    %rdx,%rcx
    4f20:	|  |  |  |  |  |         66 48 0f 7e c0       	movq   %xmm0,%rax
    4f25:	|  |  |  |  |  |         48 39 fa             	cmp    %rdi,%rdx
    4f28:	|  |  |  |  |  |     /-- 74 31                	je     4f5b <_ZN11BuilderBaseIiiiLb1EE17ParallelPrefixSumERK7pvectorIiE._omp_fn.0+0x14b>
/home/aliha951/forked_gapbs/gapbs/src/builder.h:115
        lsum += degrees[i];
    4f2a:	|  |  |  |  |  |  /--|-> 49 63 3c 8b          	movslq (%r11,%rcx,4),%rdi
_ZNK7pvectorIiEixEm():
/home/aliha951/forked_gapbs/gapbs/src/pvector.h:120
    return start_[n];
    4f2e:	|  |  |  |  |  |  |  |   48 8d 14 8d 00 00 00 	lea    0x0(,%rcx,4),%rdx
    4f35:	00 
_ZN11BuilderBaseIiiiLb1EE17ParallelPrefixSumERK7pvectorIiE._omp_fn.0():
/home/aliha951/forked_gapbs/gapbs/src/builder.h:115
    4f36:	|  |  |  |  |  |  |  |   48 01 f8             	add    %rdi,%rax
/home/aliha951/forked_gapbs/gapbs/src/builder.h:114
      for (size_t i=block * block_size; i < block_end; i++)
    4f39:	|  |  |  |  |  |  |  |   48 8d 79 01          	lea    0x1(%rcx),%rdi
    4f3d:	|  |  |  |  |  |  |  |   48 39 df             	cmp    %rbx,%rdi
    4f40:	|  |  |  |  |  |  |  +-- 73 19                	jae    4f5b <_ZN11BuilderBaseIiiiLb1EE17ParallelPrefixSumERK7pvectorIiE._omp_fn.0+0x14b>
/home/aliha951/forked_gapbs/gapbs/src/builder.h:115
        lsum += degrees[i];
    4f42:	|  |  |  |  |  |  |  |   49 63 7c 13 04       	movslq 0x4(%r11,%rdx,1),%rdi
/home/aliha951/forked_gapbs/gapbs/src/builder.h:114
      for (size_t i=block * block_size; i < block_end; i++)
    4f47:	|  |  |  |  |  |  |  |   48 83 c1 02          	add    $0x2,%rcx
/home/aliha951/forked_gapbs/gapbs/src/builder.h:115
        lsum += degrees[i];
    4f4b:	|  |  |  |  |  |  |  |   48 01 f8             	add    %rdi,%rax
/home/aliha951/forked_gapbs/gapbs/src/builder.h:114
      for (size_t i=block * block_size; i < block_end; i++)
    4f4e:	|  |  |  |  |  |  |  |   48 39 cb             	cmp    %rcx,%rbx
    4f51:	|  |  |  |  |  |  |  +-- 76 08                	jbe    4f5b <_ZN11BuilderBaseIiiiLb1EE17ParallelPrefixSumERK7pvectorIiE._omp_fn.0+0x14b>
/home/aliha951/forked_gapbs/gapbs/src/builder.h:115
        lsum += degrees[i];
    4f53:	|  |  |  |  |  |  |  |   49 63 54 13 08       	movslq 0x8(%r11,%rdx,1),%rdx
    4f58:	|  |  |  |  |  |  |  |   48 01 d0             	add    %rdx,%rax
/home/aliha951/forked_gapbs/gapbs/src/builder.h:116
      local_sums[block] = lsum;
    4f5b:	|  |  |  |  |  |  |  >-> 49 89 01             	mov    %rax,(%r9)
    4f5e:	|  |  |  |  |  |  |  |   49 83 c1 08          	add    $0x8,%r9
    4f62:	|  |  |  |  |  |  |  |   48 81 c6 00 00 40 00 	add    $0x400000,%rsi
    4f69:	|  |  |  |  |  |  |  |   49 39 e9             	cmp    %rbp,%r9
    4f6c:	|  |  |  \--|--|--|--|-- 0f 85 26 ff ff ff    	jne    4e98 <_ZN11BuilderBaseIiiiLb1EE17ParallelPrefixSumERK7pvectorIiE._omp_fn.0+0x88>
/home/aliha951/forked_gapbs/gapbs/src/builder.h:110
    #pragma omp parallel for
    4f72:	\--|--|-----|--|--|--|-> 5b                   	pop    %rbx
    4f73:	   |  |     |  |  |  |   5d                   	pop    %rbp
    4f74:	   |  |     |  |  |  |   41 5c                	pop    %r12
    4f76:	   |  |     |  |  |  |   c3                   	retq   
    4f77:	   |  |     |  |  |  |   66 0f 1f 84 00 00 00 	nopw   0x0(%rax,%rax,1)
    4f7e:	00 00 
/home/aliha951/forked_gapbs/gapbs/src/builder.h:112
      SGOffset lsum = 0;
    4f80:	   |  |     \--|--|--|-> 31 c0                	xor    %eax,%eax
    4f82:	   |  |        |  |  \-- eb d7                	jmp    4f5b <_ZN11BuilderBaseIiiiLb1EE17ParallelPrefixSumERK7pvectorIiE._omp_fn.0+0x14b>
    4f84:	   |  |        \--|----> 31 c0                	xor    %eax,%eax
    4f86:	   |  |           \----- eb a2                	jmp    4f2a <_ZN11BuilderBaseIiiiLb1EE17ParallelPrefixSumERK7pvectorIiE._omp_fn.0+0x11a>
    4f88:	   |  \----------------> 48 83 c0 01          	add    $0x1,%rax
/home/aliha951/forked_gapbs/gapbs/src/builder.h:110
    #pragma omp parallel for
    4f8c:	   |                     31 d2                	xor    %edx,%edx
    4f8e:	   \-------------------- e9 b8 fe ff ff       	jmpq   4e4b <_ZN11BuilderBaseIiiiLb1EE17ParallelPrefixSumERK7pvectorIiE._omp_fn.0+0x3b>
    4f93:	                         66 66 2e 0f 1f 84 00 	data16 nopw %cs:0x0(%rax,%rax,1)
    4f9a:	00 00 00 00 
    4f9e:	                         66 90                	xchg   %ax,%ax

0000000000004fa0 <_ZN11BuilderBaseIiiiLb1EE17ParallelPrefixSumERK7pvectorIiE._omp_fn.1>:
_ZN11BuilderBaseIiiiLb1EE17ParallelPrefixSumERK7pvectorIiE._omp_fn.1():
/home/aliha951/forked_gapbs/gapbs/src/builder.h:126
      bulk_prefix[block] = total;
      total += local_sums[block];
    }
    bulk_prefix[num_blocks] = total;
    pvector<SGOffset> prefix(degrees.size() + 1);
    #pragma omp parallel for
    4fa0:	                   f3 0f 1e fa          	endbr64 
    4fa4:	                   41 54                	push   %r12
    4fa6:	                   55                   	push   %rbp
    4fa7:	                   53                   	push   %rbx
    4fa8:	                   48 8b 5f 10          	mov    0x10(%rdi),%rbx
    4fac:	                   48 85 db             	test   %rbx,%rbx
    4faf:	/----------------- 0f 84 98 00 00 00    	je     504d <_ZN11BuilderBaseIiiiLb1EE17ParallelPrefixSumERK7pvectorIiE._omp_fn.1+0xad>
    4fb5:	|                  48 89 fd             	mov    %rdi,%rbp
    4fb8:	|                  e8 f3 e8 ff ff       	callq  38b0 <omp_get_num_threads@plt>
    4fbd:	|                  41 89 c4             	mov    %eax,%r12d
    4fc0:	|                  e8 2b e8 ff ff       	callq  37f0 <omp_get_thread_num@plt>
    4fc5:	|                  49 63 cc             	movslq %r12d,%rcx
    4fc8:	|                  31 d2                	xor    %edx,%edx
    4fca:	|                  4c 63 c8             	movslq %eax,%r9
    4fcd:	|                  48 89 d8             	mov    %rbx,%rax
    4fd0:	|                  48 f7 f1             	div    %rcx
    4fd3:	|                  49 39 d1             	cmp    %rdx,%r9
    4fd6:	|     /----------- 72 7a                	jb     5052 <_ZN11BuilderBaseIiiiLb1EE17ParallelPrefixSumERK7pvectorIiE._omp_fn.1+0xb2>
    4fd8:	|  /--|----------> 4c 0f af c8          	imul   %rax,%r9
    4fdc:	|  |  |            49 01 d1             	add    %rdx,%r9
    4fdf:	|  |  |            4c 01 c8             	add    %r9,%rax
    4fe2:	|  |  |            49 39 c1             	cmp    %rax,%r9
    4fe5:	+--|--|----------- 73 66                	jae    504d <_ZN11BuilderBaseIiiiLb1EE17ParallelPrefixSumERK7pvectorIiE._omp_fn.1+0xad>
/home/aliha951/forked_gapbs/gapbs/src/builder.h:129
    for (size_t block=0; block < num_blocks; block++) {
      SGOffset local_total = bulk_prefix[block];
      size_t block_end = std::min((block + 1) * block_size, degrees.size());
    4fe7:	|  |  |            48 8b 4d 00          	mov    0x0(%rbp),%rcx
_ZN7pvectorIlEixEm():
/home/aliha951/forked_gapbs/gapbs/src/pvector.h:116
    return start_[n];
    4feb:	|  |  |            48 8b 55 18          	mov    0x18(%rbp),%rdx
_ZN11BuilderBaseIiiiLb1EE17ParallelPrefixSumERK7pvectorIiE._omp_fn.1():
/home/aliha951/forked_gapbs/gapbs/src/builder.h:131
      for (size_t i=block * block_size; i < block_end; i++) {
        prefix[i] = local_total;
    4fef:	|  |  |            48 8b 6d 08          	mov    0x8(%rbp),%rbp
_ZNK7pvectorIiE4sizeEv():
/home/aliha951/forked_gapbs/gapbs/src/pvector.h:143
    return end_size_ - start_;
    4ff3:	|  |  |            4c 8b 01             	mov    (%rcx),%r8
    4ff6:	|  |  |            4c 8b 59 08          	mov    0x8(%rcx),%r11
_ZN7pvectorIlEixEm():
/home/aliha951/forked_gapbs/gapbs/src/pvector.h:116
    return start_[n];
    4ffa:	|  |  |            48 8b 12             	mov    (%rdx),%rdx
_ZNK7pvectorIiE4sizeEv():
/home/aliha951/forked_gapbs/gapbs/src/pvector.h:143
    return end_size_ - start_;
    4ffd:	|  |  |            4d 29 c3             	sub    %r8,%r11
    5000:	|  |  |            4e 8d 14 ca          	lea    (%rdx,%r9,8),%r10
    5004:	|  |  |            49 c1 fb 02          	sar    $0x2,%r11
    5008:	|  |  |            49 c1 e1 14          	shl    $0x14,%r9
    500c:	|  |  |            48 8d 1c c2          	lea    (%rdx,%rax,8),%rbx
_ZN7pvectorIlEixEm():
/home/aliha951/forked_gapbs/gapbs/src/pvector.h:115
  T_& operator[](size_t n) {
    5010:	|  |  |  /-------> 4c 89 c8             	mov    %r9,%rax
_ZN11BuilderBaseIiiiLb1EE17ParallelPrefixSumERK7pvectorIiE._omp_fn.1():
/home/aliha951/forked_gapbs/gapbs/src/builder.h:129
      size_t block_end = std::min((block + 1) * block_size, degrees.size());
    5013:	|  |  |  |         49 81 c1 00 00 10 00 	add    $0x100000,%r9
    501a:	|  |  |  |         4c 89 de             	mov    %r11,%rsi
/home/aliha951/forked_gapbs/gapbs/src/builder.h:128
      SGOffset local_total = bulk_prefix[block];
    501d:	|  |  |  |         49 8b 12             	mov    (%r10),%rdx
_ZNK7pvectorIiE4sizeEv():
/home/aliha951/forked_gapbs/gapbs/src/pvector.h:142
  size_t size() const {
    5020:	|  |  |  |         4d 39 d9             	cmp    %r11,%r9
    5023:	|  |  |  |         49 0f 46 f1          	cmovbe %r9,%rsi
_ZN11BuilderBaseIiiiLb1EE17ParallelPrefixSumERK7pvectorIiE._omp_fn.1():
/home/aliha951/forked_gapbs/gapbs/src/builder.h:130
      for (size_t i=block * block_size; i < block_end; i++) {
    5027:	|  |  |  |         48 39 c6             	cmp    %rax,%rsi
    502a:	|  |  |  |  /----- 76 18                	jbe    5044 <_ZN11BuilderBaseIiiiLb1EE17ParallelPrefixSumERK7pvectorIiE._omp_fn.1+0xa4>
_ZN7pvectorIlEixEm():
/home/aliha951/forked_gapbs/gapbs/src/pvector.h:116
    return start_[n];
    502c:	|  |  |  |  |      48 8b 7d 00          	mov    0x0(%rbp),%rdi
_ZN11BuilderBaseIiiiLb1EE17ParallelPrefixSumERK7pvectorIiE._omp_fn.1():
/home/aliha951/forked_gapbs/gapbs/src/builder.h:132 (discriminator 2)
        local_total += degrees[i];
    5030:	|  |  |  |  |  /-> 49 63 0c 80          	movslq (%r8,%rax,4),%rcx
/home/aliha951/forked_gapbs/gapbs/src/builder.h:131 (discriminator 2)
        prefix[i] = local_total;
    5034:	|  |  |  |  |  |   48 89 14 c7          	mov    %rdx,(%rdi,%rax,8)
/home/aliha951/forked_gapbs/gapbs/src/builder.h:130 (discriminator 2)
      for (size_t i=block * block_size; i < block_end; i++) {
    5038:	|  |  |  |  |  |   48 83 c0 01          	add    $0x1,%rax
/home/aliha951/forked_gapbs/gapbs/src/builder.h:132 (discriminator 2)
        local_total += degrees[i];
    503c:	|  |  |  |  |  |   48 01 ca             	add    %rcx,%rdx
/home/aliha951/forked_gapbs/gapbs/src/builder.h:130 (discriminator 2)
      for (size_t i=block * block_size; i < block_end; i++) {
    503f:	|  |  |  |  |  |   48 39 c6             	cmp    %rax,%rsi
    5042:	|  |  |  |  |  \-- 75 ec                	jne    5030 <_ZN11BuilderBaseIiiiLb1EE17ParallelPrefixSumERK7pvectorIiE._omp_fn.1+0x90>
    5044:	|  |  |  |  \----> 49 83 c2 08          	add    $0x8,%r10
    5048:	|  |  |  |         49 39 da             	cmp    %rbx,%r10
    504b:	|  |  |  \-------- 75 c3                	jne    5010 <_ZN11BuilderBaseIiiiLb1EE17ParallelPrefixSumERK7pvectorIiE._omp_fn.1+0x70>
/home/aliha951/forked_gapbs/gapbs/src/builder.h:126
    #pragma omp parallel for
    504d:	\--|--|----------> 5b                   	pop    %rbx
    504e:	   |  |            5d                   	pop    %rbp
    504f:	   |  |            41 5c                	pop    %r12
    5051:	   |  |            c3                   	retq   
    5052:	   |  \----------> 48 83 c0 01          	add    $0x1,%rax
    5056:	   |               31 d2                	xor    %edx,%edx
    5058:	   \-------------- e9 7b ff ff ff       	jmpq   4fd8 <_ZN11BuilderBaseIiiiLb1EE17ParallelPrefixSumERK7pvectorIiE._omp_fn.1+0x38>
    505d:	                   0f 1f 00             	nopl   (%rax)

0000000000005060 <_ZSt13__adjust_heapIPiliN9__gnu_cxx5__ops15_Iter_less_iterEEvT_T0_S5_T1_T2_.isra.0>:
_ZSt13__adjust_heapIPiliN9__gnu_cxx5__ops15_Iter_less_iterEEvT_T0_S5_T1_T2_():
/usr/include/c++/10/bits/stl_heap.h:228
    __adjust_heap(_RandomAccessIterator __first, _Distance __holeIndex,
		  _Distance __len, _Tp __value, _Compare __comp)
    {
      const _Distance __topIndex = __holeIndex;
      _Distance __secondChild = __holeIndex;
      while (__secondChild < (__len - 1) / 2)
    5060:	                      48 8d 42 ff          	lea    -0x1(%rdx),%rax
/usr/include/c++/10/bits/stl_heap.h:223
    __adjust_heap(_RandomAccessIterator __first, _Distance __holeIndex,
    5064:	                      55                   	push   %rbp
/usr/include/c++/10/bits/stl_heap.h:237
		     __first + (__secondChild - 1)))
	    __secondChild--;
	  *(__first + __holeIndex) = _GLIBCXX_MOVE(*(__first + __secondChild));
	  __holeIndex = __secondChild;
	}
      if ((__len & 1) == 0 && __secondChild == (__len - 2) / 2)
    5065:	                      48 89 d5             	mov    %rdx,%rbp
/usr/include/c++/10/bits/stl_heap.h:223
    __adjust_heap(_RandomAccessIterator __first, _Distance __holeIndex,
    5068:	                      49 89 f0             	mov    %rsi,%r8
/usr/include/c++/10/bits/stl_heap.h:228
      while (__secondChild < (__len - 1) / 2)
    506b:	                      49 89 c3             	mov    %rax,%r11
/usr/include/c++/10/bits/stl_heap.h:223
    __adjust_heap(_RandomAccessIterator __first, _Distance __holeIndex,
    506e:	                      53                   	push   %rbx
    506f:	                      41 89 c9             	mov    %ecx,%r9d
    5072:	                      48 89 d3             	mov    %rdx,%rbx
/usr/include/c++/10/bits/stl_heap.h:228
      while (__secondChild < (__len - 1) / 2)
    5075:	                      49 c1 eb 3f          	shr    $0x3f,%r11
/usr/include/c++/10/bits/stl_heap.h:237
      if ((__len & 1) == 0 && __secondChild == (__len - 2) / 2)
    5079:	                      83 e5 01             	and    $0x1,%ebp
/usr/include/c++/10/bits/stl_heap.h:228
      while (__secondChild < (__len - 1) / 2)
    507c:	                      49 01 c3             	add    %rax,%r11
    507f:	                      49 d1 fb             	sar    %r11
    5082:	                      4c 39 de             	cmp    %r11,%rsi
    5085:	                  /-- 7c 1e                	jl     50a5 <_ZSt13__adjust_heapIPiliN9__gnu_cxx5__ops15_Iter_less_iterEEvT_T0_S5_T1_T2_.isra.0+0x45>
    5087:	/-----------------|-- e9 94 00 00 00       	jmpq   5120 <_ZSt13__adjust_heapIPiliN9__gnu_cxx5__ops15_Iter_less_iterEEvT_T0_S5_T1_T2_.isra.0+0xc0>
    508c:	|                 |   0f 1f 40 00          	nopl   0x0(%rax)
/usr/include/c++/10/bits/stl_heap.h:233
	    __secondChild--;
    5090:	|        /--------|-> 48 83 e8 01          	sub    $0x1,%rax
/usr/include/c++/10/bits/stl_heap.h:234
	  *(__first + __holeIndex) = _GLIBCXX_MOVE(*(__first + __secondChild));
    5094:	|        |        |   48 8d 0c 87          	lea    (%rdi,%rax,4),%rcx
    5098:	|        |        |   8b 11                	mov    (%rcx),%edx
    509a:	|        |        |   89 14 b7             	mov    %edx,(%rdi,%rsi,4)
/usr/include/c++/10/bits/stl_heap.h:228
      while (__secondChild < (__len - 1) / 2)
    509d:	|        |        |   4c 39 d8             	cmp    %r11,%rax
    50a0:	|        |  /-----|-- 7d 26                	jge    50c8 <_ZSt13__adjust_heapIPiliN9__gnu_cxx5__ops15_Iter_less_iterEEvT_T0_S5_T1_T2_.isra.0+0x68>
/usr/include/c++/10/bits/stl_heap.h:223
    __adjust_heap(_RandomAccessIterator __first, _Distance __holeIndex,
    50a2:	|        |  |  /--|-> 48 89 c6             	mov    %rax,%rsi
/usr/include/c++/10/bits/stl_heap.h:230
	  __secondChild = 2 * (__secondChild + 1);
    50a5:	|        |  |  |  \-> 48 8d 56 01          	lea    0x1(%rsi),%rdx
    50a9:	|        |  |  |      48 8d 04 12          	lea    (%rdx,%rdx,1),%rax
/usr/include/c++/10/bits/stl_heap.h:232
		     __first + (__secondChild - 1)))
    50ad:	|        |  |  |      48 c1 e2 03          	shl    $0x3,%rdx
/usr/include/c++/10/bits/stl_heap.h:231
	  if (__comp(__first + __secondChild,
    50b1:	|        |  |  |      48 8d 0c 17          	lea    (%rdi,%rdx,1),%rcx
_ZNK9__gnu_cxx5__ops15_Iter_less_iterclIPiS3_EEbT_T0_():
/usr/include/c++/10/bits/predefined_ops.h:43
  {
    template<typename _Iterator1, typename _Iterator2>
      _GLIBCXX14_CONSTEXPR
      bool
      operator()(_Iterator1 __it1, _Iterator2 __it2) const
      { return *__it1 < *__it2; }
    50b5:	|        |  |  |      44 8b 11             	mov    (%rcx),%r10d
_ZSt13__adjust_heapIPiliN9__gnu_cxx5__ops15_Iter_less_iterEEvT_T0_S5_T1_T2_():
/usr/include/c++/10/bits/stl_heap.h:231
    50b8:	|        |  |  |      44 3b 54 17 fc       	cmp    -0x4(%rdi,%rdx,1),%r10d
    50bd:	|        \--|--|----- 7c d1                	jl     5090 <_ZSt13__adjust_heapIPiliN9__gnu_cxx5__ops15_Iter_less_iterEEvT_T0_S5_T1_T2_.isra.0+0x30>
/usr/include/c++/10/bits/stl_heap.h:234
	  *(__first + __holeIndex) = _GLIBCXX_MOVE(*(__first + __secondChild));
    50bf:	|           |  |      44 89 14 b7          	mov    %r10d,(%rdi,%rsi,4)
/usr/include/c++/10/bits/stl_heap.h:228
      while (__secondChild < (__len - 1) / 2)
    50c3:	|           |  |      4c 39 d8             	cmp    %r11,%rax
    50c6:	|           |  \----- 7c da                	jl     50a2 <_ZSt13__adjust_heapIPiliN9__gnu_cxx5__ops15_Iter_less_iterEEvT_T0_S5_T1_T2_.isra.0+0x42>
/usr/include/c++/10/bits/stl_heap.h:237
      if ((__len & 1) == 0 && __secondChild == (__len - 2) / 2)
    50c8:	|           \-------> 48 85 ed             	test   %rbp,%rbp
    50cb:	|     /-------------- 74 63                	je     5130 <_ZSt13__adjust_heapIPiliN9__gnu_cxx5__ops15_Iter_less_iterEEvT_T0_S5_T1_T2_.isra.0+0xd0>
_ZSt11__push_heapIPiliN9__gnu_cxx5__ops14_Iter_less_valEEvT_T0_S5_T1_RT2_():
/usr/include/c++/10/bits/stl_heap.h:138
      _Distance __parent = (__holeIndex - 1) / 2;
    50cd:	|  /--|-------------> 48 8d 50 ff          	lea    -0x1(%rax),%rdx
    50d1:	|  |  |               48 89 d6             	mov    %rdx,%rsi
    50d4:	|  |  |               48 c1 ee 3f          	shr    $0x3f,%rsi
    50d8:	|  |  |               48 01 d6             	add    %rdx,%rsi
    50db:	|  |  |               48 d1 fe             	sar    %rsi
/usr/include/c++/10/bits/stl_heap.h:139
      while (__holeIndex > __topIndex && __comp(__first + __parent, __value))
    50de:	|  |  |               4c 39 c0             	cmp    %r8,%rax
    50e1:	|  |  |           /-- 7f 26                	jg     5109 <_ZSt13__adjust_heapIPiliN9__gnu_cxx5__ops15_Iter_less_iterEEvT_T0_S5_T1_T2_.isra.0+0xa9>
    50e3:	|  |  |     /-----|-- eb 34                	jmp    5119 <_ZSt13__adjust_heapIPiliN9__gnu_cxx5__ops15_Iter_less_iterEEvT_T0_S5_T1_T2_.isra.0+0xb9>
    50e5:	|  |  |     |     |   0f 1f 00             	nopl   (%rax)
/usr/include/c++/10/bits/stl_heap.h:141
	  *(__first + __holeIndex) = _GLIBCXX_MOVE(*(__first + __parent));
    50e8:	|  |  |     |  /--|-> 89 11                	mov    %edx,(%rcx)
/usr/include/c++/10/bits/stl_heap.h:143
	  __parent = (__holeIndex - 1) / 2;
    50ea:	|  |  |     |  |  |   48 8d 56 ff          	lea    -0x1(%rsi),%rdx
    50ee:	|  |  |     |  |  |   48 89 d0             	mov    %rdx,%rax
    50f1:	|  |  |     |  |  |   48 c1 e8 3f          	shr    $0x3f,%rax
    50f5:	|  |  |     |  |  |   48 01 d0             	add    %rdx,%rax
    50f8:	|  |  |     |  |  |   48 d1 f8             	sar    %rax
    50fb:	|  |  |     |  |  |   48 89 c2             	mov    %rax,%rdx
/usr/include/c++/10/bits/stl_heap.h:139
      while (__holeIndex > __topIndex && __comp(__first + __parent, __value))
    50fe:	|  |  |     |  |  |   48 89 f0             	mov    %rsi,%rax
    5101:	|  |  |     |  |  |   49 39 f0             	cmp    %rsi,%r8
    5104:	|  |  |  /--|--|--|-- 7d 5a                	jge    5160 <_ZSt13__adjust_heapIPiliN9__gnu_cxx5__ops15_Iter_less_iterEEvT_T0_S5_T1_T2_.isra.0+0x100>
/usr/include/c++/10/bits/stl_heap.h:143
	  __parent = (__holeIndex - 1) / 2;
    5106:	|  |  |  |  |  |  |   48 89 d6             	mov    %rdx,%rsi
/usr/include/c++/10/bits/stl_heap.h:139
      while (__holeIndex > __topIndex && __comp(__first + __parent, __value))
    5109:	|  |  |  |  |  |  \-> 4c 8d 14 b7          	lea    (%rdi,%rsi,4),%r10
/usr/include/c++/10/bits/stl_heap.h:141
	  *(__first + __holeIndex) = _GLIBCXX_MOVE(*(__first + __parent));
    510d:	|  |  |  |  |  |      48 8d 0c 87          	lea    (%rdi,%rax,4),%rcx
_ZNK9__gnu_cxx5__ops14_Iter_less_valclIPiiEEbT_RT0_():
/usr/include/c++/10/bits/predefined_ops.h:67

    template<typename _Iterator, typename _Value>
      _GLIBCXX20_CONSTEXPR
      bool
      operator()(_Iterator __it, _Value& __val) const
      { return *__it < __val; }
    5111:	|  |  |  |  |  |      41 8b 12             	mov    (%r10),%edx
_ZSt11__push_heapIPiliN9__gnu_cxx5__ops14_Iter_less_valEEvT_T0_S5_T1_RT2_():
/usr/include/c++/10/bits/stl_heap.h:139
      while (__holeIndex > __topIndex && __comp(__first + __parent, __value))
    5114:	|  |  |  |  |  |      44 39 ca             	cmp    %r9d,%edx
    5117:	|  |  |  |  |  \----- 7c cf                	jl     50e8 <_ZSt13__adjust_heapIPiliN9__gnu_cxx5__ops15_Iter_less_iterEEvT_T0_S5_T1_T2_.isra.0+0x88>
/usr/include/c++/10/bits/stl_heap.h:145
      *(__first + __holeIndex) = _GLIBCXX_MOVE(__value);
    5119:	|  |  |  |  >-------> 44 89 09             	mov    %r9d,(%rcx)
_ZSt13__adjust_heapIPiliN9__gnu_cxx5__ops15_Iter_less_iterEEvT_T0_S5_T1_T2_():
/usr/include/c++/10/bits/stl_heap.h:248
	}
      __decltype(__gnu_cxx::__ops::__iter_comp_val(_GLIBCXX_MOVE(__comp)))
	__cmp(_GLIBCXX_MOVE(__comp));
      std::__push_heap(__first, __holeIndex, __topIndex,
		       _GLIBCXX_MOVE(__value), __cmp);
    }
    511c:	|  |  |  |  |         5b                   	pop    %rbx
