
cc:     file format elf64-x86-64


Disassembly of section .init:

0000000000003000 <_init>:
_init():
    3000:	    f3 0f 1e fa          	endbr64 
    3004:	    48 83 ec 08          	sub    $0x8,%rsp
    3008:	    48 8b 05 d9 3f 01 00 	mov    0x13fd9(%rip),%rax        # 16fe8 <__gmon_start__>
    300f:	    48 85 c0             	test   %rax,%rax
    3012:	/-- 74 02                	je     3016 <_init+0x16>
    3014:	|   ff d0                	callq  *%rax
    3016:	\-> 48 83 c4 08          	add    $0x8,%rsp
    301a:	    c3                   	retq   

Disassembly of section .plt:

0000000000003020 <.plt>:
    3020:	/-> ff 35 4a 3d 01 00    	pushq  0x13d4a(%rip)        # 16d70 <_GLOBAL_OFFSET_TABLE_+0x8>
    3026:	|   f2 ff 25 4b 3d 01 00 	bnd jmpq *0x13d4b(%rip)        # 16d78 <_GLOBAL_OFFSET_TABLE_+0x10>
    302d:	|   0f 1f 00             	nopl   (%rax)
    3030:	|   f3 0f 1e fa          	endbr64 
    3034:	|   68 00 00 00 00       	pushq  $0x0
    3039:	+-- f2 e9 e1 ff ff ff    	bnd jmpq 3020 <.plt>
    303f:	|   90                   	nop
    3040:	|   f3 0f 1e fa          	endbr64 
    3044:	|   68 01 00 00 00       	pushq  $0x1
    3049:	+-- f2 e9 d1 ff ff ff    	bnd jmpq 3020 <.plt>
    304f:	|   90                   	nop
    3050:	|   f3 0f 1e fa          	endbr64 
    3054:	|   68 02 00 00 00       	pushq  $0x2
    3059:	+-- f2 e9 c1 ff ff ff    	bnd jmpq 3020 <.plt>
    305f:	|   90                   	nop
    3060:	|   f3 0f 1e fa          	endbr64 
    3064:	|   68 03 00 00 00       	pushq  $0x3
    3069:	+-- f2 e9 b1 ff ff ff    	bnd jmpq 3020 <.plt>
    306f:	|   90                   	nop
    3070:	|   f3 0f 1e fa          	endbr64 
    3074:	|   68 04 00 00 00       	pushq  $0x4
    3079:	+-- f2 e9 a1 ff ff ff    	bnd jmpq 3020 <.plt>
    307f:	|   90                   	nop
    3080:	|   f3 0f 1e fa          	endbr64 
    3084:	|   68 05 00 00 00       	pushq  $0x5
    3089:	+-- f2 e9 91 ff ff ff    	bnd jmpq 3020 <.plt>
    308f:	|   90                   	nop
    3090:	|   f3 0f 1e fa          	endbr64 
    3094:	|   68 06 00 00 00       	pushq  $0x6
    3099:	+-- f2 e9 81 ff ff ff    	bnd jmpq 3020 <.plt>
    309f:	|   90                   	nop
    30a0:	|   f3 0f 1e fa          	endbr64 
    30a4:	|   68 07 00 00 00       	pushq  $0x7
    30a9:	+-- f2 e9 71 ff ff ff    	bnd jmpq 3020 <.plt>
    30af:	|   90                   	nop
    30b0:	|   f3 0f 1e fa          	endbr64 
    30b4:	|   68 08 00 00 00       	pushq  $0x8
    30b9:	+-- f2 e9 61 ff ff ff    	bnd jmpq 3020 <.plt>
    30bf:	|   90                   	nop
    30c0:	|   f3 0f 1e fa          	endbr64 
    30c4:	|   68 09 00 00 00       	pushq  $0x9
    30c9:	+-- f2 e9 51 ff ff ff    	bnd jmpq 3020 <.plt>
    30cf:	|   90                   	nop
    30d0:	|   f3 0f 1e fa          	endbr64 
    30d4:	|   68 0a 00 00 00       	pushq  $0xa
    30d9:	+-- f2 e9 41 ff ff ff    	bnd jmpq 3020 <.plt>
    30df:	|   90                   	nop
    30e0:	|   f3 0f 1e fa          	endbr64 
    30e4:	|   68 0b 00 00 00       	pushq  $0xb
    30e9:	+-- f2 e9 31 ff ff ff    	bnd jmpq 3020 <.plt>
    30ef:	|   90                   	nop
    30f0:	|   f3 0f 1e fa          	endbr64 
    30f4:	|   68 0c 00 00 00       	pushq  $0xc
    30f9:	+-- f2 e9 21 ff ff ff    	bnd jmpq 3020 <.plt>
    30ff:	|   90                   	nop
    3100:	|   f3 0f 1e fa          	endbr64 
    3104:	|   68 0d 00 00 00       	pushq  $0xd
    3109:	+-- f2 e9 11 ff ff ff    	bnd jmpq 3020 <.plt>
    310f:	|   90                   	nop
    3110:	|   f3 0f 1e fa          	endbr64 
    3114:	|   68 0e 00 00 00       	pushq  $0xe
    3119:	+-- f2 e9 01 ff ff ff    	bnd jmpq 3020 <.plt>
    311f:	|   90                   	nop
    3120:	|   f3 0f 1e fa          	endbr64 
    3124:	|   68 0f 00 00 00       	pushq  $0xf
    3129:	+-- f2 e9 f1 fe ff ff    	bnd jmpq 3020 <.plt>
    312f:	|   90                   	nop
    3130:	|   f3 0f 1e fa          	endbr64 
    3134:	|   68 10 00 00 00       	pushq  $0x10
    3139:	+-- f2 e9 e1 fe ff ff    	bnd jmpq 3020 <.plt>
    313f:	|   90                   	nop
    3140:	|   f3 0f 1e fa          	endbr64 
    3144:	|   68 11 00 00 00       	pushq  $0x11
    3149:	+-- f2 e9 d1 fe ff ff    	bnd jmpq 3020 <.plt>
    314f:	|   90                   	nop
    3150:	|   f3 0f 1e fa          	endbr64 
    3154:	|   68 12 00 00 00       	pushq  $0x12
    3159:	+-- f2 e9 c1 fe ff ff    	bnd jmpq 3020 <.plt>
    315f:	|   90                   	nop
    3160:	|   f3 0f 1e fa          	endbr64 
    3164:	|   68 13 00 00 00       	pushq  $0x13
    3169:	+-- f2 e9 b1 fe ff ff    	bnd jmpq 3020 <.plt>
    316f:	|   90                   	nop
    3170:	|   f3 0f 1e fa          	endbr64 
    3174:	|   68 14 00 00 00       	pushq  $0x14
    3179:	+-- f2 e9 a1 fe ff ff    	bnd jmpq 3020 <.plt>
    317f:	|   90                   	nop
    3180:	|   f3 0f 1e fa          	endbr64 
    3184:	|   68 15 00 00 00       	pushq  $0x15
    3189:	+-- f2 e9 91 fe ff ff    	bnd jmpq 3020 <.plt>
    318f:	|   90                   	nop
    3190:	|   f3 0f 1e fa          	endbr64 
    3194:	|   68 16 00 00 00       	pushq  $0x16
    3199:	+-- f2 e9 81 fe ff ff    	bnd jmpq 3020 <.plt>
    319f:	|   90                   	nop
    31a0:	|   f3 0f 1e fa          	endbr64 
    31a4:	|   68 17 00 00 00       	pushq  $0x17
    31a9:	+-- f2 e9 71 fe ff ff    	bnd jmpq 3020 <.plt>
    31af:	|   90                   	nop
    31b0:	|   f3 0f 1e fa          	endbr64 
    31b4:	|   68 18 00 00 00       	pushq  $0x18
    31b9:	+-- f2 e9 61 fe ff ff    	bnd jmpq 3020 <.plt>
    31bf:	|   90                   	nop
    31c0:	|   f3 0f 1e fa          	endbr64 
    31c4:	|   68 19 00 00 00       	pushq  $0x19
    31c9:	+-- f2 e9 51 fe ff ff    	bnd jmpq 3020 <.plt>
    31cf:	|   90                   	nop
    31d0:	|   f3 0f 1e fa          	endbr64 
    31d4:	|   68 1a 00 00 00       	pushq  $0x1a
    31d9:	+-- f2 e9 41 fe ff ff    	bnd jmpq 3020 <.plt>
    31df:	|   90                   	nop
    31e0:	|   f3 0f 1e fa          	endbr64 
    31e4:	|   68 1b 00 00 00       	pushq  $0x1b
    31e9:	+-- f2 e9 31 fe ff ff    	bnd jmpq 3020 <.plt>
    31ef:	|   90                   	nop
    31f0:	|   f3 0f 1e fa          	endbr64 
    31f4:	|   68 1c 00 00 00       	pushq  $0x1c
    31f9:	+-- f2 e9 21 fe ff ff    	bnd jmpq 3020 <.plt>
    31ff:	|   90                   	nop
    3200:	|   f3 0f 1e fa          	endbr64 
    3204:	|   68 1d 00 00 00       	pushq  $0x1d
    3209:	+-- f2 e9 11 fe ff ff    	bnd jmpq 3020 <.plt>
    320f:	|   90                   	nop
    3210:	|   f3 0f 1e fa          	endbr64 
    3214:	|   68 1e 00 00 00       	pushq  $0x1e
    3219:	+-- f2 e9 01 fe ff ff    	bnd jmpq 3020 <.plt>
    321f:	|   90                   	nop
    3220:	|   f3 0f 1e fa          	endbr64 
    3224:	|   68 1f 00 00 00       	pushq  $0x1f
    3229:	+-- f2 e9 f1 fd ff ff    	bnd jmpq 3020 <.plt>
    322f:	|   90                   	nop
    3230:	|   f3 0f 1e fa          	endbr64 
    3234:	|   68 20 00 00 00       	pushq  $0x20
    3239:	+-- f2 e9 e1 fd ff ff    	bnd jmpq 3020 <.plt>
    323f:	|   90                   	nop
    3240:	|   f3 0f 1e fa          	endbr64 
    3244:	|   68 21 00 00 00       	pushq  $0x21
    3249:	+-- f2 e9 d1 fd ff ff    	bnd jmpq 3020 <.plt>
    324f:	|   90                   	nop
    3250:	|   f3 0f 1e fa          	endbr64 
    3254:	|   68 22 00 00 00       	pushq  $0x22
    3259:	+-- f2 e9 c1 fd ff ff    	bnd jmpq 3020 <.plt>
    325f:	|   90                   	nop
    3260:	|   f3 0f 1e fa          	endbr64 
    3264:	|   68 23 00 00 00       	pushq  $0x23
    3269:	+-- f2 e9 b1 fd ff ff    	bnd jmpq 3020 <.plt>
    326f:	|   90                   	nop
    3270:	|   f3 0f 1e fa          	endbr64 
    3274:	|   68 24 00 00 00       	pushq  $0x24
    3279:	+-- f2 e9 a1 fd ff ff    	bnd jmpq 3020 <.plt>
    327f:	|   90                   	nop
    3280:	|   f3 0f 1e fa          	endbr64 
    3284:	|   68 25 00 00 00       	pushq  $0x25
    3289:	+-- f2 e9 91 fd ff ff    	bnd jmpq 3020 <.plt>
    328f:	|   90                   	nop
    3290:	|   f3 0f 1e fa          	endbr64 
    3294:	|   68 26 00 00 00       	pushq  $0x26
    3299:	+-- f2 e9 81 fd ff ff    	bnd jmpq 3020 <.plt>
    329f:	|   90                   	nop
    32a0:	|   f3 0f 1e fa          	endbr64 
    32a4:	|   68 27 00 00 00       	pushq  $0x27
    32a9:	+-- f2 e9 71 fd ff ff    	bnd jmpq 3020 <.plt>
    32af:	|   90                   	nop
    32b0:	|   f3 0f 1e fa          	endbr64 
    32b4:	|   68 28 00 00 00       	pushq  $0x28
    32b9:	+-- f2 e9 61 fd ff ff    	bnd jmpq 3020 <.plt>
    32bf:	|   90                   	nop
    32c0:	|   f3 0f 1e fa          	endbr64 
    32c4:	|   68 29 00 00 00       	pushq  $0x29
    32c9:	+-- f2 e9 51 fd ff ff    	bnd jmpq 3020 <.plt>
    32cf:	|   90                   	nop
    32d0:	|   f3 0f 1e fa          	endbr64 
    32d4:	|   68 2a 00 00 00       	pushq  $0x2a
    32d9:	+-- f2 e9 41 fd ff ff    	bnd jmpq 3020 <.plt>
    32df:	|   90                   	nop
    32e0:	|   f3 0f 1e fa          	endbr64 
    32e4:	|   68 2b 00 00 00       	pushq  $0x2b
    32e9:	+-- f2 e9 31 fd ff ff    	bnd jmpq 3020 <.plt>
    32ef:	|   90                   	nop
    32f0:	|   f3 0f 1e fa          	endbr64 
    32f4:	|   68 2c 00 00 00       	pushq  $0x2c
    32f9:	+-- f2 e9 21 fd ff ff    	bnd jmpq 3020 <.plt>
    32ff:	|   90                   	nop
    3300:	|   f3 0f 1e fa          	endbr64 
    3304:	|   68 2d 00 00 00       	pushq  $0x2d
    3309:	+-- f2 e9 11 fd ff ff    	bnd jmpq 3020 <.plt>
    330f:	|   90                   	nop
    3310:	|   f3 0f 1e fa          	endbr64 
    3314:	|   68 2e 00 00 00       	pushq  $0x2e
    3319:	+-- f2 e9 01 fd ff ff    	bnd jmpq 3020 <.plt>
    331f:	|   90                   	nop
    3320:	|   f3 0f 1e fa          	endbr64 
    3324:	|   68 2f 00 00 00       	pushq  $0x2f
    3329:	+-- f2 e9 f1 fc ff ff    	bnd jmpq 3020 <.plt>
    332f:	|   90                   	nop
    3330:	|   f3 0f 1e fa          	endbr64 
    3334:	|   68 30 00 00 00       	pushq  $0x30
    3339:	+-- f2 e9 e1 fc ff ff    	bnd jmpq 3020 <.plt>
    333f:	|   90                   	nop
    3340:	|   f3 0f 1e fa          	endbr64 
    3344:	|   68 31 00 00 00       	pushq  $0x31
    3349:	+-- f2 e9 d1 fc ff ff    	bnd jmpq 3020 <.plt>
    334f:	|   90                   	nop
    3350:	|   f3 0f 1e fa          	endbr64 
    3354:	|   68 32 00 00 00       	pushq  $0x32
    3359:	+-- f2 e9 c1 fc ff ff    	bnd jmpq 3020 <.plt>
    335f:	|   90                   	nop
    3360:	|   f3 0f 1e fa          	endbr64 
    3364:	|   68 33 00 00 00       	pushq  $0x33
    3369:	+-- f2 e9 b1 fc ff ff    	bnd jmpq 3020 <.plt>
    336f:	|   90                   	nop
    3370:	|   f3 0f 1e fa          	endbr64 
    3374:	|   68 34 00 00 00       	pushq  $0x34
    3379:	+-- f2 e9 a1 fc ff ff    	bnd jmpq 3020 <.plt>
    337f:	|   90                   	nop
    3380:	|   f3 0f 1e fa          	endbr64 
    3384:	|   68 35 00 00 00       	pushq  $0x35
    3389:	+-- f2 e9 91 fc ff ff    	bnd jmpq 3020 <.plt>
    338f:	|   90                   	nop
    3390:	|   f3 0f 1e fa          	endbr64 
    3394:	|   68 36 00 00 00       	pushq  $0x36
    3399:	+-- f2 e9 81 fc ff ff    	bnd jmpq 3020 <.plt>
    339f:	|   90                   	nop
    33a0:	|   f3 0f 1e fa          	endbr64 
    33a4:	|   68 37 00 00 00       	pushq  $0x37
    33a9:	+-- f2 e9 71 fc ff ff    	bnd jmpq 3020 <.plt>
    33af:	|   90                   	nop
    33b0:	|   f3 0f 1e fa          	endbr64 
    33b4:	|   68 38 00 00 00       	pushq  $0x38
    33b9:	+-- f2 e9 61 fc ff ff    	bnd jmpq 3020 <.plt>
    33bf:	|   90                   	nop
    33c0:	|   f3 0f 1e fa          	endbr64 
    33c4:	|   68 39 00 00 00       	pushq  $0x39
    33c9:	+-- f2 e9 51 fc ff ff    	bnd jmpq 3020 <.plt>
    33cf:	|   90                   	nop
    33d0:	|   f3 0f 1e fa          	endbr64 
    33d4:	|   68 3a 00 00 00       	pushq  $0x3a
    33d9:	+-- f2 e9 41 fc ff ff    	bnd jmpq 3020 <.plt>
    33df:	|   90                   	nop
    33e0:	|   f3 0f 1e fa          	endbr64 
    33e4:	|   68 3b 00 00 00       	pushq  $0x3b
    33e9:	+-- f2 e9 31 fc ff ff    	bnd jmpq 3020 <.plt>
    33ef:	|   90                   	nop
    33f0:	|   f3 0f 1e fa          	endbr64 
    33f4:	|   68 3c 00 00 00       	pushq  $0x3c
    33f9:	+-- f2 e9 21 fc ff ff    	bnd jmpq 3020 <.plt>
    33ff:	|   90                   	nop
    3400:	|   f3 0f 1e fa          	endbr64 
    3404:	|   68 3d 00 00 00       	pushq  $0x3d
    3409:	+-- f2 e9 11 fc ff ff    	bnd jmpq 3020 <.plt>
    340f:	|   90                   	nop
    3410:	|   f3 0f 1e fa          	endbr64 
    3414:	|   68 3e 00 00 00       	pushq  $0x3e
    3419:	+-- f2 e9 01 fc ff ff    	bnd jmpq 3020 <.plt>
    341f:	|   90                   	nop
    3420:	|   f3 0f 1e fa          	endbr64 
    3424:	|   68 3f 00 00 00       	pushq  $0x3f
    3429:	+-- f2 e9 f1 fb ff ff    	bnd jmpq 3020 <.plt>
    342f:	|   90                   	nop
    3430:	|   f3 0f 1e fa          	endbr64 
    3434:	|   68 40 00 00 00       	pushq  $0x40
    3439:	+-- f2 e9 e1 fb ff ff    	bnd jmpq 3020 <.plt>
    343f:	|   90                   	nop
    3440:	|   f3 0f 1e fa          	endbr64 
    3444:	|   68 41 00 00 00       	pushq  $0x41
    3449:	+-- f2 e9 d1 fb ff ff    	bnd jmpq 3020 <.plt>
    344f:	|   90                   	nop
    3450:	|   f3 0f 1e fa          	endbr64 
    3454:	|   68 42 00 00 00       	pushq  $0x42
    3459:	+-- f2 e9 c1 fb ff ff    	bnd jmpq 3020 <.plt>
    345f:	|   90                   	nop
    3460:	|   f3 0f 1e fa          	endbr64 
    3464:	|   68 43 00 00 00       	pushq  $0x43
    3469:	+-- f2 e9 b1 fb ff ff    	bnd jmpq 3020 <.plt>
    346f:	|   90                   	nop
    3470:	|   f3 0f 1e fa          	endbr64 
    3474:	|   68 44 00 00 00       	pushq  $0x44
    3479:	+-- f2 e9 a1 fb ff ff    	bnd jmpq 3020 <.plt>
    347f:	|   90                   	nop
    3480:	|   f3 0f 1e fa          	endbr64 
    3484:	|   68 45 00 00 00       	pushq  $0x45
    3489:	+-- f2 e9 91 fb ff ff    	bnd jmpq 3020 <.plt>
    348f:	|   90                   	nop
    3490:	|   f3 0f 1e fa          	endbr64 
    3494:	|   68 46 00 00 00       	pushq  $0x46
    3499:	+-- f2 e9 81 fb ff ff    	bnd jmpq 3020 <.plt>
    349f:	|   90                   	nop
    34a0:	|   f3 0f 1e fa          	endbr64 
    34a4:	|   68 47 00 00 00       	pushq  $0x47
    34a9:	+-- f2 e9 71 fb ff ff    	bnd jmpq 3020 <.plt>
    34af:	|   90                   	nop
    34b0:	|   f3 0f 1e fa          	endbr64 
    34b4:	|   68 48 00 00 00       	pushq  $0x48
    34b9:	+-- f2 e9 61 fb ff ff    	bnd jmpq 3020 <.plt>
    34bf:	|   90                   	nop
    34c0:	|   f3 0f 1e fa          	endbr64 
    34c4:	|   68 49 00 00 00       	pushq  $0x49
    34c9:	\-- f2 e9 51 fb ff ff    	bnd jmpq 3020 <.plt>
    34cf:	    90                   	nop

Disassembly of section .plt.got:

00000000000034d0 <__cxa_finalize@plt>:
    34d0:	f3 0f 1e fa          	endbr64 
    34d4:	f2 ff 25 f5 3a 01 00 	bnd jmpq *0x13af5(%rip)        # 16fd0 <__cxa_finalize@GLIBC_2.2.5>
    34db:	0f 1f 44 00 00       	nopl   0x0(%rax,%rax,1)

Disassembly of section .plt.sec:

00000000000034e0 <__printf_chk@plt>:
    34e0:	f3 0f 1e fa          	endbr64 
    34e4:	f2 ff 25 95 38 01 00 	bnd jmpq *0x13895(%rip)        # 16d80 <__printf_chk@GLIBC_2.3.4>
    34eb:	0f 1f 44 00 00       	nopl   0x0(%rax,%rax,1)

00000000000034f0 <_Znam@plt>:
    34f0:	f3 0f 1e fa          	endbr64 
    34f4:	f2 ff 25 8d 38 01 00 	bnd jmpq *0x1388d(%rip)        # 16d88 <_Znam@GLIBCXX_3.4>
    34fb:	0f 1f 44 00 00       	nopl   0x0(%rax,%rax,1)

0000000000003500 <_ZNSo3putEc@plt>:
    3500:	f3 0f 1e fa          	endbr64 
    3504:	f2 ff 25 85 38 01 00 	bnd jmpq *0x13885(%rip)        # 16d90 <_ZNSo3putEc@GLIBCXX_3.4>
    350b:	0f 1f 44 00 00       	nopl   0x0(%rax,%rax,1)

0000000000003510 <_ZNSt6chrono3_V212system_clock3nowEv@plt>:
    3510:	f3 0f 1e fa          	endbr64 
    3514:	f2 ff 25 7d 38 01 00 	bnd jmpq *0x1387d(%rip)        # 16d98 <_ZNSt6chrono3_V212system_clock3nowEv@GLIBCXX_3.4.19>
    351b:	0f 1f 44 00 00       	nopl   0x0(%rax,%rax,1)

0000000000003520 <_ZNSt13basic_filebufIcSt11char_traitsIcEE5closeEv@plt>:
    3520:	f3 0f 1e fa          	endbr64 
    3524:	f2 ff 25 75 38 01 00 	bnd jmpq *0x13875(%rip)        # 16da0 <_ZNSt13basic_filebufIcSt11char_traitsIcEE5closeEv@GLIBCXX_3.4>
    352b:	0f 1f 44 00 00       	nopl   0x0(%rax,%rax,1)

0000000000003530 <getopt@plt>:
    3530:	f3 0f 1e fa          	endbr64 
    3534:	f2 ff 25 6d 38 01 00 	bnd jmpq *0x1386d(%rip)        # 16da8 <getopt@GLIBC_2.2.5>
    353b:	0f 1f 44 00 00       	nopl   0x0(%rax,%rax,1)

0000000000003540 <_ZNKSt12__basic_fileIcE7is_openEv@plt>:
    3540:	f3 0f 1e fa          	endbr64 
    3544:	f2 ff 25 65 38 01 00 	bnd jmpq *0x13865(%rip)        # 16db0 <_ZNKSt12__basic_fileIcE7is_openEv@GLIBCXX_3.4>
    354b:	0f 1f 44 00 00       	nopl   0x0(%rax,%rax,1)

0000000000003550 <_ZNSt14basic_ifstreamIcSt11char_traitsIcEED1Ev@plt>:
    3550:	f3 0f 1e fa          	endbr64 
    3554:	f2 ff 25 5d 38 01 00 	bnd jmpq *0x1385d(%rip)        # 16db8 <_ZNSt14basic_ifstreamIcSt11char_traitsIcEED1Ev@GLIBCXX_3.4>
    355b:	0f 1f 44 00 00       	nopl   0x0(%rax,%rax,1)

0000000000003560 <_ZNKSt7__cxx1112basic_stringIcSt11char_traitsIcESaIcEE7compareEPKc@plt>:
    3560:	f3 0f 1e fa          	endbr64 
    3564:	f2 ff 25 55 38 01 00 	bnd jmpq *0x13855(%rip)        # 16dc0 <_ZNKSt7__cxx1112basic_stringIcSt11char_traitsIcESaIcEE7compareEPKc@GLIBCXX_3.4.21>
    356b:	0f 1f 44 00 00       	nopl   0x0(%rax,%rax,1)

0000000000003570 <_ZNSt8ios_baseC2Ev@plt>:
    3570:	f3 0f 1e fa          	endbr64 
    3574:	f2 ff 25 4d 38 01 00 	bnd jmpq *0x1384d(%rip)        # 16dc8 <_ZNSt8ios_baseC2Ev@GLIBCXX_3.4>
    357b:	0f 1f 44 00 00       	nopl   0x0(%rax,%rax,1)

0000000000003580 <_ZNSt7__cxx1112basic_stringIcSt11char_traitsIcESaIcEE9_M_appendEPKcm@plt>:
    3580:	f3 0f 1e fa          	endbr64 
    3584:	f2 ff 25 45 38 01 00 	bnd jmpq *0x13845(%rip)        # 16dd0 <_ZNSt7__cxx1112basic_stringIcSt11char_traitsIcESaIcEE9_M_appendEPKcm@GLIBCXX_3.4.21>
    358b:	0f 1f 44 00 00       	nopl   0x0(%rax,%rax,1)

0000000000003590 <_ZNSt8ios_baseD2Ev@plt>:
    3590:	f3 0f 1e fa          	endbr64 
    3594:	f2 ff 25 3d 38 01 00 	bnd jmpq *0x1383d(%rip)        # 16dd8 <_ZNSt8ios_baseD2Ev@GLIBCXX_3.4>
    359b:	0f 1f 44 00 00       	nopl   0x0(%rax,%rax,1)

00000000000035a0 <_ZSt17__throw_bad_allocv@plt>:
    35a0:	f3 0f 1e fa          	endbr64 
    35a4:	f2 ff 25 35 38 01 00 	bnd jmpq *0x13835(%rip)        # 16de0 <_ZSt17__throw_bad_allocv@GLIBCXX_3.4>
    35ab:	0f 1f 44 00 00       	nopl   0x0(%rax,%rax,1)

00000000000035b0 <_ZNSi4peekEv@plt>:
    35b0:	f3 0f 1e fa          	endbr64 
    35b4:	f2 ff 25 2d 38 01 00 	bnd jmpq *0x1382d(%rip)        # 16de8 <_ZNSi4peekEv@GLIBCXX_3.4>
    35bb:	0f 1f 44 00 00       	nopl   0x0(%rax,%rax,1)

00000000000035c0 <__cxa_begin_catch@plt>:
    35c0:	f3 0f 1e fa          	endbr64 
    35c4:	f2 ff 25 25 38 01 00 	bnd jmpq *0x13825(%rip)        # 16df0 <__cxa_begin_catch@CXXABI_1.3>
    35cb:	0f 1f 44 00 00       	nopl   0x0(%rax,%rax,1)

00000000000035d0 <strlen@plt>:
    35d0:	f3 0f 1e fa          	endbr64 
    35d4:	f2 ff 25 1d 38 01 00 	bnd jmpq *0x1381d(%rip)        # 16df8 <strlen@GLIBC_2.2.5>
    35db:	0f 1f 44 00 00       	nopl   0x0(%rax,%rax,1)

00000000000035e0 <_ZNSt7__cxx1119basic_istringstreamIcSt11char_traitsIcESaIcEED1Ev@plt>:
    35e0:	f3 0f 1e fa          	endbr64 
    35e4:	f2 ff 25 15 38 01 00 	bnd jmpq *0x13815(%rip)        # 16e00 <_ZNSt7__cxx1119basic_istringstreamIcSt11char_traitsIcESaIcEED1Ev@GLIBCXX_3.4.21>
    35eb:	0f 1f 44 00 00       	nopl   0x0(%rax,%rax,1)

00000000000035f0 <GOMP_loop_end_nowait@plt>:
    35f0:	f3 0f 1e fa          	endbr64 
    35f4:	f2 ff 25 0d 38 01 00 	bnd jmpq *0x1380d(%rip)        # 16e08 <GOMP_loop_end_nowait@GOMP_1.0>
    35fb:	0f 1f 44 00 00       	nopl   0x0(%rax,%rax,1)

0000000000003600 <_ZSt20__throw_length_errorPKc@plt>:
    3600:	f3 0f 1e fa          	endbr64 
    3604:	f2 ff 25 05 38 01 00 	bnd jmpq *0x13805(%rip)        # 16e10 <_ZSt20__throw_length_errorPKc@GLIBCXX_3.4>
    360b:	0f 1f 44 00 00       	nopl   0x0(%rax,%rax,1)

0000000000003610 <memset@plt>:
    3610:	f3 0f 1e fa          	endbr64 
    3614:	f2 ff 25 fd 37 01 00 	bnd jmpq *0x137fd(%rip)        # 16e18 <memset@GLIBC_2.2.5>
    361b:	0f 1f 44 00 00       	nopl   0x0(%rax,%rax,1)

0000000000003620 <__snprintf_chk@plt>:
    3620:	f3 0f 1e fa          	endbr64 
    3624:	f2 ff 25 f5 37 01 00 	bnd jmpq *0x137f5(%rip)        # 16e20 <__snprintf_chk@GLIBC_2.3.4>
    362b:	0f 1f 44 00 00       	nopl   0x0(%rax,%rax,1)

0000000000003630 <_ZNSirsERi@plt>:
    3630:	f3 0f 1e fa          	endbr64 
    3634:	f2 ff 25 ed 37 01 00 	bnd jmpq *0x137ed(%rip)        # 16e28 <_ZNSirsERi@GLIBCXX_3.4>
    363b:	0f 1f 44 00 00       	nopl   0x0(%rax,%rax,1)

0000000000003640 <_ZNSi6ignoreEli@plt>:
    3640:	f3 0f 1e fa          	endbr64 
    3644:	f2 ff 25 e5 37 01 00 	bnd jmpq *0x137e5(%rip)        # 16e30 <_ZNSi6ignoreEli@GLIBCXX_3.4>
    364b:	0f 1f 44 00 00       	nopl   0x0(%rax,%rax,1)

0000000000003650 <_ZNSo9_M_insertImEERSoT_@plt>:
    3650:	f3 0f 1e fa          	endbr64 
    3654:	f2 ff 25 dd 37 01 00 	bnd jmpq *0x137dd(%rip)        # 16e38 <_ZNSo9_M_insertImEERSoT_@GLIBCXX_3.4.9>
    365b:	0f 1f 44 00 00       	nopl   0x0(%rax,%rax,1)

0000000000003660 <_ZNSo5flushEv@plt>:
    3660:	f3 0f 1e fa          	endbr64 
    3664:	f2 ff 25 d5 37 01 00 	bnd jmpq *0x137d5(%rip)        # 16e40 <_ZNSo5flushEv@GLIBCXX_3.4>
    366b:	0f 1f 44 00 00       	nopl   0x0(%rax,%rax,1)

0000000000003670 <_ZNKSt8__detail20_Prime_rehash_policy11_M_next_bktEm@plt>:
    3670:	f3 0f 1e fa          	endbr64 
    3674:	f2 ff 25 cd 37 01 00 	bnd jmpq *0x137cd(%rip)        # 16e48 <_ZNKSt8__detail20_Prime_rehash_policy11_M_next_bktEm@GLIBCXX_3.4.18>
    367b:	0f 1f 44 00 00       	nopl   0x0(%rax,%rax,1)

0000000000003680 <_ZSt19__throw_logic_errorPKc@plt>:
    3680:	f3 0f 1e fa          	endbr64 
    3684:	f2 ff 25 c5 37 01 00 	bnd jmpq *0x137c5(%rip)        # 16e50 <_ZSt19__throw_logic_errorPKc@GLIBCXX_3.4>
    368b:	0f 1f 44 00 00       	nopl   0x0(%rax,%rax,1)

0000000000003690 <memcpy@plt>:
    3690:	f3 0f 1e fa          	endbr64 
    3694:	f2 ff 25 bd 37 01 00 	bnd jmpq *0x137bd(%rip)        # 16e58 <memcpy@GLIBC_2.14>
    369b:	0f 1f 44 00 00       	nopl   0x0(%rax,%rax,1)

00000000000036a0 <_ZSt2wsIcSt11char_traitsIcEERSt13basic_istreamIT_T0_ES6_@plt>:
    36a0:	f3 0f 1e fa          	endbr64 
    36a4:	f2 ff 25 b5 37 01 00 	bnd jmpq *0x137b5(%rip)        # 16e60 <_ZSt2wsIcSt11char_traitsIcEERSt13basic_istreamIT_T0_ES6_@GLIBCXX_3.4>
    36ab:	0f 1f 44 00 00       	nopl   0x0(%rax,%rax,1)

00000000000036b0 <__cxa_atexit@plt>:
    36b0:	f3 0f 1e fa          	endbr64 
    36b4:	f2 ff 25 ad 37 01 00 	bnd jmpq *0x137ad(%rip)        # 16e68 <__cxa_atexit@GLIBC_2.2.5>
    36bb:	0f 1f 44 00 00       	nopl   0x0(%rax,%rax,1)

00000000000036c0 <_ZNSt13basic_filebufIcSt11char_traitsIcEE4openEPKcSt13_Ios_Openmode@plt>:
    36c0:	f3 0f 1e fa          	endbr64 
    36c4:	f2 ff 25 a5 37 01 00 	bnd jmpq *0x137a5(%rip)        # 16e70 <_ZNSt13basic_filebufIcSt11char_traitsIcEE4openEPKcSt13_Ios_Openmode@GLIBCXX_3.4>
    36cb:	0f 1f 44 00 00       	nopl   0x0(%rax,%rax,1)

00000000000036d0 <_ZdlPv@plt>:
    36d0:	f3 0f 1e fa          	endbr64 
    36d4:	f2 ff 25 9d 37 01 00 	bnd jmpq *0x1379d(%rip)        # 16e78 <_ZdlPv@GLIBCXX_3.4>
    36db:	0f 1f 44 00 00       	nopl   0x0(%rax,%rax,1)

00000000000036e0 <_ZNSo9_M_insertIlEERSoT_@plt>:
    36e0:	f3 0f 1e fa          	endbr64 
    36e4:	f2 ff 25 95 37 01 00 	bnd jmpq *0x13795(%rip)        # 16e80 <_ZNSo9_M_insertIlEERSoT_@GLIBCXX_3.4.9>
    36eb:	0f 1f 44 00 00       	nopl   0x0(%rax,%rax,1)

00000000000036f0 <_Znwm@plt>:
    36f0:	f3 0f 1e fa          	endbr64 
    36f4:	f2 ff 25 8d 37 01 00 	bnd jmpq *0x1378d(%rip)        # 16e88 <_Znwm@GLIBCXX_3.4>
    36fb:	0f 1f 44 00 00       	nopl   0x0(%rax,%rax,1)

0000000000003700 <_ZNSi10_M_extractIlEERSiRT_@plt>:
    3700:	f3 0f 1e fa          	endbr64 
    3704:	f2 ff 25 85 37 01 00 	bnd jmpq *0x13785(%rip)        # 16e90 <_ZNSi10_M_extractIlEERSiRT_@GLIBCXX_3.4.9>
    370b:	0f 1f 44 00 00       	nopl   0x0(%rax,%rax,1)

0000000000003710 <_ZNSt13basic_filebufIcSt11char_traitsIcEEC1Ev@plt>:
    3710:	f3 0f 1e fa          	endbr64 
    3714:	f2 ff 25 7d 37 01 00 	bnd jmpq *0x1377d(%rip)        # 16e98 <_ZNSt13basic_filebufIcSt11char_traitsIcEEC1Ev@GLIBCXX_3.4>
    371b:	0f 1f 44 00 00       	nopl   0x0(%rax,%rax,1)

0000000000003720 <__stack_chk_fail@plt>:
    3720:	f3 0f 1e fa          	endbr64 
    3724:	f2 ff 25 75 37 01 00 	bnd jmpq *0x13775(%rip)        # 16ea0 <__stack_chk_fail@GLIBC_2.4>
    372b:	0f 1f 44 00 00       	nopl   0x0(%rax,%rax,1)

0000000000003730 <_ZSt16__ostream_insertIcSt11char_traitsIcEERSt13basic_ostreamIT_T0_ES6_PKS3_l@plt>:
    3730:	f3 0f 1e fa          	endbr64 
    3734:	f2 ff 25 6d 37 01 00 	bnd jmpq *0x1376d(%rip)        # 16ea8 <_ZSt16__ostream_insertIcSt11char_traitsIcEERSt13basic_ostreamIT_T0_ES6_PKS3_l@GLIBCXX_3.4.9>
    373b:	0f 1f 44 00 00       	nopl   0x0(%rax,%rax,1)

0000000000003740 <_ZNKSt5ctypeIcE13_M_widen_initEv@plt>:
    3740:	f3 0f 1e fa          	endbr64 
    3744:	f2 ff 25 65 37 01 00 	bnd jmpq *0x13765(%rip)        # 16eb0 <_ZNKSt5ctypeIcE13_M_widen_initEv@GLIBCXX_3.4.11>
    374b:	0f 1f 44 00 00       	nopl   0x0(%rax,%rax,1)

0000000000003750 <_ZNSt7__cxx1112basic_stringIcSt11char_traitsIcESaIcEE12_M_constructEmc@plt>:
    3750:	f3 0f 1e fa          	endbr64 
    3754:	f2 ff 25 5d 37 01 00 	bnd jmpq *0x1375d(%rip)        # 16eb8 <_ZNSt7__cxx1112basic_stringIcSt11char_traitsIcESaIcEE12_M_constructEmc@GLIBCXX_3.4.21>
    375b:	0f 1f 44 00 00       	nopl   0x0(%rax,%rax,1)

0000000000003760 <exit@plt>:
    3760:	f3 0f 1e fa          	endbr64 
    3764:	f2 ff 25 55 37 01 00 	bnd jmpq *0x13755(%rip)        # 16ec0 <exit@GLIBC_2.2.5>
    376b:	0f 1f 44 00 00       	nopl   0x0(%rax,%rax,1)

0000000000003770 <_ZNSi4readEPcl@plt>:
    3770:	f3 0f 1e fa          	endbr64 
    3774:	f2 ff 25 4d 37 01 00 	bnd jmpq *0x1374d(%rip)        # 16ec8 <_ZNSi4readEPcl@GLIBCXX_3.4>
    377b:	0f 1f 44 00 00       	nopl   0x0(%rax,%rax,1)

0000000000003780 <_ZSt16__throw_bad_castv@plt>:
    3780:	f3 0f 1e fa          	endbr64 
    3784:	f2 ff 25 45 37 01 00 	bnd jmpq *0x13745(%rip)        # 16ed0 <_ZSt16__throw_bad_castv@GLIBCXX_3.4>
    378b:	0f 1f 44 00 00       	nopl   0x0(%rax,%rax,1)

0000000000003790 <GOMP_loop_nonmonotonic_dynamic_next@plt>:
    3790:	f3 0f 1e fa          	endbr64 
    3794:	f2 ff 25 3d 37 01 00 	bnd jmpq *0x1373d(%rip)        # 16ed8 <GOMP_loop_nonmonotonic_dynamic_next@GOMP_4.5>
    379b:	0f 1f 44 00 00       	nopl   0x0(%rax,%rax,1)

00000000000037a0 <_ZStrsIcSt11char_traitsIcESaIcEERSt13basic_istreamIT_T0_ES7_RNSt7__cxx1112basic_stringIS4_S5_T1_EE@plt>:
    37a0:	f3 0f 1e fa          	endbr64 
    37a4:	f2 ff 25 35 37 01 00 	bnd jmpq *0x13735(%rip)        # 16ee0 <_ZStrsIcSt11char_traitsIcESaIcEERSt13basic_istreamIT_T0_ES7_RNSt7__cxx1112basic_stringIS4_S5_T1_EE@GLIBCXX_3.4.21>
    37ab:	0f 1f 44 00 00       	nopl   0x0(%rax,%rax,1)

00000000000037b0 <_ZdaPv@plt>:
    37b0:	f3 0f 1e fa          	endbr64 
    37b4:	f2 ff 25 2d 37 01 00 	bnd jmpq *0x1372d(%rip)        # 16ee8 <_ZdaPv@GLIBCXX_3.4>
    37bb:	0f 1f 44 00 00       	nopl   0x0(%rax,%rax,1)

00000000000037c0 <_ZNSt7__cxx1115basic_stringbufIcSt11char_traitsIcESaIcEE7_M_syncEPcmm@plt>:
    37c0:	f3 0f 1e fa          	endbr64 
    37c4:	f2 ff 25 25 37 01 00 	bnd jmpq *0x13725(%rip)        # 16ef0 <_ZNSt7__cxx1115basic_stringbufIcSt11char_traitsIcESaIcEE7_M_syncEPcmm@GLIBCXX_3.4.21>
    37cb:	0f 1f 44 00 00       	nopl   0x0(%rax,%rax,1)

00000000000037d0 <_ZStrsIcSt11char_traitsIcEERSt13basic_istreamIT_T0_ES6_RS3_@plt>:
    37d0:	f3 0f 1e fa          	endbr64 
    37d4:	f2 ff 25 1d 37 01 00 	bnd jmpq *0x1371d(%rip)        # 16ef8 <_ZStrsIcSt11char_traitsIcEERSt13basic_istreamIT_T0_ES6_RS3_@GLIBCXX_3.4>
    37db:	0f 1f 44 00 00       	nopl   0x0(%rax,%rax,1)

00000000000037e0 <_ZNKSt8__detail20_Prime_rehash_policy14_M_need_rehashEmmm@plt>:
    37e0:	f3 0f 1e fa          	endbr64 
    37e4:	f2 ff 25 15 37 01 00 	bnd jmpq *0x13715(%rip)        # 16f00 <_ZNKSt8__detail20_Prime_rehash_policy14_M_need_rehashEmmm@GLIBCXX_3.4.18>
    37eb:	0f 1f 44 00 00       	nopl   0x0(%rax,%rax,1)

00000000000037f0 <_ZNSt9basic_iosIcSt11char_traitsIcEE4initEPSt15basic_streambufIcS1_E@plt>:
    37f0:	f3 0f 1e fa          	endbr64 
    37f4:	f2 ff 25 0d 37 01 00 	bnd jmpq *0x1370d(%rip)        # 16f08 <_ZNSt9basic_iosIcSt11char_traitsIcEE4initEPSt15basic_streambufIcS1_E@GLIBCXX_3.4>
    37fb:	0f 1f 44 00 00       	nopl   0x0(%rax,%rax,1)

0000000000003800 <strtol@plt>:
    3800:	f3 0f 1e fa          	endbr64 
    3804:	f2 ff 25 05 37 01 00 	bnd jmpq *0x13705(%rip)        # 16f10 <strtol@GLIBC_2.2.5>
    380b:	0f 1f 44 00 00       	nopl   0x0(%rax,%rax,1)

0000000000003810 <_ZNSt6localeD1Ev@plt>:
    3810:	f3 0f 1e fa          	endbr64 
    3814:	f2 ff 25 fd 36 01 00 	bnd jmpq *0x136fd(%rip)        # 16f18 <_ZNSt6localeD1Ev@GLIBCXX_3.4>
    381b:	0f 1f 44 00 00       	nopl   0x0(%rax,%rax,1)

0000000000003820 <__cxa_throw_bad_array_new_length@plt>:
    3820:	f3 0f 1e fa          	endbr64 
    3824:	f2 ff 25 f5 36 01 00 	bnd jmpq *0x136f5(%rip)        # 16f20 <__cxa_throw_bad_array_new_length@CXXABI_1.3.8>
    382b:	0f 1f 44 00 00       	nopl   0x0(%rax,%rax,1)

0000000000003830 <__cxa_rethrow@plt>:
    3830:	f3 0f 1e fa          	endbr64 
    3834:	f2 ff 25 ed 36 01 00 	bnd jmpq *0x136ed(%rip)        # 16f28 <__cxa_rethrow@CXXABI_1.3>
    383b:	0f 1f 44 00 00       	nopl   0x0(%rax,%rax,1)

0000000000003840 <GOMP_parallel@plt>:
    3840:	f3 0f 1e fa          	endbr64 
    3844:	f2 ff 25 e5 36 01 00 	bnd jmpq *0x136e5(%rip)        # 16f30 <GOMP_parallel@GOMP_4.0>
    384b:	0f 1f 44 00 00       	nopl   0x0(%rax,%rax,1)

0000000000003850 <_ZSt24__throw_out_of_range_fmtPKcz@plt>:
    3850:	f3 0f 1e fa          	endbr64 
    3854:	f2 ff 25 dd 36 01 00 	bnd jmpq *0x136dd(%rip)        # 16f38 <_ZSt24__throw_out_of_range_fmtPKcz@GLIBCXX_3.4.20>
    385b:	0f 1f 44 00 00       	nopl   0x0(%rax,%rax,1)

0000000000003860 <_ZNSt8ios_base4InitC1Ev@plt>:
    3860:	f3 0f 1e fa          	endbr64 
    3864:	f2 ff 25 d5 36 01 00 	bnd jmpq *0x136d5(%rip)        # 16f40 <_ZNSt8ios_base4InitC1Ev@GLIBCXX_3.4>
    386b:	0f 1f 44 00 00       	nopl   0x0(%rax,%rax,1)

0000000000003870 <_ZNSt13basic_filebufIcSt11char_traitsIcEED1Ev@plt>:
    3870:	f3 0f 1e fa          	endbr64 
    3874:	f2 ff 25 cd 36 01 00 	bnd jmpq *0x136cd(%rip)        # 16f48 <_ZNSt13basic_filebufIcSt11char_traitsIcEED1Ev@GLIBCXX_3.4>
    387b:	0f 1f 44 00 00       	nopl   0x0(%rax,%rax,1)

0000000000003880 <_ZNSt7__cxx1112basic_stringIcSt11char_traitsIcESaIcEE7reserveEm@plt>:
    3880:	f3 0f 1e fa          	endbr64 
    3884:	f2 ff 25 c5 36 01 00 	bnd jmpq *0x136c5(%rip)        # 16f50 <_ZNSt7__cxx1112basic_stringIcSt11char_traitsIcESaIcEE7reserveEm@GLIBCXX_3.4.21>
    388b:	0f 1f 44 00 00       	nopl   0x0(%rax,%rax,1)

0000000000003890 <omp_get_thread_num@plt>:
    3890:	f3 0f 1e fa          	endbr64 
    3894:	f2 ff 25 bd 36 01 00 	bnd jmpq *0x136bd(%rip)        # 16f58 <omp_get_thread_num@OMP_1.0>
    389b:	0f 1f 44 00 00       	nopl   0x0(%rax,%rax,1)

00000000000038a0 <memmove@plt>:
    38a0:	f3 0f 1e fa          	endbr64 
    38a4:	f2 ff 25 b5 36 01 00 	bnd jmpq *0x136b5(%rip)        # 16f60 <memmove@GLIBC_2.2.5>
    38ab:	0f 1f 44 00 00       	nopl   0x0(%rax,%rax,1)

00000000000038b0 <__cxa_end_catch@plt>:
    38b0:	f3 0f 1e fa          	endbr64 
    38b4:	f2 ff 25 ad 36 01 00 	bnd jmpq *0x136ad(%rip)        # 16f68 <__cxa_end_catch@CXXABI_1.3>
    38bb:	0f 1f 44 00 00       	nopl   0x0(%rax,%rax,1)

00000000000038c0 <realloc@plt>:
    38c0:	f3 0f 1e fa          	endbr64 
    38c4:	f2 ff 25 a5 36 01 00 	bnd jmpq *0x136a5(%rip)        # 16f70 <realloc@GLIBC_2.2.5>
    38cb:	0f 1f 44 00 00       	nopl   0x0(%rax,%rax,1)

00000000000038d0 <GOMP_loop_nonmonotonic_dynamic_start@plt>:
    38d0:	f3 0f 1e fa          	endbr64 
    38d4:	f2 ff 25 9d 36 01 00 	bnd jmpq *0x1369d(%rip)        # 16f78 <GOMP_loop_nonmonotonic_dynamic_start@GOMP_4.5>
    38db:	0f 1f 44 00 00       	nopl   0x0(%rax,%rax,1)

00000000000038e0 <_ZNSt9basic_iosIcSt11char_traitsIcEE5clearESt12_Ios_Iostate@plt>:
    38e0:	f3 0f 1e fa          	endbr64 
    38e4:	f2 ff 25 95 36 01 00 	bnd jmpq *0x13695(%rip)        # 16f80 <_ZNSt9basic_iosIcSt11char_traitsIcEE5clearESt12_Ios_Iostate@GLIBCXX_3.4>
    38eb:	0f 1f 44 00 00       	nopl   0x0(%rax,%rax,1)

00000000000038f0 <_ZNSolsEi@plt>:
    38f0:	f3 0f 1e fa          	endbr64 
    38f4:	f2 ff 25 8d 36 01 00 	bnd jmpq *0x1368d(%rip)        # 16f88 <_ZNSolsEi@GLIBCXX_3.4>
    38fb:	0f 1f 44 00 00       	nopl   0x0(%rax,%rax,1)

0000000000003900 <_Unwind_Resume@plt>:
    3900:	f3 0f 1e fa          	endbr64 
    3904:	f2 ff 25 85 36 01 00 	bnd jmpq *0x13685(%rip)        # 16f90 <_Unwind_Resume@GCC_3.0>
    390b:	0f 1f 44 00 00       	nopl   0x0(%rax,%rax,1)

0000000000003910 <_ZNSt7__cxx1112basic_stringIcSt11char_traitsIcESaIcEE9_M_createERmm@plt>:
    3910:	f3 0f 1e fa          	endbr64 
    3914:	f2 ff 25 7d 36 01 00 	bnd jmpq *0x1367d(%rip)        # 16f98 <_ZNSt7__cxx1112basic_stringIcSt11char_traitsIcESaIcEE9_M_createERmm@GLIBCXX_3.4.21>
    391b:	0f 1f 44 00 00       	nopl   0x0(%rax,%rax,1)

0000000000003920 <GOMP_barrier@plt>:
    3920:	f3 0f 1e fa          	endbr64 
    3924:	f2 ff 25 75 36 01 00 	bnd jmpq *0x13675(%rip)        # 16fa0 <GOMP_barrier@GOMP_1.0>
    392b:	0f 1f 44 00 00       	nopl   0x0(%rax,%rax,1)

0000000000003930 <_ZSt7getlineIcSt11char_traitsIcESaIcEERSt13basic_istreamIT_T0_ES7_RNSt7__cxx1112basic_stringIS4_S5_T1_EES4_@plt>:
    3930:	f3 0f 1e fa          	endbr64 
    3934:	f2 ff 25 6d 36 01 00 	bnd jmpq *0x1366d(%rip)        # 16fa8 <_ZSt7getlineIcSt11char_traitsIcESaIcEERSt13basic_istreamIT_T0_ES7_RNSt7__cxx1112basic_stringIS4_S5_T1_EES4_@GLIBCXX_3.4.21>
    393b:	0f 1f 44 00 00       	nopl   0x0(%rax,%rax,1)

0000000000003940 <_ZNSt12__basic_fileIcED1Ev@plt>:
    3940:	f3 0f 1e fa          	endbr64 
    3944:	f2 ff 25 65 36 01 00 	bnd jmpq *0x13665(%rip)        # 16fb0 <_ZNSt12__basic_fileIcED1Ev@GLIBCXX_3.4>
    394b:	0f 1f 44 00 00       	nopl   0x0(%rax,%rax,1)

0000000000003950 <omp_get_num_threads@plt>:
    3950:	f3 0f 1e fa          	endbr64 
    3954:	f2 ff 25 5d 36 01 00 	bnd jmpq *0x1365d(%rip)        # 16fb8 <omp_get_num_threads@OMP_1.0>
    395b:	0f 1f 44 00 00       	nopl   0x0(%rax,%rax,1)

0000000000003960 <_ZNKSt7__cxx1112basic_stringIcSt11char_traitsIcESaIcEE5rfindEcm@plt>:
    3960:	f3 0f 1e fa          	endbr64 
    3964:	f2 ff 25 55 36 01 00 	bnd jmpq *0x13655(%rip)        # 16fc0 <_ZNKSt7__cxx1112basic_stringIcSt11char_traitsIcESaIcEE5rfindEcm@GLIBCXX_3.4.21>
    396b:	0f 1f 44 00 00       	nopl   0x0(%rax,%rax,1)

0000000000003970 <_ZNSt6localeC1Ev@plt>:
    3970:	f3 0f 1e fa          	endbr64 
    3974:	f2 ff 25 4d 36 01 00 	bnd jmpq *0x1364d(%rip)        # 16fc8 <_ZNSt6localeC1Ev@GLIBCXX_3.4>
    397b:	0f 1f 44 00 00       	nopl   0x0(%rax,%rax,1)

Disassembly of section .text:

0000000000003980 <_Z10PrintLabelRKNSt7__cxx1112basic_stringIcSt11char_traitsIcESaIcEEES6_.cold>:
_ZNKSt7__cxx1112basic_stringIcSt11char_traitsIcESaIcEE7_M_dataEv():
/usr/include/c++/10/bits/basic_string.h:195 (discriminator 1)
      _M_length(size_type __length)
      { _M_string_length = __length; }

      pointer
      _M_data() const
      { return _M_dataplus._M_p; }
    3980:	    48 8b 7c 24 10       	mov    0x10(%rsp),%rdi
_ZNSt7__cxx1112basic_stringIcSt11char_traitsIcESaIcEE10_M_disposeEv():
/usr/include/c++/10/bits/basic_string.h:239 (discriminator 1)
      _M_create(size_type&, size_type);

      void
      _M_dispose()
      {
	if (!_M_is_local())
    3985:	    48 39 df             	cmp    %rbx,%rdi
    3988:	/-- 74 05                	je     398f <_Z10PrintLabelRKNSt7__cxx1112basic_stringIcSt11char_traitsIcESaIcEEES6_.cold+0xf>
_ZN9__gnu_cxx13new_allocatorIcE10deallocateEPcm():
/usr/include/c++/10/ext/new_allocator.h:139
# endif
			      std::align_val_t(alignof(_Tp)));
	    return;
	  }
#endif
	::operator delete(__p
    398a:	|   e8 41 fd ff ff       	callq  36d0 <_ZdlPv@plt>
_ZN9__gnu_cxx13new_allocatorIcED4Ev():
/usr/include/c++/10/ext/new_allocator.h:89
      ~new_allocator() _GLIBCXX_USE_NOEXCEPT { }
    398f:	\-> 48 89 ef             	mov    %rbp,%rdi
    3992:	    e8 69 ff ff ff       	callq  3900 <_Unwind_Resume@plt>

0000000000003997 <_Z9PrintTimeRKNSt7__cxx1112basic_stringIcSt11char_traitsIcESaIcEEEd.cold>:
_ZNKSt7__cxx1112basic_stringIcSt11char_traitsIcESaIcEE7_M_dataEv():
/usr/include/c++/10/bits/basic_string.h:195 (discriminator 1)
      { return _M_dataplus._M_p; }
    3997:	    48 8b 7c 24 10       	mov    0x10(%rsp),%rdi
_ZNSt7__cxx1112basic_stringIcSt11char_traitsIcESaIcEE10_M_disposeEv():
/usr/include/c++/10/bits/basic_string.h:239 (discriminator 1)
	if (!_M_is_local())
    399c:	    48 39 df             	cmp    %rbx,%rdi
    399f:	/-- 74 05                	je     39a6 <_Z9PrintTimeRKNSt7__cxx1112basic_stringIcSt11char_traitsIcESaIcEEEd.cold+0xf>
_ZN9__gnu_cxx13new_allocatorIcE10deallocateEPcm():
/usr/include/c++/10/ext/new_allocator.h:139
	::operator delete(__p
    39a1:	|   e8 2a fd ff ff       	callq  36d0 <_ZdlPv@plt>
_ZN9__gnu_cxx13new_allocatorIcED4Ev():
/usr/include/c++/10/ext/new_allocator.h:89
      ~new_allocator() _GLIBCXX_USE_NOEXCEPT { }
    39a6:	\-> 48 89 ef             	mov    %rbp,%rdi
    39a9:	    e8 52 ff ff ff       	callq  3900 <_Unwind_Resume@plt>

00000000000039ae <_Z9PrintStepRKNSt7__cxx1112basic_stringIcSt11char_traitsIcESaIcEEEl.cold>:
_ZNKSt7__cxx1112basic_stringIcSt11char_traitsIcESaIcEE7_M_dataEv():
/usr/include/c++/10/bits/basic_string.h:195 (discriminator 1)
      { return _M_dataplus._M_p; }
    39ae:	    48 8b 7c 24 10       	mov    0x10(%rsp),%rdi
_ZNSt7__cxx1112basic_stringIcSt11char_traitsIcESaIcEE10_M_disposeEv():
/usr/include/c++/10/bits/basic_string.h:239 (discriminator 1)
	if (!_M_is_local())
    39b3:	    48 39 df             	cmp    %rbx,%rdi
    39b6:	/-- 74 05                	je     39bd <_Z9PrintStepRKNSt7__cxx1112basic_stringIcSt11char_traitsIcESaIcEEEl.cold+0xf>
_ZN9__gnu_cxx13new_allocatorIcE10deallocateEPcm():
/usr/include/c++/10/ext/new_allocator.h:139
	::operator delete(__p
    39b8:	|   e8 13 fd ff ff       	callq  36d0 <_ZdlPv@plt>
_ZN9__gnu_cxx13new_allocatorIcED4Ev():
/usr/include/c++/10/ext/new_allocator.h:89
      ~new_allocator() _GLIBCXX_USE_NOEXCEPT { }
    39bd:	\-> 48 89 ef             	mov    %rbp,%rdi
    39c0:	    e8 3b ff ff ff       	callq  3900 <_Unwind_Resume@plt>

00000000000039c5 <_Z9PrintStepidl.cold>:
_ZNKSt7__cxx1112basic_stringIcSt11char_traitsIcESaIcEE7_M_dataEv():
/usr/include/c++/10/bits/basic_string.h:195 (discriminator 1)
      { return _M_dataplus._M_p; }
    39c5:	    48 8b 7c 24 10       	mov    0x10(%rsp),%rdi
_ZNSt7__cxx1112basic_stringIcSt11char_traitsIcESaIcEE10_M_disposeEv():
/usr/include/c++/10/bits/basic_string.h:239 (discriminator 1)
	if (!_M_is_local())
    39ca:	    48 39 ef             	cmp    %rbp,%rdi
    39cd:	/-- 74 05                	je     39d4 <_Z9PrintStepidl.cold+0xf>
_ZN9__gnu_cxx13new_allocatorIcE10deallocateEPcm():
/usr/include/c++/10/ext/new_allocator.h:139
	::operator delete(__p
    39cf:	|   e8 fc fc ff ff       	callq  36d0 <_ZdlPv@plt>
_ZN9__gnu_cxx13new_allocatorIcED4Ev():
/usr/include/c++/10/ext/new_allocator.h:89
      ~new_allocator() _GLIBCXX_USE_NOEXCEPT { }
    39d4:	\-> 4c 89 e7             	mov    %r12,%rdi
    39d7:	    e8 24 ff ff ff       	callq  3900 <_Unwind_Resume@plt>

00000000000039dc <_Z21SampleFrequentElementRK7pvectorIiEbl.cold>:
_ZNSt13unordered_mapIiiSt4hashIiESt8equal_toIiESaISt4pairIKiiEEED4Ev():
/usr/include/c++/10/bits/unordered_map.h:102
   */
  template<typename _Key, typename _Tp,
	   typename _Hash = hash<_Key>,
	   typename _Pred = equal_to<_Key>,
	   typename _Alloc = allocator<std::pair<const _Key, _Tp>>>
    class unordered_map
    39dc:	4c 89 e7             	mov    %r12,%rdi
    39df:	e8 5c 56 00 00       	callq  9040 <_ZNSt10_HashtableIiSt4pairIKiiESaIS2_ENSt8__detail10_Select1stESt8equal_toIiESt4hashIiENS4_18_Mod_range_hashingENS4_20_Default_ranged_hashENS4_20_Prime_rehash_policyENS4_17_Hashtable_traitsILb0ELb0ELb1EEEED1Ev>
    39e4:	48 89 ef             	mov    %rbp,%rdi
    39e7:	e8 14 ff ff ff       	callq  3900 <_Unwind_Resume@plt>
_ZNSt10_HashtableIiSt4pairIKiiESaIS2_ENSt8__detail10_Select1stESt8equal_toIiESt4hashIiENS4_18_Mod_range_hashingENS4_20_Default_ranged_hashENS4_20_Prime_rehash_policyENS4_17_Hashtable_traitsILb0ELb0ELb1EEEEC4EmRKS9_RKSA_RKSB_RKS7_RKS5_RKS3_():
/usr/include/c++/10/bits/hashtable.h:1048
	       _H1, _H2, _Hash, _RehashPolicy, _Traits>::
    _Hashtable(size_type __bkt_count_hint,
	       const _H1& __h1, const _H2& __h2, const _Hash& __h,
	       const _Equal& __eq, const _ExtractKey& __exk,
	       const allocator_type& __a)
    : _Hashtable(__h1, __h2, __h, __eq, __exk, __a)
    39ec:	48 8d 7c 24 20       	lea    0x20(%rsp),%rdi
    39f1:	e8 4a 56 00 00       	callq  9040 <_ZNSt10_HashtableIiSt4pairIKiiESaIS2_ENSt8__detail10_Select1stESt8equal_toIiESt4hashIiENS4_18_Mod_range_hashingENS4_20_Default_ranged_hashENS4_20_Prime_rehash_policyENS4_17_Hashtable_traitsILb0ELb0ELb1EEEED1Ev>
    39f6:	48 89 ef             	mov    %rbp,%rdi
    39f9:	e8 02 ff ff ff       	callq  3900 <_Unwind_Resume@plt>

00000000000039fe <_Z10CCVerifierRK8CSRGraphIiiLb1EERK7pvectorIiE.cold>:
_ZNSt6vectorIiSaIiEED4Ev():
/usr/include/c++/10/bits/stl_vector.h:680
       *  not touched in any way.  Managing the pointer is the user's
       *  responsibility.
       */
      ~vector() _GLIBCXX_NOEXCEPT
      {
	std::_Destroy(this->_M_impl._M_start, this->_M_impl._M_finish,
    39fe:	    48 8b 7c 24 50       	mov    0x50(%rsp),%rdi
_ZNSt12_Vector_baseIiSaIiEE13_M_deallocateEPim():
/usr/include/c++/10/bits/stl_vector.h:353
	if (__p)
    3a03:	    48 85 ff             	test   %rdi,%rdi
    3a06:	/-- 74 05                	je     3a0d <_Z10CCVerifierRK8CSRGraphIiiLb1EERK7pvectorIiE.cold+0xf>
_ZN9__gnu_cxx13new_allocatorIiE10deallocateEPim():
/usr/include/c++/10/ext/new_allocator.h:139
	::operator delete(__p
    3a08:	|   e8 c3 fc ff ff       	callq  36d0 <_ZdlPv@plt>
_ZN6BitmapD4Ev():
/home/aliha951/forked_gapbs/gapbs/src/bitmap.h:32
    start_ = new uint64_t[num_words];
    end_ = start_ + num_words;
  }

  ~Bitmap() {
    delete[] start_;
    3a0d:	\-> 4c 89 e7             	mov    %r12,%rdi
    3a10:	    4c 8d 64 24 70       	lea    0x70(%rsp),%r12
    3a15:	    e8 96 fd ff ff       	callq  37b0 <_ZdaPv@plt>
_ZNSt13unordered_mapIiiSt4hashIiESt8equal_toIiESaISt4pairIKiiEEED4Ev():
/usr/include/c++/10/bits/unordered_map.h:102
    3a1a:	    4c 89 e7             	mov    %r12,%rdi
    3a1d:	    e8 1e 56 00 00       	callq  9040 <_ZNSt10_HashtableIiSt4pairIKiiESaIS2_ENSt8__detail10_Select1stESt8equal_toIiESt4hashIiENS4_18_Mod_range_hashingENS4_20_Default_ranged_hashENS4_20_Prime_rehash_policyENS4_17_Hashtable_traitsILb0ELb0ELb1EEEED1Ev>
    3a22:	    48 89 ef             	mov    %rbp,%rdi
    3a25:	    e8 d6 fe ff ff       	callq  3900 <_Unwind_Resume@plt>

0000000000003a2a <_Z21SampleFrequentElementRK7pvectorIiEbl.constprop.0.cold>:
    3a2a:	4c 89 ef             	mov    %r13,%rdi
    3a2d:	e8 0e 56 00 00       	callq  9040 <_ZNSt10_HashtableIiSt4pairIKiiESaIS2_ENSt8__detail10_Select1stESt8equal_toIiESt4hashIiENS4_18_Mod_range_hashingENS4_20_Default_ranged_hashENS4_20_Prime_rehash_policyENS4_17_Hashtable_traitsILb0ELb0ELb1EEEED1Ev>
    3a32:	48 89 ef             	mov    %rbp,%rdi
    3a35:	e8 c6 fe ff ff       	callq  3900 <_Unwind_Resume@plt>
_ZNSt10_HashtableIiSt4pairIKiiESaIS2_ENSt8__detail10_Select1stESt8equal_toIiESt4hashIiENS4_18_Mod_range_hashingENS4_20_Default_ranged_hashENS4_20_Prime_rehash_policyENS4_17_Hashtable_traitsILb0ELb0ELb1EEEEC4EmRKS9_RKSA_RKSB_RKS7_RKS5_RKS3_():
/usr/include/c++/10/bits/hashtable.h:1048
    3a3a:	48 8d 7c 24 20       	lea    0x20(%rsp),%rdi
    3a3f:	e8 fc 55 00 00       	callq  9040 <_ZNSt10_HashtableIiSt4pairIKiiESaIS2_ENSt8__detail10_Select1stESt8equal_toIiESt4hashIiENS4_18_Mod_range_hashingENS4_20_Default_ranged_hashENS4_20_Prime_rehash_policyENS4_17_Hashtable_traitsILb0ELb0ELb1EEEED1Ev>
    3a44:	48 89 ef             	mov    %rbp,%rdi
    3a47:	e8 b4 fe ff ff       	callq  3900 <_Unwind_Resume@plt>

0000000000003a4c <_Z8AfforestRK8CSRGraphIiiLb1EEbi.cold>:
_ZN7pvectorIiEC4Em():
/home/aliha951/forked_gapbs/gapbs/src/pvector.h:30
  typedef T_* iterator;

  pvector() : start_(nullptr), end_size_(nullptr), end_capacity_(nullptr) {}

  explicit pvector(size_t num_elements) {
    start_ = new T_[num_elements];
    3a4c:	    e8 cf fd ff ff       	callq  3820 <__cxa_throw_bad_array_new_length@plt>
_ZN7pvectorIiE16ReleaseResourcesEv():
/home/aliha951/forked_gapbs/gapbs/src/pvector.h:73
    }
    return *this;
  }

  void ReleaseResources(){
    if (start_ != nullptr) {
    3a51:	    49 8b 3c 24          	mov    (%r12),%rdi
    3a55:	    48 85 ff             	test   %rdi,%rdi
    3a58:	/-- 74 05                	je     3a5f <_Z8AfforestRK8CSRGraphIiiLb1EEbi.cold+0x13>
/home/aliha951/forked_gapbs/gapbs/src/pvector.h:74
      delete[] start_;
    3a5a:	|   e8 51 fd ff ff       	callq  37b0 <_ZdaPv@plt>
    3a5f:	\-> 48 89 ef             	mov    %rbp,%rdi
    3a62:	    e8 99 fe ff ff       	callq  3900 <_Unwind_Resume@plt>

0000000000003a67 <_Z14PrintCompStatsRK8CSRGraphIiiLb1EERK7pvectorIiE.cold>:
_ZNSt6vectorISt4pairIiiESaIS1_EED4Ev():
/usr/include/c++/10/bits/stl_vector.h:680
	std::_Destroy(this->_M_impl._M_start, this->_M_impl._M_finish,
    3a67:	    48 8b 7c 24 30       	mov    0x30(%rsp),%rdi
_ZNSt12_Vector_baseISt4pairIiiESaIS1_EE13_M_deallocateEPS1_m():
/usr/include/c++/10/bits/stl_vector.h:353
	if (__p)
    3a6c:	    48 85 ff             	test   %rdi,%rdi
    3a6f:	/-- 74 05                	je     3a76 <_Z14PrintCompStatsRK8CSRGraphIiiLb1EERK7pvectorIiE.cold+0xf>
_ZN9__gnu_cxx13new_allocatorISt4pairIiiEE10deallocateEPS2_m():
/usr/include/c++/10/ext/new_allocator.h:139
    3a71:	|   e8 5a fc ff ff       	callq  36d0 <_ZdlPv@plt>
_ZN9__gnu_cxx13new_allocatorISt4pairIiiEED4Ev():
/usr/include/c++/10/ext/new_allocator.h:89
      ~new_allocator() _GLIBCXX_USE_NOEXCEPT { }
    3a76:	\-> 4c 8d 64 24 50       	lea    0x50(%rsp),%r12
_ZNSt6vectorISt4pairIiiESaIS1_EED4Ev():
/usr/include/c++/10/bits/stl_vector.h:680
	std::_Destroy(this->_M_impl._M_start, this->_M_impl._M_finish,
    3a7b:	    48 8b 7c 24 10       	mov    0x10(%rsp),%rdi
_ZNSt12_Vector_baseISt4pairIiiESaIS1_EE13_M_deallocateEPS1_m():
/usr/include/c++/10/bits/stl_vector.h:353
	if (__p)
    3a80:	    48 85 ff             	test   %rdi,%rdi
    3a83:	/-- 74 05                	je     3a8a <_Z14PrintCompStatsRK8CSRGraphIiiLb1EERK7pvectorIiE.cold+0x23>
_ZN9__gnu_cxx13new_allocatorISt4pairIiiEE10deallocateEPS2_m():
/usr/include/c++/10/ext/new_allocator.h:139
	::operator delete(__p
    3a85:	|   e8 46 fc ff ff       	callq  36d0 <_ZdlPv@plt>
_ZNSt13unordered_mapIiiSt4hashIiESt8equal_toIiESaISt4pairIKiiEEED4Ev():
/usr/include/c++/10/bits/unordered_map.h:102
    3a8a:	\-> 4c 89 e7             	mov    %r12,%rdi
    3a8d:	    e8 ae 55 00 00       	callq  9040 <_ZNSt10_HashtableIiSt4pairIKiiESaIS2_ENSt8__detail10_Select1stESt8equal_toIiESt4hashIiENS4_18_Mod_range_hashingENS4_20_Default_ranged_hashENS4_20_Prime_rehash_policyENS4_17_Hashtable_traitsILb0ELb0ELb1EEEED1Ev>
    3a92:	    48 89 df             	mov    %rbx,%rdi
    3a95:	    e8 66 fe ff ff       	callq  3900 <_Unwind_Resume@plt>

0000000000003a9a <main.cold>:
_ZN7pvectorIiEC4Em():
/home/aliha951/forked_gapbs/gapbs/src/pvector.h:30
    start_ = new T_[num_elements];
    3a9a:	             e8 81 fd ff ff       	callq  3820 <__cxa_throw_bad_array_new_length@plt>
    3a9f:	             f3 0f 1e fa          	endbr64 
    3aa3:	             48 89 c3             	mov    %rax,%rbx
_ZN8CSRGraphIiiLb1EED4Ev():
/home/aliha951/forked_gapbs/gapbs/src/graph.h:166
      other.in_index_ = nullptr;
      other.in_neighbors_ = nullptr;
  }

  ~CSRGraph() {
    ReleaseResources();
    3aa6:	/----------> 48 8b 7c 24 30       	mov    0x30(%rsp),%rdi
    3aab:	|            e8 60 57 00 00       	callq  9210 <_ZN8CSRGraphIiiLb1EE16ReleaseResourcesEv>
_ZN5CLAppD4Ev():
/home/aliha951/forked_gapbs/gapbs/src/command_line.h:114
  bool in_place() const { return in_place_; }
};



class CLApp : public CLBase {
    3ab0:	|            48 8b 7c 24 38       	mov    0x38(%rsp),%rdi
    3ab5:	|            48 8d 05 dc 2d 01 00 	lea    0x12ddc(%rip),%rax        # 16898 <_ZTV5CLApp+0x10>
    3abc:	|            48 89 84 24 20 01 00 	mov    %rax,0x120(%rsp)
    3ac3:	00 
    3ac4:	|            e8 c7 54 00 00       	callq  8f90 <_ZN6CLBaseD1Ev>
    3ac9:	|            48 89 df             	mov    %rbx,%rdi
    3acc:	|            e8 2f fe ff ff       	callq  3900 <_Unwind_Resume@plt>
_ZN7pvectorIiE16ReleaseResourcesEv():
/home/aliha951/forked_gapbs/gapbs/src/pvector.h:73
    if (start_ != nullptr) {
    3ad1:	|            48 8b 7c 24 60       	mov    0x60(%rsp),%rdi
    3ad6:	|            48 85 ff             	test   %rdi,%rdi
    3ad9:	+----------- 74 cb                	je     3aa6 <main.cold+0xc>
/home/aliha951/forked_gapbs/gapbs/src/pvector.h:74
      delete[] start_;
    3adb:	|            e8 d0 fc ff ff       	callq  37b0 <_ZdaPv@plt>
    3ae0:	+----------- eb c4                	jmp    3aa6 <main.cold+0xc>
_ZNKSt7__cxx1112basic_stringIcSt11char_traitsIcESaIcEE7_M_dataEv():
/usr/include/c++/10/bits/basic_string.h:195
      { return _M_dataplus._M_p; }
    3ae2:	|            48 8b bc 24 00 01 00 	mov    0x100(%rsp),%rdi
    3ae9:	00 
_ZNSt7__cxx1112basic_stringIcSt11char_traitsIcESaIcEE10_M_disposeEv():
/usr/include/c++/10/bits/basic_string.h:239
	if (!_M_is_local())
    3aea:	|            48 8d 84 24 10 01 00 	lea    0x110(%rsp),%rax
    3af1:	00 
    3af2:	|            48 39 c7             	cmp    %rax,%rdi
    3af5:	|        /-- 74 05                	je     3afc <main.cold+0x62>
_ZN9__gnu_cxx13new_allocatorIcE10deallocateEPcm():
/usr/include/c++/10/ext/new_allocator.h:139
    3af7:	|        |   e8 d4 fb ff ff       	callq  36d0 <_ZdlPv@plt>
_ZN9__gnu_cxx13new_allocatorIcED4Ev():
/usr/include/c++/10/ext/new_allocator.h:89
      ~new_allocator() _GLIBCXX_USE_NOEXCEPT { }
    3afc:	|        \-> 48 89 ef             	mov    %rbp,%rdi
    3aff:	|            e8 fc fd ff ff       	callq  3900 <_Unwind_Resume@plt>
_ZNKSt7__cxx1112basic_stringIcSt11char_traitsIcESaIcEE7_M_dataEv():
/usr/include/c++/10/bits/basic_string.h:195
      { return _M_dataplus._M_p; }
    3b04:	|            48 8b bc 24 00 01 00 	mov    0x100(%rsp),%rdi
    3b0b:	00 
_ZNSt7__cxx1112basic_stringIcSt11char_traitsIcESaIcEE10_M_disposeEv():
/usr/include/c++/10/bits/basic_string.h:239
	if (!_M_is_local())
    3b0c:	|            48 39 df             	cmp    %rbx,%rdi
    3b0f:	|     /----- 74 05                	je     3b16 <main.cold+0x7c>
_ZN9__gnu_cxx13new_allocatorIcE10deallocateEPcm():
/usr/include/c++/10/ext/new_allocator.h:139
	::operator delete(__p
    3b11:	|     |      e8 ba fb ff ff       	callq  36d0 <_ZdlPv@plt>
_ZN7pvectorIiE16ReleaseResourcesEv():
/home/aliha951/forked_gapbs/gapbs/src/pvector.h:73
    if (start_ != nullptr) {
    3b16:	|     >----> 48 8b 7c 24 60       	mov    0x60(%rsp),%rdi
    3b1b:	|     |      48 85 ff             	test   %rdi,%rdi
    3b1e:	|  /--|----- 74 53                	je     3b73 <main.cold+0xd9>
/home/aliha951/forked_gapbs/gapbs/src/pvector.h:74
      delete[] start_;
    3b20:	|  |  |      e8 8b fc ff ff       	callq  37b0 <_ZdaPv@plt>
    3b25:	|  +--|----- eb 4c                	jmp    3b73 <main.cold+0xd9>
_ZNKSt7__cxx1112basic_stringIcSt11char_traitsIcESaIcEE7_M_dataEv():
/usr/include/c++/10/bits/basic_string.h:195
      { return _M_dataplus._M_p; }
    3b27:	|  |  |      48 8b bc 24 00 01 00 	mov    0x100(%rsp),%rdi
    3b2e:	00 
_ZNSt7__cxx1112basic_stringIcSt11char_traitsIcESaIcEE10_M_disposeEv():
/usr/include/c++/10/bits/basic_string.h:239
	if (!_M_is_local())
    3b2f:	|  |  |      48 39 df             	cmp    %rbx,%rdi
    3b32:	|  |  |  /-- 74 05                	je     3b39 <main.cold+0x9f>
_ZN9__gnu_cxx13new_allocatorIcE10deallocateEPcm():
/usr/include/c++/10/ext/new_allocator.h:139
    3b34:	|  |  |  |   e8 97 fb ff ff       	callq  36d0 <_ZdlPv@plt>
_ZNKSt7__cxx1112basic_stringIcSt11char_traitsIcESaIcEE7_M_dataEv():
/usr/include/c++/10/bits/basic_string.h:195
      { return _M_dataplus._M_p; }
    3b39:	|  |  |  \-> 48 8b bc 24 e0 00 00 	mov    0xe0(%rsp),%rdi
    3b40:	00 
_ZNSt7__cxx1112basic_stringIcSt11char_traitsIcESaIcEE10_M_disposeEv():
/usr/include/c++/10/bits/basic_string.h:239
	if (!_M_is_local())
    3b41:	|  |  |      4c 39 f7             	cmp    %r14,%rdi
    3b44:	|  |  +----- 74 d0                	je     3b16 <main.cold+0x7c>
_ZN9__gnu_cxx13new_allocatorIcE10deallocateEPcm():
/usr/include/c++/10/ext/new_allocator.h:139
    3b46:	|  |  |      e8 85 fb ff ff       	callq  36d0 <_ZdlPv@plt>
_ZNSt7__cxx1112basic_stringIcSt11char_traitsIcESaIcEE10_M_destroyEm():
/usr/include/c++/10/bits/basic_string.h:245
	  _M_destroy(_M_allocated_capacity);
      }

      void
      _M_destroy(size_type __size) throw()
      { _Alloc_traits::deallocate(_M_get_allocator(), _M_data(), __size + 1); }
    3b4b:	|  |  +----- eb c9                	jmp    3b16 <main.cold+0x7c>
_ZNKSt7__cxx1112basic_stringIcSt11char_traitsIcESaIcEE7_M_dataEv():
/usr/include/c++/10/bits/basic_string.h:195
      { return _M_dataplus._M_p; }
    3b4d:	|  |  |      48 8b bc 24 00 01 00 	mov    0x100(%rsp),%rdi
    3b54:	00 
_ZNSt7__cxx1112basic_stringIcSt11char_traitsIcESaIcEE10_M_disposeEv():
/usr/include/c++/10/bits/basic_string.h:239
	if (!_M_is_local())
    3b55:	|  |  |      48 39 df             	cmp    %rbx,%rdi
    3b58:	|  |  +----- 74 bc                	je     3b16 <main.cold+0x7c>
_ZN9__gnu_cxx13new_allocatorIcE10deallocateEPcm():
/usr/include/c++/10/ext/new_allocator.h:139
    3b5a:	|  |  |      e8 71 fb ff ff       	callq  36d0 <_ZdlPv@plt>
_ZNSt7__cxx1112basic_stringIcSt11char_traitsIcESaIcEE10_M_destroyEm():
/usr/include/c++/10/bits/basic_string.h:245
      { _Alloc_traits::deallocate(_M_get_allocator(), _M_data(), __size + 1); }
    3b5f:	|  |  \----- eb b5                	jmp    3b16 <main.cold+0x7c>
_ZNKSt7__cxx1112basic_stringIcSt11char_traitsIcESaIcEE7_M_dataEv():
/usr/include/c++/10/bits/basic_string.h:195
      { return _M_dataplus._M_p; }
    3b61:	|  |         48 8b bc 24 00 01 00 	mov    0x100(%rsp),%rdi
    3b68:	00 
_ZNSt7__cxx1112basic_stringIcSt11char_traitsIcESaIcEE10_M_disposeEv():
/usr/include/c++/10/bits/basic_string.h:239
	if (!_M_is_local())
    3b69:	|  |         48 39 df             	cmp    %rbx,%rdi
    3b6c:	|  +-------- 74 05                	je     3b73 <main.cold+0xd9>
_ZN9__gnu_cxx13new_allocatorIcE10deallocateEPcm():
/usr/include/c++/10/ext/new_allocator.h:139
    3b6e:	|  |         e8 5d fb ff ff       	callq  36d0 <_ZdlPv@plt>
_ZN9__gnu_cxx13new_allocatorIcED4Ev():
/usr/include/c++/10/ext/new_allocator.h:89
      ~new_allocator() _GLIBCXX_USE_NOEXCEPT { }
    3b73:	|  \-------> 48 89 eb             	mov    %rbp,%rbx
    3b76:	\----------- e9 2b ff ff ff       	jmpq   3aa6 <main.cold+0xc>
main.cold():
    3b7b:	             0f 1f 44 00 00       	nopl   0x0(%rax,%rax,1)

0000000000003b80 <main>:
main():
/home/aliha951/forked_gapbs/gapbs/src/cc.cc:220
      return false;
  return true;
}


int main(int argc, char* argv[]) {
    3b80:	                                                    f3 0f 1e fa          	endbr64 
    3b84:	                                                    41 57                	push   %r15
    3b86:	                                                    41 56                	push   %r14
    3b88:	                                                    41 55                	push   %r13
    3b8a:	                                                    41 54                	push   %r12
    3b8c:	                                                    49 89 f4             	mov    %rsi,%r12
/home/aliha951/forked_gapbs/gapbs/src/cc.cc:221
  CLApp cli(argc, argv, "connected-components-afforest");
    3b8f:	                                                    48 8d 35 df f5 00 00 	lea    0xf5df(%rip),%rsi        # 13175 <_IO_stdin_used+0x175>
/home/aliha951/forked_gapbs/gapbs/src/cc.cc:220
int main(int argc, char* argv[]) {
    3b96:	                                                    55                   	push   %rbp
    3b97:	                                                    89 fd                	mov    %edi,%ebp
    3b99:	                                                    53                   	push   %rbx
    3b9a:	                                                    48 81 ec e8 01 00 00 	sub    $0x1e8,%rsp
    3ba1:	                                                    64 48 8b 04 25 28 00 	mov    %fs:0x28,%rax
    3ba8:	00 00 
    3baa:	                                                    48 89 84 24 d8 01 00 	mov    %rax,0x1d8(%rsp)
    3bb1:	00 
    3bb2:	                                                    31 c0                	xor    %eax,%eax
/home/aliha951/forked_gapbs/gapbs/src/cc.cc:221
  CLApp cli(argc, argv, "connected-components-afforest");
    3bb4:	                                                    4c 8d ac 24 00 01 00 	lea    0x100(%rsp),%r13
    3bbb:	00 
    3bbc:	                                                    4c 89 ef             	mov    %r13,%rdi
    3bbf:	                                                    e8 cc 16 00 00       	callq  5290 <_ZNSt7__cxx1112basic_stringIcSt11char_traitsIcESaIcEEC2EPKcRKS3_.constprop.0>
    3bc4:	                                                    4c 89 e9             	mov    %r13,%rcx
    3bc7:	                                                    4c 89 e2             	mov    %r12,%rdx
    3bca:	                                                    89 ee                	mov    %ebp,%esi
    3bcc:	                                                    48 8d 84 24 20 01 00 	lea    0x120(%rsp),%rax
    3bd3:	00 
    3bd4:	                                                    48 89 c7             	mov    %rax,%rdi
    3bd7:	                                                    48 89 44 24 38       	mov    %rax,0x38(%rsp)
    3bdc:	                                                    e8 ff 6b 00 00       	callq  a7e0 <_ZN5CLAppC1EiPPcNSt7__cxx1112basic_stringIcSt11char_traitsIcESaIcEEE>
_ZNKSt7__cxx1112basic_stringIcSt11char_traitsIcESaIcEE7_M_dataEv():
/usr/include/c++/10/bits/basic_string.h:195
      { return _M_dataplus._M_p; }
    3be1:	                                                    48 8b bc 24 00 01 00 	mov    0x100(%rsp),%rdi
    3be8:	00 
_ZNSt7__cxx1112basic_stringIcSt11char_traitsIcESaIcEE10_M_disposeEv():
/usr/include/c++/10/bits/basic_string.h:239
	if (!_M_is_local())
    3be9:	                                                    48 8d 9c 24 10 01 00 	lea    0x110(%rsp),%rbx
    3bf0:	00 
    3bf1:	                                                    48 39 df             	cmp    %rbx,%rdi
    3bf4:	                                                /-- 74 05                	je     3bfb <main+0x7b>
_ZN9__gnu_cxx13new_allocatorIcE10deallocateEPcm():
/usr/include/c++/10/ext/new_allocator.h:139
	::operator delete(__p
    3bf6:	                                                |   e8 d5 fa ff ff       	callq  36d0 <_ZdlPv@plt>
_ZNSt7__cxx1112basic_stringIcSt11char_traitsIcESaIcEEaSEOS4_():
/usr/include/c++/10/bits/basic_string.h:745
	    || _M_get_allocator() == __str._M_get_allocator())
	  {
	    // Just move the allocated pointer, our allocator can free it.
	    pointer __data = nullptr;
	    size_type __capacity;
	    if (!_M_is_local())
    3bfb:	                                                \-> 48 8d 84 24 a8 01 00 	lea    0x1a8(%rsp),%rax
    3c02:	00 
_ZN6CLBase9HandleArgEaPc():
/home/aliha951/forked_gapbs/gapbs/src/command_line.h:85
    switch (opt) {
    3c03:	                                                    4c 8d 35 3a fa 00 00 	lea    0xfa3a(%rip),%r14        # 13644 <_IO_stdin_used+0x644>
_ZNSt7__cxx1112basic_stringIcSt11char_traitsIcESaIcEEaSEOS4_():
/usr/include/c++/10/bits/basic_string.h:745
    3c0a:	                                                    48 89 04 24          	mov    %rax,(%rsp)
_ZNSt7__cxx1112basic_stringIcSt11char_traitsIcESaIcEE12_M_constructIPKcEEvT_S8_St20forward_iterator_tag():
/usr/include/c++/10/bits/basic_string.tcc:219

	size_type __dnew = static_cast<size_type>(std::distance(__beg, __end));

	if (__dnew > size_type(_S_local_capacity))
	  {
	    _M_data(_M_create(__dnew, size_type(0)));
    3c0e:	                                                    4c 8d bc 24 a0 00 00 	lea    0xa0(%rsp),%r15
    3c15:	00 
_ZN5CLApp9HandleArgEaPc():
/home/aliha951/forked_gapbs/gapbs/src/command_line.h:132
    AddHelpLine('v', "", "verify the output of each run", "false");
    AddHelpLine('l', "", "log performance within each trial", "false");
  }

  void HandleArg(signed char opt, char* opt_arg) override {
    switch (opt) {
    3c16:	                                                    4c 8d 25 cf f9 00 00 	lea    0xf9cf(%rip),%r12        # 135ec <_IO_stdin_used+0x5ec>
    3c1d:	                                                    0f 1f 00             	nopl   (%rax)
_ZN6CLBase9ParseArgsEv():
/home/aliha951/forked_gapbs/gapbs/src/command_line.h:72
    while ((c_opt = getopt(argc_, argv_, get_args_.c_str())) != -1) {
    3c20:	/-------------------------------------------------> 48 8b 94 24 58 01 00 	mov    0x158(%rsp),%rdx
    3c27:	00 
    3c28:	|                                                   48 8b b4 24 30 01 00 	mov    0x130(%rsp),%rsi
    3c2f:	00 
    3c30:	|                                                   8b bc 24 28 01 00 00 	mov    0x128(%rsp),%edi
    3c37:	|                                                   e8 f4 f8 ff ff       	callq  3530 <getopt@plt>
    3c3c:	|                                                   3c ff                	cmp    $0xff,%al
    3c3e:	|                                            /----- 0f 84 8c 00 00 00    	je     3cd0 <main+0x150>
_ZN5CLApp9HandleArgEaPc():
/home/aliha951/forked_gapbs/gapbs/src/command_line.h:132
    switch (opt) {
    3c44:	|                                            |      8d 50 9f             	lea    -0x61(%rax),%edx
_ZN6CLBase9ParseArgsEv():
/home/aliha951/forked_gapbs/gapbs/src/command_line.h:73
      HandleArg(c_opt, optarg);
    3c47:	|                                            |      48 8b 2d f2 33 01 00 	mov    0x133f2(%rip),%rbp        # 17040 <optarg@@GLIBC_2.2.5>
_ZN5CLApp9HandleArgEaPc():
/home/aliha951/forked_gapbs/gapbs/src/command_line.h:132
    switch (opt) {
    3c4e:	|                                            |      80 fa 15             	cmp    $0x15,%dl
    3c51:	|                                            |  /-- 77 0d                	ja     3c60 <main+0xe0>
    3c53:	|                                            |  |   0f b6 d2             	movzbl %dl,%edx
    3c56:	|                                            |  |   49 63 14 94          	movslq (%r12,%rdx,4),%rdx
    3c5a:	|                                            |  |   4c 01 e2             	add    %r12,%rdx
    3c5d:	|                                            |  |   3e ff e2             	notrack jmpq *%rdx
_ZN6CLBase9HandleArgEaPc():
/home/aliha951/forked_gapbs/gapbs/src/command_line.h:85
    switch (opt) {
    3c60:	|                                            |  \-> 83 e8 66             	sub    $0x66,%eax
    3c63:	|                                            |      3c 0f                	cmp    $0xf,%al
    3c65:	+--------------------------------------------|----- 77 b9                	ja     3c20 <main+0xa0>
    3c67:	|                                            |      0f b6 c0             	movzbl %al,%eax
    3c6a:	|                                            |      49 63 04 86          	movslq (%r14,%rax,4),%rax
    3c6e:	|                                            |      4c 01 f0             	add    %r14,%rax
    3c71:	|                                            |      3e ff e0             	notrack jmpq *%rax
_ZN5CLApp9HandleArgEaPc():
/home/aliha951/forked_gapbs/gapbs/src/command_line.h:136
      case 'a': do_analysis_ = true;                    break;
      case 'n': num_trials_ = atoi(opt_arg);            break;
      case 'r': start_vertex_ = atol(opt_arg);          break;
      case 'v': do_verify_ = true;                      break;
    3c74:	|                                            |      c6 84 24 c8 01 00 00 	movb   $0x1,0x1c8(%rsp)
    3c7b:	01 
    3c7c:	+--------------------------------------------|----- eb a2                	jmp    3c20 <main+0xa0>
main():
/usr/include/stdlib.h:368
  return (int) strtol (__nptr, (char **) NULL, 10);
}
__extern_inline long int
__NTH (atol (const char *__nptr))
{
  return strtol (__nptr, (char **) NULL, 10);
    3c7e:	|                                            |      ba 0a 00 00 00       	mov    $0xa,%edx
atol():
/usr/include/stdlib.h:368
    3c83:	|                                            |      31 f6                	xor    %esi,%esi
    3c85:	|                                            |      48 89 ef             	mov    %rbp,%rdi
    3c88:	|                                            |      e8 73 fb ff ff       	callq  3800 <strtol@plt>
_ZN5CLApp9HandleArgEaPc():
/home/aliha951/forked_gapbs/gapbs/src/command_line.h:135
      case 'r': start_vertex_ = atol(opt_arg);          break;
    3c8d:	|                                            |      48 89 84 24 c0 01 00 	mov    %rax,0x1c0(%rsp)
    3c94:	00 
    3c95:	+--------------------------------------------|----- eb 89                	jmp    3c20 <main+0xa0>
main():
/usr/include/stdlib.h:363
  return (int) strtol (__nptr, (char **) NULL, 10);
    3c97:	|                                            |      ba 0a 00 00 00       	mov    $0xa,%edx
atoi():
/usr/include/stdlib.h:363
    3c9c:	|                                            |      31 f6                	xor    %esi,%esi
    3c9e:	|                                            |      48 89 ef             	mov    %rbp,%rdi
    3ca1:	|                                            |      e8 5a fb ff ff       	callq  3800 <strtol@plt>
    3ca6:	|                                            |      89 84 24 bc 01 00 00 	mov    %eax,0x1bc(%rsp)
_ZN5CLApp9HandleArgEaPc():
/home/aliha951/forked_gapbs/gapbs/src/command_line.h:134
      case 'n': num_trials_ = atoi(opt_arg);            break;
    3cad:	+--------------------------------------------|----- e9 6e ff ff ff       	jmpq   3c20 <main+0xa0>
/home/aliha951/forked_gapbs/gapbs/src/command_line.h:137
      case 'l': enable_logging_ = true;                 break;
    3cb2:	|                                            |      c6 84 24 c9 01 00 00 	movb   $0x1,0x1c9(%rsp)
    3cb9:	01 
    3cba:	+--------------------------------------------|----- e9 61 ff ff ff       	jmpq   3c20 <main+0xa0>
/home/aliha951/forked_gapbs/gapbs/src/command_line.h:133
      case 'a': do_analysis_ = true;                    break;
    3cbf:	|                                            |      c6 84 24 bb 01 00 00 	movb   $0x1,0x1bb(%rsp)
    3cc6:	01 
    3cc7:	+--------------------------------------------|----- e9 54 ff ff ff       	jmpq   3c20 <main+0xa0>
    3ccc:	|                                            |      0f 1f 40 00          	nopl   0x0(%rax)
_ZSteqIcSt11char_traitsIcESaIcEEbRKNSt7__cxx1112basic_stringIT_T0_T1_EEPKS5_():
/usr/include/c++/10/bits/basic_string.h:6199
   */
  template<typename _CharT, typename _Traits, typename _Alloc>
    inline bool
    operator==(const basic_string<_CharT, _Traits, _Alloc>& __lhs,
	       const _CharT* __rhs)
    { return __lhs.compare(__rhs) == 0; }
    3cd0:	|                                            \----> 48 8d bc 24 98 01 00 	lea    0x198(%rsp),%rdi
    3cd7:	00 
    3cd8:	|                                                   48 8d 35 07 f4 00 00 	lea    0xf407(%rip),%rsi        # 130e6 <_IO_stdin_used+0xe6>
    3cdf:	|                                                   e8 7c f8 ff ff       	callq  3560 <_ZNKSt7__cxx1112basic_stringIcSt11char_traitsIcESaIcEE7compareEPKc@plt>
_ZN6CLBase9ParseArgsEv():
/home/aliha951/forked_gapbs/gapbs/src/command_line.h:75
    if ((filename_ == "") && (scale_ == -1)) {
    3ce4:	|                                                   85 c0                	test   %eax,%eax
    3ce6:	|                    /----------------------------- 0f 84 3d 03 00 00    	je     4029 <main+0x4a9>
/home/aliha951/forked_gapbs/gapbs/src/command_line.h:79
    if (scale_ != -1)
    3cec:	|                    |                              83 bc 24 90 01 00 00 	cmpl   $0xffffffff,0x190(%rsp)
    3cf3:	ff 
    3cf4:	|                 /--|----------------------------- 0f 85 41 03 00 00    	jne    403b <main+0x4bb>
_ZN11BuilderBaseIiiiLb1EEC4ERK6CLBase():
/home/aliha951/forked_gapbs/gapbs/src/builder.h:50
  bool needs_weights_;
  bool in_place_ = false;
  int64_t num_nodes_ = -1;

 public:
  explicit BuilderBase(const CLBase &cli) : cli_(cli) {
    3cfa:	|              /--|--|----------------------------> 48 8b 44 24 38       	mov    0x38(%rsp),%rax
main():
/home/aliha951/forked_gapbs/gapbs/src/cc.cc:225
  if (!cli.ParseArgs())
    return -1;
  Builder b(cli);
  Graph g = b.MakeGraph();
    3cff:	|              |  |  |                              48 8d 74 24 40       	lea    0x40(%rsp),%rsi
    3d04:	|              |  |  |                              4c 8d b4 24 a0 00 00 	lea    0xa0(%rsp),%r14
    3d0b:	00 
_ZN11BuilderBaseIiiiLb1EEC4ERK6CLBase():
/home/aliha951/forked_gapbs/gapbs/src/builder.h:50
    3d0c:	|              |  |  |                              48 c7 44 24 50 ff ff 	movq   $0xffffffffffffffff,0x50(%rsp)
    3d13:	ff ff 
main():
/home/aliha951/forked_gapbs/gapbs/src/cc.cc:225
    3d15:	|              |  |  |                              4c 89 f7             	mov    %r14,%rdi
_ZN11BuilderBaseIiiiLb1EEC4ERK6CLBase():
/home/aliha951/forked_gapbs/gapbs/src/builder.h:52
    symmetrize_ = cli_.symmetrize();
    needs_weights_ = !std::is_same<NodeID_, DestID_>::value;
    3d18:	|              |  |  |                              c6 44 24 49 00       	movb   $0x0,0x49(%rsp)
/home/aliha951/forked_gapbs/gapbs/src/builder.h:50
  explicit BuilderBase(const CLBase &cli) : cli_(cli) {
    3d1d:	|              |  |  |                              48 89 44 24 40       	mov    %rax,0x40(%rsp)
/home/aliha951/forked_gapbs/gapbs/src/builder.h:51
    symmetrize_ = cli_.symmetrize();
    3d22:	|              |  |  |                              0f b6 84 24 b8 01 00 	movzbl 0x1b8(%rsp),%eax
    3d29:	00 
main():
/home/aliha951/forked_gapbs/gapbs/src/cc.cc:225
    3d2a:	|              |  |  |                              4c 89 74 24 30       	mov    %r14,0x30(%rsp)
_ZN11BuilderBaseIiiiLb1EEC4ERK6CLBase():
/home/aliha951/forked_gapbs/gapbs/src/builder.h:51
    3d2f:	|              |  |  |                              88 44 24 48          	mov    %al,0x48(%rsp)
/home/aliha951/forked_gapbs/gapbs/src/builder.h:53
    in_place_ = cli_.in_place();
    3d33:	|              |  |  |                              0f b6 84 24 ba 01 00 	movzbl 0x1ba(%rsp),%eax
    3d3a:	00 
    3d3b:	|              |  |  |                              88 44 24 4a          	mov    %al,0x4a(%rsp)
main():
/home/aliha951/forked_gapbs/gapbs/src/cc.cc:225
    3d3f:	|              |  |  |                              e8 ac d0 00 00       	callq  10df0 <_ZN11BuilderBaseIiiiLb1EE9MakeGraphEv>
/home/aliha951/forked_gapbs/gapbs/src/benchmark.h:103
template<typename GraphT_, typename GraphFunc, typename AnalysisFunc,
         typename VerifierFunc>
void BenchmarkKernel(const CLApp &cli, const GraphT_ &g,
                     GraphFunc kernel, AnalysisFunc stats,
                     VerifierFunc verify) {
  g.PrintStats();
    3d44:	|              |  |  |                              4c 89 f7             	mov    %r14,%rdi
BenchmarkKernel<CSRGraph<int>, main(int, char**)::<lambda(const Graph&)>, void (*)(const CSRGraph<int>&, const pvector<int>&), bool (*)(const CSRGraph<int>&, const pvector<int>&)>():
/home/aliha951/forked_gapbs/gapbs/src/benchmark.h:103
    3d47:	|              |  |  |                              e8 24 55 00 00       	callq  9270 <_ZNK8CSRGraphIiiLb1EE10PrintStatsEv>
_ZNK5CLApp10num_trialsEv():
/home/aliha951/forked_gapbs/gapbs/src/command_line.h:143
      default: CLBase::HandleArg(opt, opt_arg);
    }
  }

  bool do_analysis() const { return do_analysis_; }
  int num_trials() const { return num_trials_; }
    3d4c:	|              |  |  |                              8b 84 24 bc 01 00 00 	mov    0x1bc(%rsp),%eax
BenchmarkKernel<CSRGraph<int>, main(int, char**)::<lambda(const Graph&)>, void (*)(const CSRGraph<int>&, const pvector<int>&), bool (*)(const CSRGraph<int>&, const pvector<int>&)>():
/home/aliha951/forked_gapbs/gapbs/src/benchmark.h:106
  double total_seconds = 0;
  Timer trial_timer;
  for (int iter=0; iter < cli.num_trials(); iter++) {
    3d53:	|              |  |  |                              85 c0                	test   %eax,%eax
    3d55:	|  /-----------|--|--|----------------------------- 0f 8e 0d 06 00 00    	jle    4368 <main+0x7e8>
    3d5b:	|  |           |  |  |                              48 8d 44 24 60       	lea    0x60(%rsp),%rax
    3d60:	|  |           |  |  |                              66 49 0f 6e fe       	movq   %r14,%xmm7
/home/aliha951/forked_gapbs/gapbs/src/benchmark.h:104
  double total_seconds = 0;
    3d65:	|  |           |  |  |                              66 0f ef c9          	pxor   %xmm1,%xmm1
/home/aliha951/forked_gapbs/gapbs/src/benchmark.h:106
  for (int iter=0; iter < cli.num_trials(); iter++) {
    3d69:	|  |           |  |  |                              45 31 e4             	xor    %r12d,%r12d
    3d6c:	|  |           |  |  |                              48 89 44 24 28       	mov    %rax,0x28(%rsp)
/home/aliha951/forked_gapbs/gapbs/src/benchmark.h:104
  double total_seconds = 0;
    3d71:	|  |           |  |  |                              f2 0f 11 4c 24 18    	movsd  %xmm1,0x18(%rsp)
    3d77:	|  |           |  |  |                              0f 16 7c 24 28       	movhps 0x28(%rsp),%xmm7
    3d7c:	|  |           |  |  |                              0f 29 3c 24          	movaps %xmm7,(%rsp)
_ZN5Timer5StartEv():
/home/aliha951/forked_gapbs/gapbs/src/timer.h:23
class Timer {
 public:
  Timer() {}

  void Start() {
    elapsed_time_ = start_time_ = std::chrono::high_resolution_clock::now();
    3d80:	|  |           |  |  |  /-------------------------> e8 8b f7 ff ff       	callq  3510 <_ZNSt6chrono3_V212system_clock3nowEv@plt>
_Z8AfforestRK8CSRGraphIiiLb1EEbi():
/home/aliha951/forked_gapbs/gapbs/src/cc.cc:97
  pvector<NodeID> comp(g.num_nodes());
    3d85:	|  |           |  |  |  |                           48 8b ac 24 a8 00 00 	mov    0xa8(%rsp),%rbp
    3d8c:	00 
main():
/home/aliha951/forked_gapbs/gapbs/src/cc.cc:226
  auto CCBound = [&cli](const Graph& gr){ return Afforest(gr, cli.logging_en()); };
    3d8d:	|  |           |  |  |  |                           44 0f b6 b4 24 c9 01 	movzbl 0x1c9(%rsp),%r14d
    3d94:	00 00 
_ZN5Timer5StartEv():
/home/aliha951/forked_gapbs/gapbs/src/timer.h:23
    3d96:	|  |           |  |  |  |                           48 89 44 24 20       	mov    %rax,0x20(%rsp)
_ZN7pvectorIiEC4Em():
/home/aliha951/forked_gapbs/gapbs/src/pvector.h:30
    start_ = new T_[num_elements];
    3d9b:	|  |           |  |  |  |                           48 b8 fe ff ff ff ff 	movabs $0x1ffffffffffffffe,%rax
    3da2:	ff ff 1f 
    3da5:	|  |           |  |  |  |                           48 39 c5             	cmp    %rax,%rbp
    3da8:	|  |           |  |  |  |                           0f 87 ec fc ff ff    	ja     3a9a <main.cold>
    3dae:	|  |           |  |  |  |                           48 c1 e5 02          	shl    $0x2,%rbp
    3db2:	|  |           |  |  |  |                           48 89 ef             	mov    %rbp,%rdi
    3db5:	|  |           |  |  |  |                           e8 36 f7 ff ff       	callq  34f0 <_Znam@plt>
/home/aliha951/forked_gapbs/gapbs/src/pvector.h:31
    end_size_ = start_ + num_elements;
    3dba:	|  |           |  |  |  |                           48 01 c5             	add    %rax,%rbp
_Z8AfforestRK8CSRGraphIiiLb1EEbi():
/home/aliha951/forked_gapbs/gapbs/src/cc.cc:100
  #pragma omp parallel for
    3dbd:	|  |           |  |  |  |                           66 0f 6f 24 24       	movdqa (%rsp),%xmm4
    3dc2:	|  |           |  |  |  |                           31 c9                	xor    %ecx,%ecx
    3dc4:	|  |           |  |  |  |                           31 d2                	xor    %edx,%edx
_ZN7pvectorIiEC4Em():
/home/aliha951/forked_gapbs/gapbs/src/pvector.h:31
    3dc6:	|  |           |  |  |  |                           48 89 6c 24 68       	mov    %rbp,0x68(%rsp)
    3dcb:	|  |           |  |  |  |                           48 8d 3d 8e 09 00 00 	lea    0x98e(%rip),%rdi        # 4760 <_Z8AfforestRK8CSRGraphIiiLb1EEbi._omp_fn.0>
_Z8AfforestRK8CSRGraphIiiLb1EEbi():
/home/aliha951/forked_gapbs/gapbs/src/cc.cc:106
  for (int r = 0; r < neighbor_rounds; ++r) {
    3dd2:	|  |           |  |  |  |                           45 31 ff             	xor    %r15d,%r15d
_ZN7pvectorIiEC4Em():
/home/aliha951/forked_gapbs/gapbs/src/pvector.h:32
    end_capacity_ = end_size_;
    3dd5:	|  |           |  |  |  |                           48 89 6c 24 70       	mov    %rbp,0x70(%rsp)
_Z8AfforestRK8CSRGraphIiiLb1EEbi():
/home/aliha951/forked_gapbs/gapbs/src/cc.cc:100
  #pragma omp parallel for
    3dda:	|  |           |  |  |  |                           48 8d ac 24 80 00 00 	lea    0x80(%rsp),%rbp
    3de1:	00 
    3de2:	|  |           |  |  |  |                           48 89 ee             	mov    %rbp,%rsi
_ZN7pvectorIiEC4Em():
/home/aliha951/forked_gapbs/gapbs/src/pvector.h:30
    start_ = new T_[num_elements];
    3de5:	|  |           |  |  |  |                           48 89 44 24 60       	mov    %rax,0x60(%rsp)
_Z8AfforestRK8CSRGraphIiiLb1EEbi():
/home/aliha951/forked_gapbs/gapbs/src/cc.cc:100
    3dea:	|  |           |  |  |  |                           0f 29 a4 24 80 00 00 	movaps %xmm4,0x80(%rsp)
    3df1:	00 
    3df2:	|  |           |  |  |  |                           e8 49 fa ff ff       	callq  3840 <GOMP_parallel@plt>
/home/aliha951/forked_gapbs/gapbs/src/cc.cc:106
  for (int r = 0; r < neighbor_rounds; ++r) {
    3df7:	|  |           |  |  |  |                       /-- eb 0d                	jmp    3e06 <main+0x286>
    3df9:	|  |           |  |  |  |                       |   0f 1f 80 00 00 00 00 	nopl   0x0(%rax)
    3e00:	|  |           |  |  |  |                    /--|-> 41 bf 01 00 00 00    	mov    $0x1,%r15d
/home/aliha951/forked_gapbs/gapbs/src/cc.cc:107
  #pragma omp parallel for schedule(dynamic,16384)
    3e06:	|  |           |  |  |  |                    |  \-> 66 0f 6f 14 24       	movdqa (%rsp),%xmm2
    3e0b:	|  |           |  |  |  |                    |      31 c9                	xor    %ecx,%ecx
    3e0d:	|  |           |  |  |  |                    |      31 d2                	xor    %edx,%edx
    3e0f:	|  |           |  |  |  |                    |      48 89 ee             	mov    %rbp,%rsi
    3e12:	|  |           |  |  |  |                    |      48 8d 3d e7 1e 00 00 	lea    0x1ee7(%rip),%rdi        # 5d00 <_Z8AfforestRK8CSRGraphIiiLb1EEbi._omp_fn.1>
    3e19:	|  |           |  |  |  |                    |      44 89 bc 24 90 00 00 	mov    %r15d,0x90(%rsp)
    3e20:	00 
    3e21:	|  |           |  |  |  |                    |      0f 29 94 24 80 00 00 	movaps %xmm2,0x80(%rsp)
    3e28:	00 
    3e29:	|  |           |  |  |  |                    |      e8 12 fa ff ff       	callq  3840 <GOMP_parallel@plt>
_Z8CompressRK8CSRGraphIiiLb1EER7pvectorIiE():
/home/aliha951/forked_gapbs/gapbs/src/cc.cc:60
  #pragma omp parallel for schedule(dynamic, 16384)
    3e2e:	|  |           |  |  |  |                    |      66 0f 6f 14 24       	movdqa (%rsp),%xmm2
    3e33:	|  |           |  |  |  |                    |      31 c9                	xor    %ecx,%ecx
    3e35:	|  |           |  |  |  |                    |      31 d2                	xor    %edx,%edx
    3e37:	|  |           |  |  |  |                    |      48 89 ee             	mov    %rbp,%rsi
    3e3a:	|  |           |  |  |  |                    |      48 8d 3d 4f 08 00 00 	lea    0x84f(%rip),%rdi        # 4690 <_Z8CompressRK8CSRGraphIiiLb1EER7pvectorIiE._omp_fn.0>
    3e41:	|  |           |  |  |  |                    |      0f 29 94 24 80 00 00 	movaps %xmm2,0x80(%rsp)
    3e48:	00 
    3e49:	|  |           |  |  |  |                    |      e8 f2 f9 ff ff       	callq  3840 <GOMP_parallel@plt>
_Z8AfforestRK8CSRGraphIiiLb1EEbi():
/home/aliha951/forked_gapbs/gapbs/src/cc.cc:106
  for (int r = 0; r < neighbor_rounds; ++r) {
    3e4e:	|  |           |  |  |  |                    |      41 83 ff 01          	cmp    $0x1,%r15d
    3e52:	|  |           |  |  |  |                    \----- 75 ac                	jne    3e00 <main+0x280>
/home/aliha951/forked_gapbs/gapbs/src/cc.cc:120
  NodeID c = SampleFrequentElement(comp, logging_enabled);
    3e54:	|  |           |  |  |  |                           48 8b 7c 24 28       	mov    0x28(%rsp),%rdi
    3e59:	|  |           |  |  |  |                           44 89 f6             	mov    %r14d,%esi
    3e5c:	|  |           |  |  |  |                           e8 9f 2c 00 00       	callq  6b00 <_Z21SampleFrequentElementRK7pvectorIiEbl.constprop.0>
/home/aliha951/forked_gapbs/gapbs/src/cc.cc:123
  if (!g.directed()) {
    3e61:	|  |           |  |  |  |                           80 bc 24 a0 00 00 00 	cmpb   $0x0,0xa0(%rsp)
    3e68:	00 
/home/aliha951/forked_gapbs/gapbs/src/cc.cc:124
    #pragma omp parallel for schedule(dynamic, 16384)
    3e69:	|  |           |  |  |  |                           89 84 24 94 00 00 00 	mov    %eax,0x94(%rsp)
    3e70:	|  |           |  |  |  |                           c7 84 24 90 00 00 00 	movl   $0x2,0x90(%rsp)
    3e77:	02 00 00 00 
/home/aliha951/forked_gapbs/gapbs/src/cc.cc:123
  if (!g.directed()) {
    3e7b:	|  |           |  |  |  |           /-------------- 0f 85 ef 01 00 00    	jne    4070 <main+0x4f0>
/home/aliha951/forked_gapbs/gapbs/src/cc.cc:124
    #pragma omp parallel for schedule(dynamic, 16384)
    3e81:	|  |           |  |  |  |           |               66 0f 6f 3c 24       	movdqa (%rsp),%xmm7
    3e86:	|  |           |  |  |  |           |               31 c9                	xor    %ecx,%ecx
    3e88:	|  |           |  |  |  |           |               31 d2                	xor    %edx,%edx
    3e8a:	|  |           |  |  |  |           |               48 89 ee             	mov    %rbp,%rsi
    3e8d:	|  |           |  |  |  |           |               48 8d 3d 7c 12 00 00 	lea    0x127c(%rip),%rdi        # 5110 <_Z8AfforestRK8CSRGraphIiiLb1EEbi._omp_fn.2>
    3e94:	|  |           |  |  |  |           |               0f 29 bc 24 80 00 00 	movaps %xmm7,0x80(%rsp)
    3e9b:	00 
    3e9c:	|  |           |  |  |  |           |               e8 9f f9 ff ff       	callq  3840 <GOMP_parallel@plt>
_Z8CompressRK8CSRGraphIiiLb1EER7pvectorIiE():
/home/aliha951/forked_gapbs/gapbs/src/cc.cc:60
  #pragma omp parallel for schedule(dynamic, 16384)
    3ea1:	|  |           |  |  |  |           |  /----------> 66 0f 6f 2c 24       	movdqa (%rsp),%xmm5
    3ea6:	|  |           |  |  |  |           |  |            48 8d 3d e3 07 00 00 	lea    0x7e3(%rip),%rdi        # 4690 <_Z8CompressRK8CSRGraphIiiLb1EER7pvectorIiE._omp_fn.0>
    3ead:	|  |           |  |  |  |           |  |            31 c9                	xor    %ecx,%ecx
    3eaf:	|  |           |  |  |  |           |  |            31 d2                	xor    %edx,%edx
    3eb1:	|  |           |  |  |  |           |  |            48 89 ee             	mov    %rbp,%rsi
    3eb4:	|  |           |  |  |  |           |  |            0f 29 ac 24 80 00 00 	movaps %xmm5,0x80(%rsp)
    3ebb:	00 
    3ebc:	|  |           |  |  |  |           |  |            e8 7f f9 ff ff       	callq  3840 <GOMP_parallel@plt>
_ZN5Timer4StopEv():
/home/aliha951/forked_gapbs/gapbs/src/timer.h:27
  }

  void Stop() {
    elapsed_time_ = std::chrono::high_resolution_clock::now();
    3ec1:	|  |           |  |  |  |           |  |            e8 4a f6 ff ff       	callq  3510 <_ZNSt6chrono3_V212system_clock3nowEv@plt>
_ZNSt6chrono20__duration_cast_implINS_8durationIdSt5ratioILl1ELl1EEEES2_ILl1ELl1000000000EEdLb1ELb0EE6__castIlS5_EES4_RKNS1_IT_T0_EE():
/usr/include/c++/10/chrono:214
	  static constexpr _ToDur
	  __cast(const duration<_Rep, _Period>& __d)
	  {
	    typedef typename _ToDur::rep			__to_rep;
	    return _ToDur(static_cast<__to_rep>(
	      static_cast<_CR>(__d.count()) / static_cast<_CR>(_CF::den)));
    3ec6:	|  |           |  |  |  |           |  |            66 0f ef c0          	pxor   %xmm0,%xmm0
_ZNSt6chronomiIlSt5ratioILl1ELl1000000000EElS2_EENSt11common_typeIJNS_8durationIT_T0_EENS4_IT1_T2_EEEE4typeERKS7_RKSA_():
/usr/include/c++/10/chrono:614
		const duration<_Rep2, _Period2>& __rhs)
      {
	typedef duration<_Rep1, _Period1>			__dur1;
	typedef duration<_Rep2, _Period2>			__dur2;
	typedef typename common_type<__dur1,__dur2>::type	__cd;
	return __cd(__cd(__lhs).count() - __cd(__rhs).count());
    3eca:	|  |           |  |  |  |           |  |            48 2b 44 24 20       	sub    0x20(%rsp),%rax
BenchmarkKernel<CSRGraph<int>, main(int, char**)::<lambda(const Graph&)>, void (*)(const CSRGraph<int>&, const pvector<int>&), bool (*)(const CSRGraph<int>&, const pvector<int>&)>():
/home/aliha951/forked_gapbs/gapbs/src/benchmark.h:110
    trial_timer.Start();
    auto result = kernel(g);
    trial_timer.Stop();
    PrintTime("Trial Time", trial_timer.Seconds());
    3ecf:	|  |           |  |  |  |           |  |            4c 89 ef             	mov    %r13,%rdi
_ZNSt6chrono20__duration_cast_implINS_8durationIdSt5ratioILl1ELl1EEEES2_ILl1ELl1000000000EEdLb1ELb0EE6__castIlS5_EES4_RKNS1_IT_T0_EE():
/usr/include/c++/10/chrono:214
	      static_cast<_CR>(__d.count()) / static_cast<_CR>(_CF::den)));
    3ed2:	|  |           |  |  |  |           |  |            f2 48 0f 2a c0       	cvtsi2sd %rax,%xmm0
_ZNSt7__cxx1112basic_stringIcSt11char_traitsIcESaIcEE12_Alloc_hiderC4EPcRKS3_():
/usr/include/c++/10/bits/basic_string.h:165
	: allocator_type(__a), _M_p(__dat) { }
    3ed7:	|  |           |  |  |  |           |  |            48 89 9c 24 00 01 00 	mov    %rbx,0x100(%rsp)
    3ede:	00 
_ZNSt11char_traitsIcE4copyEPcPKcm():
/usr/include/c++/10/bits/char_traits.h:437
	  return __s1;
#ifdef __cpp_lib_is_constant_evaluated
	if (std::is_constant_evaluated())
	  return __gnu_cxx::char_traits<char_type>::copy(__s1, __s2, __n);
#endif
	return static_cast<char_type*>(__builtin_memcpy(__s1, __s2, __n));
    3edf:	|  |           |  |  |  |           |  |            48 b8 54 72 69 61 6c 	movabs $0x6954206c61697254,%rax
    3ee6:	20 54 69 
_ZNSt6chrono20__duration_cast_implINS_8durationIdSt5ratioILl1ELl1EEEES2_ILl1ELl1000000000EEdLb1ELb0EE6__castIlS5_EES4_RKNS1_IT_T0_EE():
/usr/include/c++/10/chrono:214
    3ee9:	|  |           |  |  |  |           |  |            f2 0f 5e 05 df f9 00 	divsd  0xf9df(%rip),%xmm0        # 138d0 <_ZZNSt8__detail18__to_chars_10_implIjEEvPcjT_E8__digits+0x230>
    3ef0:	00 
_ZNSt11char_traitsIcE4copyEPcPKcm():
/usr/include/c++/10/bits/char_traits.h:437
    3ef1:	|  |           |  |  |  |           |  |            48 89 03             	mov    %rax,(%rbx)
    3ef4:	|  |           |  |  |  |           |  |            b8 6d 65 00 00       	mov    $0x656d,%eax
    3ef9:	|  |           |  |  |  |           |  |            66 89 43 08          	mov    %ax,0x8(%rbx)
_ZNSt6chrono20__duration_cast_implINS_8durationIdSt5ratioILl1ELl1EEEES2_ILl1ELl1000000000EEdLb1ELb0EE6__castIlS5_EES4_RKNS1_IT_T0_EE():
/usr/include/c++/10/chrono:214
    3efd:	|  |           |  |  |  |           |  |            f2 0f 11 44 24 20    	movsd  %xmm0,0x20(%rsp)
_ZNSt7__cxx1112basic_stringIcSt11char_traitsIcESaIcEE9_M_lengthEm():
/usr/include/c++/10/bits/basic_string.h:191
      { _M_string_length = __length; }
    3f03:	|  |           |  |  |  |           |  |            48 c7 84 24 08 01 00 	movq   $0xa,0x108(%rsp)
    3f0a:	00 0a 00 00 00 
_ZNSt11char_traitsIcE6assignERcRKc():
/usr/include/c++/10/bits/char_traits.h:357
      { __c1 = __c2; }
    3f0f:	|  |           |  |  |  |           |  |            c6 84 24 1a 01 00 00 	movb   $0x0,0x11a(%rsp)
    3f16:	00 
BenchmarkKernel<CSRGraph<int>, main(int, char**)::<lambda(const Graph&)>, void (*)(const CSRGraph<int>&, const pvector<int>&), bool (*)(const CSRGraph<int>&, const pvector<int>&)>():
/home/aliha951/forked_gapbs/gapbs/src/benchmark.h:110
    3f17:	|  |           |  |  |  |           |  |            e8 54 16 00 00       	callq  5570 <_Z9PrintTimeRKNSt7__cxx1112basic_stringIcSt11char_traitsIcESaIcEEEd>
_ZNKSt7__cxx1112basic_stringIcSt11char_traitsIcESaIcEE7_M_dataEv():
/usr/include/c++/10/bits/basic_string.h:195
      { return _M_dataplus._M_p; }
    3f1c:	|  |           |  |  |  |           |  |            48 8b bc 24 00 01 00 	mov    0x100(%rsp),%rdi
    3f23:	00 
_ZNSt7__cxx1112basic_stringIcSt11char_traitsIcESaIcEE10_M_disposeEv():
/usr/include/c++/10/bits/basic_string.h:239
	if (!_M_is_local())
    3f24:	|  |           |  |  |  |           |  |            48 39 df             	cmp    %rbx,%rdi
    3f27:	|  |           |  |  |  |           |  |        /-- 74 05                	je     3f2e <main+0x3ae>
_ZN9__gnu_cxx13new_allocatorIcE10deallocateEPcm():
/usr/include/c++/10/ext/new_allocator.h:139
    3f29:	|  |           |  |  |  |           |  |        |   e8 a2 f7 ff ff       	callq  36d0 <_ZdlPv@plt>
BenchmarkKernel<CSRGraph<int>, main(int, char**)::<lambda(const Graph&)>, void (*)(const CSRGraph<int>&, const pvector<int>&), bool (*)(const CSRGraph<int>&, const pvector<int>&)>():
/home/aliha951/forked_gapbs/gapbs/src/benchmark.h:111
    total_seconds += trial_timer.Seconds();
    3f2e:	|  |           |  |  |  |           |  |        \-> f2 0f 10 5c 24 18    	movsd  0x18(%rsp),%xmm3
    3f34:	|  |           |  |  |  |           |  |            f2 0f 58 5c 24 20    	addsd  0x20(%rsp),%xmm3
/home/aliha951/forked_gapbs/gapbs/src/benchmark.h:112
    if (cli.do_analysis() && (iter == (cli.num_trials()-1)))
    3f3a:	|  |           |  |  |  |           |  |            80 bc 24 bb 01 00 00 	cmpb   $0x0,0x1bb(%rsp)
    3f41:	00 
/home/aliha951/forked_gapbs/gapbs/src/benchmark.h:111
    total_seconds += trial_timer.Seconds();
    3f42:	|  |           |  |  |  |           |  |            f2 0f 11 5c 24 18    	movsd  %xmm3,0x18(%rsp)
/home/aliha951/forked_gapbs/gapbs/src/benchmark.h:112
    if (cli.do_analysis() && (iter == (cli.num_trials()-1)))
    3f48:	|  |           |  |  |  |  /--------|--|----------- 74 13                	je     3f5d <main+0x3dd>
    3f4a:	|  |           |  |  |  |  |        |  |            8b 84 24 bc 01 00 00 	mov    0x1bc(%rsp),%eax
    3f51:	|  |           |  |  |  |  |        |  |            83 e8 01             	sub    $0x1,%eax
    3f54:	|  |           |  |  |  |  |        |  |            41 39 c4             	cmp    %eax,%r12d
    3f57:	|  |           |  |  |  |  |  /-----|--|----------- 0f 84 c3 02 00 00    	je     4220 <main+0x6a0>
/home/aliha951/forked_gapbs/gapbs/src/benchmark.h:114
      stats(g, result);
    if (cli.do_verify()) {
    3f5d:	|  |           |  |  |  |  >--|-----|--|----------> 80 bc 24 c8 01 00 00 	cmpb   $0x0,0x1c8(%rsp)
    3f64:	00 
    3f65:	|  |           |  |  |  |  |  |     |  |  /-------- 0f 85 4d 01 00 00    	jne    40b8 <main+0x538>
_ZN7pvectorIiE16ReleaseResourcesEv():
/home/aliha951/forked_gapbs/gapbs/src/pvector.h:73
    if (start_ != nullptr) {
    3f6b:	|  |           |  |  |  |  |  |  /--|--|--|-------> 48 8b 7c 24 60       	mov    0x60(%rsp),%rdi
    3f70:	|  |           |  |  |  |  |  |  |  |  |  |         48 85 ff             	test   %rdi,%rdi
    3f73:	|  |           |  |  |  |  |  |  |  |  |  |  /----- 0f 84 1f 01 00 00    	je     4098 <main+0x518>
/home/aliha951/forked_gapbs/gapbs/src/pvector.h:74
      delete[] start_;
    3f79:	|  |           |  |  |  |  |  |  |  |  |  |  |      e8 32 f8 ff ff       	callq  37b0 <_ZdaPv@plt>
_ZNK5CLApp10num_trialsEv():
/home/aliha951/forked_gapbs/gapbs/src/command_line.h:143
    3f7e:	|  |           |  |  |  |  |  |  |  |  |  |  |      8b 84 24 bc 01 00 00 	mov    0x1bc(%rsp),%eax
BenchmarkKernel<CSRGraph<int>, main(int, char**)::<lambda(const Graph&)>, void (*)(const CSRGraph<int>&, const pvector<int>&), bool (*)(const CSRGraph<int>&, const pvector<int>&)>():
/home/aliha951/forked_gapbs/gapbs/src/benchmark.h:106
  for (int iter=0; iter < cli.num_trials(); iter++) {
    3f85:	|  |           |  |  |  |  |  |  |  |  |  |  |      41 83 c4 01          	add    $0x1,%r12d
    3f89:	|  |           |  |  |  |  |  |  |  |  |  |  |      41 39 c4             	cmp    %eax,%r12d
    3f8c:	|  |           |  |  |  +--|--|--|--|--|--|--|----- 0f 8c ee fd ff ff    	jl     3d80 <main+0x200>
/home/aliha951/forked_gapbs/gapbs/src/benchmark.h:122
                 verify(std::ref(g), std::ref(result)) ? "PASS" : "FAIL");
      trial_timer.Stop();
      PrintTime("Verification Time", trial_timer.Seconds());
    }
  }
  PrintTime("Average Time", total_seconds / cli.num_trials());
    3f92:	|  |        /--|--|--|--|--|--|--|--|--|--|--|----> 66 0f ef c0          	pxor   %xmm0,%xmm0
    3f96:	|  |        |  |  |  |  |  |  |  |  |  |  |  |      f2 0f 10 4c 24 18    	movsd  0x18(%rsp),%xmm1
    3f9c:	|  |        |  |  |  |  |  |  |  |  |  |  |  |      48 8d 35 f0 f1 00 00 	lea    0xf1f0(%rip),%rsi        # 13193 <_IO_stdin_used+0x193>
    3fa3:	|  |        |  |  |  |  |  |  |  |  |  |  |  |      4c 89 ef             	mov    %r13,%rdi
    3fa6:	|  |        |  |  |  |  |  |  |  |  |  |  |  |      f2 0f 2a c0          	cvtsi2sd %eax,%xmm0
    3faa:	|  |        |  |  |  |  |  |  |  |  |  |  |  |      f2 0f 5e c8          	divsd  %xmm0,%xmm1
    3fae:	|  |        |  |  |  |  |  |  |  |  |  |  |  |      66 48 0f 7e cd       	movq   %xmm1,%rbp
    3fb3:	|  |        |  |  |  |  |  |  |  |  |  |  |  |      e8 d8 12 00 00       	callq  5290 <_ZNSt7__cxx1112basic_stringIcSt11char_traitsIcESaIcEEC2EPKcRKS3_.constprop.0>
    3fb8:	|  |        |  |  |  |  |  |  |  |  |  |  |  |      66 48 0f 6e c5       	movq   %rbp,%xmm0
    3fbd:	|  |        |  |  |  |  |  |  |  |  |  |  |  |      4c 89 ef             	mov    %r13,%rdi
    3fc0:	|  |        |  |  |  |  |  |  |  |  |  |  |  |      e8 ab 15 00 00       	callq  5570 <_Z9PrintTimeRKNSt7__cxx1112basic_stringIcSt11char_traitsIcESaIcEEEd>
_ZNKSt7__cxx1112basic_stringIcSt11char_traitsIcESaIcEE7_M_dataEv():
/usr/include/c++/10/bits/basic_string.h:195
      { return _M_dataplus._M_p; }
    3fc5:	|  |        |  |  |  |  |  |  |  |  |  |  |  |      48 8b bc 24 00 01 00 	mov    0x100(%rsp),%rdi
    3fcc:	00 
_ZNSt7__cxx1112basic_stringIcSt11char_traitsIcESaIcEE10_M_disposeEv():
/usr/include/c++/10/bits/basic_string.h:239
	if (!_M_is_local())
    3fcd:	|  |        |  |  |  |  |  |  |  |  |  |  |  |      48 39 df             	cmp    %rbx,%rdi
    3fd0:	|  |        |  |  |  |  |  |  |  |  |  |  |  |  /-- 74 05                	je     3fd7 <main+0x457>
_ZN9__gnu_cxx13new_allocatorIcE10deallocateEPcm():
/usr/include/c++/10/ext/new_allocator.h:139
    3fd2:	|  |        |  |  |  |  |  |  |  |  |  |  |  |  |   e8 f9 f6 ff ff       	callq  36d0 <_ZdlPv@plt>
_ZN8CSRGraphIiiLb1EED4Ev():
/home/aliha951/forked_gapbs/gapbs/src/graph.h:166
    3fd7:	|  |        |  |  |  |  |  |  |  |  |  |  |  |  \-> 48 8b 7c 24 30       	mov    0x30(%rsp),%rdi
main():
/home/aliha951/forked_gapbs/gapbs/src/cc.cc:228
  BenchmarkKernel(cli, g, CCBound, PrintCompStats, CCVerifier);
  return 0;
    3fdc:	|  |        |  |  |  |  |  |  |  |  |  |  |  |      45 31 e4             	xor    %r12d,%r12d
_ZN8CSRGraphIiiLb1EED4Ev():
/home/aliha951/forked_gapbs/gapbs/src/graph.h:166
    3fdf:	|  |        |  |  |  |  |  |  |  |  |  |  |  |      e8 2c 52 00 00       	callq  9210 <_ZN8CSRGraphIiiLb1EE16ReleaseResourcesEv>
_ZN5CLAppD4Ev():
/home/aliha951/forked_gapbs/gapbs/src/command_line.h:114
class CLApp : public CLBase {
    3fe4:	|  |     /--|--|--|--|--|--|--|--|--|--|--|--|----> 48 8b 7c 24 38       	mov    0x38(%rsp),%rdi
    3fe9:	|  |     |  |  |  |  |  |  |  |  |  |  |  |  |      48 8d 05 a8 28 01 00 	lea    0x128a8(%rip),%rax        # 16898 <_ZTV5CLApp+0x10>
    3ff0:	|  |     |  |  |  |  |  |  |  |  |  |  |  |  |      48 89 84 24 20 01 00 	mov    %rax,0x120(%rsp)
    3ff7:	00 
    3ff8:	|  |     |  |  |  |  |  |  |  |  |  |  |  |  |      e8 93 4f 00 00       	callq  8f90 <_ZN6CLBaseD1Ev>
main():
/home/aliha951/forked_gapbs/gapbs/src/cc.cc:229
}
    3ffd:	|  |     |  |  |  |  |  |  |  |  |  |  |  |  |      48 8b 84 24 d8 01 00 	mov    0x1d8(%rsp),%rax
    4004:	00 
    4005:	|  |     |  |  |  |  |  |  |  |  |  |  |  |  |      64 48 2b 04 25 28 00 	sub    %fs:0x28,%rax
    400c:	00 00 
    400e:	|  |  /--|--|--|--|--|--|--|--|--|--|--|--|--|----- 0f 85 d9 04 00 00    	jne    44ed <main+0x96d>
    4014:	|  |  |  |  |  |  |  |  |  |  |  |  |  |  |  |      48 81 c4 e8 01 00 00 	add    $0x1e8,%rsp
    401b:	|  |  |  |  |  |  |  |  |  |  |  |  |  |  |  |      44 89 e0             	mov    %r12d,%eax
    401e:	|  |  |  |  |  |  |  |  |  |  |  |  |  |  |  |      5b                   	pop    %rbx
    401f:	|  |  |  |  |  |  |  |  |  |  |  |  |  |  |  |      5d                   	pop    %rbp
    4020:	|  |  |  |  |  |  |  |  |  |  |  |  |  |  |  |      41 5c                	pop    %r12
    4022:	|  |  |  |  |  |  |  |  |  |  |  |  |  |  |  |      41 5d                	pop    %r13
    4024:	|  |  |  |  |  |  |  |  |  |  |  |  |  |  |  |      41 5e                	pop    %r14
    4026:	|  |  |  |  |  |  |  |  |  |  |  |  |  |  |  |      41 5f                	pop    %r15
    4028:	|  |  |  |  |  |  |  |  |  |  |  |  |  |  |  |      c3                   	retq   
_ZN6CLBase9ParseArgsEv():
/home/aliha951/forked_gapbs/gapbs/src/command_line.h:75
    if ((filename_ == "") && (scale_ == -1)) {
    4029:	|  |  |  |  |  |  |  \--|--|--|--|--|--|--|--|----> 44 8b a4 24 90 01 00 	mov    0x190(%rsp),%r12d
    4030:	00 
    4031:	|  |  |  |  |  |  |     |  |  |  |  |  |  |  |      41 83 fc ff          	cmp    $0xffffffff,%r12d
    4035:	|  |  |  |  |  |  |  /--|--|--|--|--|--|--|--|----- 0f 84 d3 03 00 00    	je     440e <main+0x88e>
/home/aliha951/forked_gapbs/gapbs/src/command_line.h:80
      symmetrize_ = true;
    403b:	|  |  |  |  |  |  \--|--|--|--|--|--|--|--|--|----> c6 84 24 b8 01 00 00 	movb   $0x1,0x1b8(%rsp)
    4042:	01 
/home/aliha951/forked_gapbs/gapbs/src/command_line.h:77
      return false;
    4043:	|  |  |  |  |  \-----|--|--|--|--|--|--|--|--|----- e9 b2 fc ff ff       	jmpq   3cfa <main+0x17a>
_ZN6CLBase9HandleArgEaPc():
/home/aliha951/forked_gapbs/gapbs/src/command_line.h:91
      case 'u': uniform_ = true; scale_ = atoi(opt_arg);    break;
    4048:	|  |  |  |  |        |  |  |  |  |  |  |  |  |      c6 84 24 b9 01 00 00 	movb   $0x1,0x1b9(%rsp)
    404f:	01 
main():
/usr/include/stdlib.h:363
    4050:	|  |  |  |  |        |  |  |  |  |  |  |  |  |      ba 0a 00 00 00       	mov    $0xa,%edx
atoi():
/usr/include/stdlib.h:363
    4055:	|  |  |  |  |        |  |  |  |  |  |  |  |  |      31 f6                	xor    %esi,%esi
    4057:	|  |  |  |  |        |  |  |  |  |  |  |  |  |      48 89 ef             	mov    %rbp,%rdi
    405a:	|  |  |  |  |        |  |  |  |  |  |  |  |  |      e8 a1 f7 ff ff       	callq  3800 <strtol@plt>
    405f:	|  |  |  |  |        |  |  |  |  |  |  |  |  |      89 84 24 90 01 00 00 	mov    %eax,0x190(%rsp)
_ZN6CLBase9HandleArgEaPc():
/home/aliha951/forked_gapbs/gapbs/src/command_line.h:91
    4066:	+--|--|--|--|--------|--|--|--|--|--|--|--|--|----- e9 b5 fb ff ff       	jmpq   3c20 <main+0xa0>
    406b:	|  |  |  |  |        |  |  |  |  |  |  |  |  |      0f 1f 44 00 00       	nopl   0x0(%rax,%rax,1)
_Z8AfforestRK8CSRGraphIiiLb1EEbi():
/home/aliha951/forked_gapbs/gapbs/src/cc.cc:135
    #pragma omp parallel for schedule(dynamic, 16384)
    4070:	|  |  |  |  |        |  |  |  |  |  \--|--|--|----> 66 0f 6f 0c 24       	movdqa (%rsp),%xmm1
    4075:	|  |  |  |  |        |  |  |  |  |     |  |  |      31 c9                	xor    %ecx,%ecx
    4077:	|  |  |  |  |        |  |  |  |  |     |  |  |      31 d2                	xor    %edx,%edx
    4079:	|  |  |  |  |        |  |  |  |  |     |  |  |      48 89 ee             	mov    %rbp,%rsi
    407c:	|  |  |  |  |        |  |  |  |  |     |  |  |      48 8d 3d 7d 1d 00 00 	lea    0x1d7d(%rip),%rdi        # 5e00 <_Z8AfforestRK8CSRGraphIiiLb1EEbi._omp_fn.3>
    4083:	|  |  |  |  |        |  |  |  |  |     |  |  |      0f 29 8c 24 80 00 00 	movaps %xmm1,0x80(%rsp)
    408a:	00 
    408b:	|  |  |  |  |        |  |  |  |  |     |  |  |      e8 b0 f7 ff ff       	callq  3840 <GOMP_parallel@plt>
    4090:	|  |  |  |  |        |  |  |  |  |     \--|--|----- e9 0c fe ff ff       	jmpq   3ea1 <main+0x321>
    4095:	|  |  |  |  |        |  |  |  |  |        |  |      0f 1f 00             	nopl   (%rax)
_ZNK5CLApp10num_trialsEv():
/home/aliha951/forked_gapbs/gapbs/src/command_line.h:143
  int num_trials() const { return num_trials_; }
    4098:	|  |  |  |  |        |  |  |  |  |        |  \----> 8b 84 24 bc 01 00 00 	mov    0x1bc(%rsp),%eax
BenchmarkKernel<CSRGraph<int>, main(int, char**)::<lambda(const Graph&)>, void (*)(const CSRGraph<int>&, const pvector<int>&), bool (*)(const CSRGraph<int>&, const pvector<int>&)>():
/home/aliha951/forked_gapbs/gapbs/src/benchmark.h:106
  for (int iter=0; iter < cli.num_trials(); iter++) {
    409f:	|  |  |  |  |        |  |  |  |  |        |         41 83 c4 01          	add    $0x1,%r12d
    40a3:	|  |  |  |  |        |  |  |  |  |        |         44 39 e0             	cmp    %r12d,%eax
    40a6:	|  |  |  |  |        |  \--|--|--|--------|-------- 0f 8f d4 fc ff ff    	jg     3d80 <main+0x200>
    40ac:	|  |  |  |  +--------|-----|--|--|--------|-------- e9 e1 fe ff ff       	jmpq   3f92 <main+0x412>
    40b1:	|  |  |  |  |        |     |  |  |        |         0f 1f 80 00 00 00 00 	nopl   0x0(%rax)
_ZN5Timer5StartEv():
/home/aliha951/forked_gapbs/gapbs/src/timer.h:23
    elapsed_time_ = start_time_ = std::chrono::high_resolution_clock::now();
    40b8:	|  |  |  |  |        |     |  |  |        \-------> e8 53 f4 ff ff       	callq  3510 <_ZNSt6chrono3_V212system_clock3nowEv@plt>
BenchmarkKernel<CSRGraph<int>, main(int, char**)::<lambda(const Graph&)>, void (*)(const CSRGraph<int>&, const pvector<int>&), bool (*)(const CSRGraph<int>&, const pvector<int>&)>():
/home/aliha951/forked_gapbs/gapbs/src/benchmark.h:117
                 verify(std::ref(g), std::ref(result)) ? "PASS" : "FAIL");
    40bd:	|  |  |  |  |        |     |  |  |                  48 8b 74 24 28       	mov    0x28(%rsp),%rsi
    40c2:	|  |  |  |  |        |     |  |  |                  48 8b 7c 24 30       	mov    0x30(%rsp),%rdi
_ZN5Timer5StartEv():
/home/aliha951/forked_gapbs/gapbs/src/timer.h:23
    40c7:	|  |  |  |  |        |     |  |  |                  49 89 c7             	mov    %rax,%r15
BenchmarkKernel<CSRGraph<int>, main(int, char**)::<lambda(const Graph&)>, void (*)(const CSRGraph<int>&, const pvector<int>&), bool (*)(const CSRGraph<int>&, const pvector<int>&)>():
/home/aliha951/forked_gapbs/gapbs/src/benchmark.h:117
    40ca:	|  |  |  |  |        |     |  |  |                  e8 d1 24 00 00       	callq  65a0 <_Z10CCVerifierRK8CSRGraphIiiLb1EERK7pvectorIiE>
/home/aliha951/forked_gapbs/gapbs/src/benchmark.h:116
      PrintLabel("Verification",
    40cf:	|  |  |  |  |        |     |  |  |                  3c 01                	cmp    $0x1,%al
_ZNSt7__cxx1112basic_stringIcSt11char_traitsIcESaIcEE12_Alloc_hiderC4EPcRKS3_():
/usr/include/c++/10/bits/basic_string.h:165
	: allocator_type(__a), _M_p(__dat) { }
    40d1:	|  |  |  |  |        |     |  |  |                  48 89 9c 24 00 01 00 	mov    %rbx,0x100(%rsp)
    40d8:	00 
BenchmarkKernel<CSRGraph<int>, main(int, char**)::<lambda(const Graph&)>, void (*)(const CSRGraph<int>&, const pvector<int>&), bool (*)(const CSRGraph<int>&, const pvector<int>&)>():
/home/aliha951/forked_gapbs/gapbs/src/benchmark.h:116
    40d9:	|  |  |  |  |        |     |  |  |                  4c 89 ef             	mov    %r13,%rdi
_ZNSt7__cxx1112basic_stringIcSt11char_traitsIcESaIcEE12_Alloc_hiderC4EPcRKS3_():
/usr/include/c++/10/bits/basic_string.h:165
    40dc:	|  |  |  |  |        |     |  |  |                  4c 8d b4 24 f0 00 00 	lea    0xf0(%rsp),%r14
    40e3:	00 
BenchmarkKernel<CSRGraph<int>, main(int, char**)::<lambda(const Graph&)>, void (*)(const CSRGraph<int>&, const pvector<int>&), bool (*)(const CSRGraph<int>&, const pvector<int>&)>():
/home/aliha951/forked_gapbs/gapbs/src/benchmark.h:116
    40e4:	|  |  |  |  |        |     |  |  |                  19 c0                	sbb    %eax,%eax
_ZNSt11char_traitsIcE4copyEPcPKcm():
/usr/include/c++/10/bits/char_traits.h:437
	return static_cast<char_type*>(__builtin_memcpy(__s1, __s2, __n));
    40e6:	|  |  |  |  |        |     |  |  |                  c7 43 08 74 69 6f 6e 	movl   $0x6e6f6974,0x8(%rbx)
_ZNSt7__cxx1112basic_stringIcSt11char_traitsIcESaIcEE12_Alloc_hiderC4EPcRKS3_():
/usr/include/c++/10/bits/basic_string.h:165
    40ed:	|  |  |  |  |        |     |  |  |                  48 8d b4 24 e0 00 00 	lea    0xe0(%rsp),%rsi
    40f4:	00 
BenchmarkKernel<CSRGraph<int>, main(int, char**)::<lambda(const Graph&)>, void (*)(const CSRGraph<int>&, const pvector<int>&), bool (*)(const CSRGraph<int>&, const pvector<int>&)>():
/home/aliha951/forked_gapbs/gapbs/src/benchmark.h:116
    40f5:	|  |  |  |  |        |     |  |  |                  25 f6 ff f5 f8       	and    $0xf8f5fff6,%eax
_ZNSt7__cxx1112basic_stringIcSt11char_traitsIcESaIcEE12_Alloc_hiderC4EPcRKS3_():
/usr/include/c++/10/bits/basic_string.h:165
    40fa:	|  |  |  |  |        |     |  |  |                  4c 89 b4 24 e0 00 00 	mov    %r14,0xe0(%rsp)
    4101:	00 
BenchmarkKernel<CSRGraph<int>, main(int, char**)::<lambda(const Graph&)>, void (*)(const CSRGraph<int>&, const pvector<int>&), bool (*)(const CSRGraph<int>&, const pvector<int>&)>():
/home/aliha951/forked_gapbs/gapbs/src/benchmark.h:116
    4102:	|  |  |  |  |        |     |  |  |                  05 50 41 53 53       	add    $0x53534150,%eax
_ZNSt11char_traitsIcE6assignERcRKc():
/usr/include/c++/10/bits/char_traits.h:357
      { __c1 = __c2; }
    4107:	|  |  |  |  |        |     |  |  |                  c6 84 24 f4 00 00 00 	movb   $0x0,0xf4(%rsp)
    410e:	00 
_ZNSt11char_traitsIcE4copyEPcPKcm():
/usr/include/c++/10/bits/char_traits.h:437
	return static_cast<char_type*>(__builtin_memcpy(__s1, __s2, __n));
    410f:	|  |  |  |  |        |     |  |  |                  89 84 24 f0 00 00 00 	mov    %eax,0xf0(%rsp)
    4116:	|  |  |  |  |        |     |  |  |                  48 b8 56 65 72 69 66 	movabs $0x6163696669726556,%rax
    411d:	69 63 61 
    4120:	|  |  |  |  |        |     |  |  |                  48 89 03             	mov    %rax,(%rbx)
_ZNSt7__cxx1112basic_stringIcSt11char_traitsIcESaIcEE9_M_lengthEm():
/usr/include/c++/10/bits/basic_string.h:191
      { _M_string_length = __length; }
    4123:	|  |  |  |  |        |     |  |  |                  48 c7 84 24 e8 00 00 	movq   $0x4,0xe8(%rsp)
    412a:	00 04 00 00 00 
    412f:	|  |  |  |  |        |     |  |  |                  48 c7 84 24 08 01 00 	movq   $0xc,0x108(%rsp)
    4136:	00 0c 00 00 00 
_ZNSt11char_traitsIcE6assignERcRKc():
/usr/include/c++/10/bits/char_traits.h:357
      { __c1 = __c2; }
    413b:	|  |  |  |  |        |     |  |  |                  c6 84 24 1c 01 00 00 	movb   $0x0,0x11c(%rsp)
    4142:	00 
BenchmarkKernel<CSRGraph<int>, main(int, char**)::<lambda(const Graph&)>, void (*)(const CSRGraph<int>&, const pvector<int>&), bool (*)(const CSRGraph<int>&, const pvector<int>&)>():
/home/aliha951/forked_gapbs/gapbs/src/benchmark.h:116
    4143:	|  |  |  |  |        |     |  |  |                  e8 b8 12 00 00       	callq  5400 <_Z10PrintLabelRKNSt7__cxx1112basic_stringIcSt11char_traitsIcESaIcEEES6_>
_ZNKSt7__cxx1112basic_stringIcSt11char_traitsIcESaIcEE7_M_dataEv():
/usr/include/c++/10/bits/basic_string.h:195
      { return _M_dataplus._M_p; }
    4148:	|  |  |  |  |        |     |  |  |                  48 8b bc 24 00 01 00 	mov    0x100(%rsp),%rdi
    414f:	00 
_ZNSt7__cxx1112basic_stringIcSt11char_traitsIcESaIcEE10_M_disposeEv():
/usr/include/c++/10/bits/basic_string.h:239
	if (!_M_is_local())
    4150:	|  |  |  |  |        |     |  |  |                  48 39 df             	cmp    %rbx,%rdi
    4153:	|  |  |  |  |        |     |  |  |              /-- 74 05                	je     415a <main+0x5da>
_ZN9__gnu_cxx13new_allocatorIcE10deallocateEPcm():
/usr/include/c++/10/ext/new_allocator.h:139
    4155:	|  |  |  |  |        |     |  |  |              |   e8 76 f5 ff ff       	callq  36d0 <_ZdlPv@plt>
_ZNKSt7__cxx1112basic_stringIcSt11char_traitsIcESaIcEE7_M_dataEv():
/usr/include/c++/10/bits/basic_string.h:195
      { return _M_dataplus._M_p; }
    415a:	|  |  |  |  |        |     |  |  |              \-> 48 8b bc 24 e0 00 00 	mov    0xe0(%rsp),%rdi
    4161:	00 
_ZNSt7__cxx1112basic_stringIcSt11char_traitsIcESaIcEE10_M_disposeEv():
/usr/include/c++/10/bits/basic_string.h:239
	if (!_M_is_local())
    4162:	|  |  |  |  |        |     |  |  |                  4c 39 f7             	cmp    %r14,%rdi
    4165:	|  |  |  |  |        |     |  |  |              /-- 74 05                	je     416c <main+0x5ec>
_ZN9__gnu_cxx13new_allocatorIcE10deallocateEPcm():
/usr/include/c++/10/ext/new_allocator.h:139
    4167:	|  |  |  |  |        |     |  |  |              |   e8 64 f5 ff ff       	callq  36d0 <_ZdlPv@plt>
_ZN5Timer4StopEv():
/home/aliha951/forked_gapbs/gapbs/src/timer.h:27
    elapsed_time_ = std::chrono::high_resolution_clock::now();
    416c:	|  |  |  |  |        |     |  |  |              \-> e8 9f f3 ff ff       	callq  3510 <_ZNSt6chrono3_V212system_clock3nowEv@plt>
_ZNSt6chrono20__duration_cast_implINS_8durationIdSt5ratioILl1ELl1EEEES2_ILl1ELl1000000000EEdLb1ELb0EE6__castIlS5_EES4_RKNS1_IT_T0_EE():
/usr/include/c++/10/chrono:214
    4171:	|  |  |  |  |        |     |  |  |                  66 0f ef c0          	pxor   %xmm0,%xmm0
_ZNSt7__cxx1112basic_stringIcSt11char_traitsIcESaIcEE12_M_constructIPKcEEvT_S8_St20forward_iterator_tag():
/usr/include/c++/10/bits/basic_string.tcc:219
    4175:	|  |  |  |  |        |     |  |  |                  31 d2                	xor    %edx,%edx
    4177:	|  |  |  |  |        |     |  |  |                  48 89 ee             	mov    %rbp,%rsi
_ZNSt6chronomiIlSt5ratioILl1ELl1000000000EElS2_EENSt11common_typeIJNS_8durationIT_T0_EENS4_IT1_T2_EEEE4typeERKS7_RKSA_():
/usr/include/c++/10/chrono:614
	return __cd(__cd(__lhs).count() - __cd(__rhs).count());
    417a:	|  |  |  |  |        |     |  |  |                  4c 29 f8             	sub    %r15,%rax
_ZNSt7__cxx1112basic_stringIcSt11char_traitsIcESaIcEE12_M_constructIPKcEEvT_S8_St20forward_iterator_tag():
/usr/include/c++/10/bits/basic_string.tcc:219
    417d:	|  |  |  |  |        |     |  |  |                  4c 89 ef             	mov    %r13,%rdi
_ZNSt7__cxx1112basic_stringIcSt11char_traitsIcESaIcEE12_Alloc_hiderC4EPcRKS3_():
/usr/include/c++/10/bits/basic_string.h:165
	: allocator_type(__a), _M_p(__dat) { }
    4180:	|  |  |  |  |        |     |  |  |                  48 89 9c 24 00 01 00 	mov    %rbx,0x100(%rsp)
    4187:	00 
_ZNSt6chrono20__duration_cast_implINS_8durationIdSt5ratioILl1ELl1EEEES2_ILl1ELl1000000000EEdLb1ELb0EE6__castIlS5_EES4_RKNS1_IT_T0_EE():
/usr/include/c++/10/chrono:214
	      static_cast<_CR>(__d.count()) / static_cast<_CR>(_CF::den)));
    4188:	|  |  |  |  |        |     |  |  |                  f2 48 0f 2a c0       	cvtsi2sd %rax,%xmm0
_ZNSt7__cxx1112basic_stringIcSt11char_traitsIcESaIcEE12_M_constructIPKcEEvT_S8_St20forward_iterator_tag():
/usr/include/c++/10/bits/basic_string.tcc:215
	size_type __dnew = static_cast<size_type>(std::distance(__beg, __end));
    418d:	|  |  |  |  |        |     |  |  |                  48 c7 84 24 80 00 00 	movq   $0x11,0x80(%rsp)
    4194:	00 11 00 00 00 
_ZNSt6chrono20__duration_cast_implINS_8durationIdSt5ratioILl1ELl1EEEES2_ILl1ELl1000000000EEdLb1ELb0EE6__castIlS5_EES4_RKNS1_IT_T0_EE():
/usr/include/c++/10/chrono:214
    4199:	|  |  |  |  |        |     |  |  |                  f2 0f 5e 05 2f f7 00 	divsd  0xf72f(%rip),%xmm0        # 138d0 <_ZZNSt8__detail18__to_chars_10_implIjEEvPcjT_E8__digits+0x230>
    41a0:	00 
    41a1:	|  |  |  |  |        |     |  |  |                  66 49 0f 7e c6       	movq   %xmm0,%r14
_ZNSt7__cxx1112basic_stringIcSt11char_traitsIcESaIcEE12_M_constructIPKcEEvT_S8_St20forward_iterator_tag():
/usr/include/c++/10/bits/basic_string.tcc:219
	    _M_data(_M_create(__dnew, size_type(0)));
    41a6:	|  |  |  |  |        |     |  |  |                  e8 65 f7 ff ff       	callq  3910 <_ZNSt7__cxx1112basic_stringIcSt11char_traitsIcESaIcEE9_M_createERmm@plt>
_ZNSt7__cxx1112basic_stringIcSt11char_traitsIcESaIcEE11_M_capacityEm():
/usr/include/c++/10/bits/basic_string.h:219
      { _M_allocated_capacity = __capacity; }
    41ab:	|  |  |  |  |        |     |  |  |                  48 8b 94 24 80 00 00 	mov    0x80(%rsp),%rdx
    41b2:	00 
_ZNSt11char_traitsIcE4copyEPcPKcm():
/usr/include/c++/10/bits/char_traits.h:437
	return static_cast<char_type*>(__builtin_memcpy(__s1, __s2, __n));
    41b3:	|  |  |  |  |        |     |  |  |                  66 0f 6f 05 f5 f6 00 	movdqa 0xf6f5(%rip),%xmm0        # 138b0 <_ZZNSt8__detail18__to_chars_10_implIjEEvPcjT_E8__digits+0x210>
    41ba:	00 
_ZNSt7__cxx1112basic_stringIcSt11char_traitsIcESaIcEE7_M_dataEPc():
/usr/include/c++/10/bits/basic_string.h:187
      { _M_dataplus._M_p = __p; }
    41bb:	|  |  |  |  |        |     |  |  |                  48 89 84 24 00 01 00 	mov    %rax,0x100(%rsp)
    41c2:	00 
BenchmarkKernel<CSRGraph<int>, main(int, char**)::<lambda(const Graph&)>, void (*)(const CSRGraph<int>&, const pvector<int>&), bool (*)(const CSRGraph<int>&, const pvector<int>&)>():
/home/aliha951/forked_gapbs/gapbs/src/benchmark.h:119
      PrintTime("Verification Time", trial_timer.Seconds());
    41c3:	|  |  |  |  |        |     |  |  |                  4c 89 ef             	mov    %r13,%rdi
_ZNSt7__cxx1112basic_stringIcSt11char_traitsIcESaIcEE11_M_capacityEm():
/usr/include/c++/10/bits/basic_string.h:219
      { _M_allocated_capacity = __capacity; }
    41c6:	|  |  |  |  |        |     |  |  |                  48 89 94 24 10 01 00 	mov    %rdx,0x110(%rsp)
    41cd:	00 
_ZNSt11char_traitsIcE4copyEPcPKcm():
/usr/include/c++/10/bits/char_traits.h:437
    41ce:	|  |  |  |  |        |     |  |  |                  0f 11 00             	movups %xmm0,(%rax)
BenchmarkKernel<CSRGraph<int>, main(int, char**)::<lambda(const Graph&)>, void (*)(const CSRGraph<int>&, const pvector<int>&), bool (*)(const CSRGraph<int>&, const pvector<int>&)>():
/home/aliha951/forked_gapbs/gapbs/src/benchmark.h:119
    41d1:	|  |  |  |  |        |     |  |  |                  66 49 0f 6e c6       	movq   %r14,%xmm0
_ZNSt11char_traitsIcE4copyEPcPKcm():
/usr/include/c++/10/bits/char_traits.h:437
    41d6:	|  |  |  |  |        |     |  |  |                  c6 40 10 65          	movb   $0x65,0x10(%rax)
_ZNSt7__cxx1112basic_stringIcSt11char_traitsIcESaIcEE12_M_constructIPKcEEvT_S8_St20forward_iterator_tag():
/usr/include/c++/10/bits/basic_string.tcc:232
	  {
	    _M_dispose();
	    __throw_exception_again;
	  }

	_M_set_length(__dnew);
    41da:	|  |  |  |  |        |     |  |  |                  48 8b 84 24 80 00 00 	mov    0x80(%rsp),%rax
    41e1:	00 
_ZNSt11char_traitsIcE6assignERcRKc():
/usr/include/c++/10/bits/char_traits.h:357
      { __c1 = __c2; }
    41e2:	|  |  |  |  |        |     |  |  |                  48 8b 94 24 00 01 00 	mov    0x100(%rsp),%rdx
    41e9:	00 
_ZNSt7__cxx1112basic_stringIcSt11char_traitsIcESaIcEE9_M_lengthEm():
/usr/include/c++/10/bits/basic_string.h:191
      { _M_string_length = __length; }
    41ea:	|  |  |  |  |        |     |  |  |                  48 89 84 24 08 01 00 	mov    %rax,0x108(%rsp)
    41f1:	00 
_ZNSt11char_traitsIcE6assignERcRKc():
/usr/include/c++/10/bits/char_traits.h:357
    41f2:	|  |  |  |  |        |     |  |  |                  c6 04 02 00          	movb   $0x0,(%rdx,%rax,1)
BenchmarkKernel<CSRGraph<int>, main(int, char**)::<lambda(const Graph&)>, void (*)(const CSRGraph<int>&, const pvector<int>&), bool (*)(const CSRGraph<int>&, const pvector<int>&)>():
/home/aliha951/forked_gapbs/gapbs/src/benchmark.h:119
    41f6:	|  |  |  |  |        |     |  |  |                  e8 75 13 00 00       	callq  5570 <_Z9PrintTimeRKNSt7__cxx1112basic_stringIcSt11char_traitsIcESaIcEEEd>
_ZNKSt7__cxx1112basic_stringIcSt11char_traitsIcESaIcEE7_M_dataEv():
/usr/include/c++/10/bits/basic_string.h:195
      { return _M_dataplus._M_p; }
    41fb:	|  |  |  |  |        |     |  |  |                  48 8b bc 24 00 01 00 	mov    0x100(%rsp),%rdi
    4202:	00 
_ZNSt7__cxx1112basic_stringIcSt11char_traitsIcESaIcEE10_M_disposeEv():
/usr/include/c++/10/bits/basic_string.h:239
	if (!_M_is_local())
    4203:	|  |  |  |  |        |     |  |  |                  48 39 df             	cmp    %rbx,%rdi
    4206:	|  |  |  |  |        |     |  |  +----------------- 0f 84 5f fd ff ff    	je     3f6b <main+0x3eb>
_ZN9__gnu_cxx13new_allocatorIcE10deallocateEPcm():
/usr/include/c++/10/ext/new_allocator.h:139
    420c:	|  |  |  |  |        |     |  |  |                  e8 bf f4 ff ff       	callq  36d0 <_ZdlPv@plt>
_ZNSt7__cxx1112basic_stringIcSt11char_traitsIcESaIcEE10_M_destroyEm():
/usr/include/c++/10/bits/basic_string.h:245
      { _Alloc_traits::deallocate(_M_get_allocator(), _M_data(), __size + 1); }
    4211:	|  |  |  |  |        |     |  |  \----------------- e9 55 fd ff ff       	jmpq   3f6b <main+0x3eb>
    4216:	|  |  |  |  |        |     |  |                     66 2e 0f 1f 84 00 00 	nopw   %cs:0x0(%rax,%rax,1)
    421d:	00 00 00 
BenchmarkKernel<CSRGraph<int>, main(int, char**)::<lambda(const Graph&)>, void (*)(const CSRGraph<int>&, const pvector<int>&), bool (*)(const CSRGraph<int>&, const pvector<int>&)>():
/home/aliha951/forked_gapbs/gapbs/src/benchmark.h:113
      stats(g, result);
    4220:	|  |  |  |  |        |     |  \-------------------> 48 8b 74 24 28       	mov    0x28(%rsp),%rsi
    4225:	|  |  |  |  |        |     |                        48 8b 7c 24 30       	mov    0x30(%rsp),%rdi
    422a:	|  |  |  |  |        |     |                        e8 01 2e 00 00       	callq  7030 <_Z14PrintCompStatsRK8CSRGraphIiiLb1EERK7pvectorIiE>
    422f:	|  |  |  |  |        |     \----------------------- e9 29 fd ff ff       	jmpq   3f5d <main+0x3dd>
_ZNSt7__cxx1112basic_stringIcSt11char_traitsIcESaIcEE12_Alloc_hiderC4EPcRKS3_():
/usr/include/c++/10/bits/basic_string.h:165
	: allocator_type(__a), _M_p(__dat) { }
    4234:	|  |  |  |  |        |                              48 89 9c 24 00 01 00 	mov    %rbx,0x100(%rsp)
    423b:	00 
_ZNSt7__cxx1112basic_stringIcSt11char_traitsIcESaIcEEC4EPKcRKS3_():
/usr/include/c++/10/bits/basic_string.h:536
	const _CharT* __end = __s ? __s + traits_type::length(__s)
    423c:	|  |  |  |  |        |                              48 85 ed             	test   %rbp,%rbp
    423f:	|  |  |  |  |        |        /-------------------- 0f 84 bd 01 00 00    	je     4402 <main+0x882>
_ZNSt11char_traitsIcE6lengthEPKc():
/usr/include/c++/10/bits/char_traits.h:399
	return __builtin_strlen(__s);
    4245:	|  |  |  |  |        |        |                     48 89 ef             	mov    %rbp,%rdi
    4248:	|  |  |  |  |        |        |                     e8 83 f3 ff ff       	callq  35d0 <strlen@plt>
    424d:	|  |  |  |  |        |        |                     48 89 44 24 18       	mov    %rax,0x18(%rsp)
_ZNSt7__cxx1112basic_stringIcSt11char_traitsIcESaIcEE12_M_constructIPKcEEvT_S8_St20forward_iterator_tag():
/usr/include/c++/10/bits/basic_string.tcc:215
	size_type __dnew = static_cast<size_type>(std::distance(__beg, __end));
    4252:	|  |  |  |  |        |        |                     48 89 84 24 a0 00 00 	mov    %rax,0xa0(%rsp)
    4259:	00 
/usr/include/c++/10/bits/basic_string.tcc:217
	if (__dnew > size_type(_S_local_capacity))
    425a:	|  |  |  |  |        |        |                     48 83 f8 0f          	cmp    $0xf,%rax
    425e:	|  |  |  |  |        |        |           /-------- 0f 87 24 01 00 00    	ja     4388 <main+0x808>
_ZNSt7__cxx1112basic_stringIcSt11char_traitsIcESaIcEE7_S_copyEPcPKcm():
/usr/include/c++/10/bits/basic_string.h:356
	if (__n == 1)
    4264:	|  |  |  |  |        |        |           |         48 83 7c 24 18 01    	cmpq   $0x1,0x18(%rsp)
    426a:	|  |  |  |  |        |        |           |     /-- 0f 85 07 01 00 00    	jne    4377 <main+0x7f7>
_ZNSt11char_traitsIcE6assignERcRKc():
/usr/include/c++/10/bits/char_traits.h:357
      { __c1 = __c2; }
    4270:	|  |  |  |  |        |        |           |     |   0f b6 45 00          	movzbl 0x0(%rbp),%eax
    4274:	|  |  |  |  |        |        |           |     |   88 84 24 10 01 00 00 	mov    %al,0x110(%rsp)
_ZNSt7__cxx1112basic_stringIcSt11char_traitsIcESaIcEE12_M_constructIPKcEEvT_S8_St20forward_iterator_tag():
/usr/include/c++/10/bits/basic_string.tcc:232
	_M_set_length(__dnew);
    427b:	|  |  |  |  |        |        |        /--|-----|-> 48 8b 84 24 a0 00 00 	mov    0xa0(%rsp),%rax
    4282:	00 
_ZNSt11char_traitsIcE6assignERcRKc():
/usr/include/c++/10/bits/char_traits.h:357
    4283:	|  |  |  |  |        |        |        |  |     |   48 8b 94 24 00 01 00 	mov    0x100(%rsp),%rdx
    428a:	00 
_ZNSt7__cxx1112basic_stringIcSt11char_traitsIcESaIcEE9_M_lengthEm():
/usr/include/c++/10/bits/basic_string.h:191
      { _M_string_length = __length; }
    428b:	|  |  |  |  |        |        |        |  |     |   48 89 84 24 08 01 00 	mov    %rax,0x108(%rsp)
    4292:	00 
_ZNSt11char_traitsIcE6assignERcRKc():
/usr/include/c++/10/bits/char_traits.h:357
    4293:	|  |  |  |  |        |        |        |  |     |   c6 04 02 00          	movb   $0x0,(%rdx,%rax,1)
_ZNKSt7__cxx1112basic_stringIcSt11char_traitsIcESaIcEE7_M_dataEv():
/usr/include/c++/10/bits/basic_string.h:195
      { return _M_dataplus._M_p; }
    4297:	|  |  |  |  |        |        |        |  |     |   48 8b 84 24 00 01 00 	mov    0x100(%rsp),%rax
    429e:	00 
    429f:	|  |  |  |  |        |        |        |  |     |   48 8b bc 24 98 01 00 	mov    0x198(%rsp),%rdi
    42a6:	00 
_ZNSt7__cxx1112basic_stringIcSt11char_traitsIcESaIcEEaSEOS4_():
/usr/include/c++/10/bits/basic_string.h:731
	if (__str._M_is_local())
    42a7:	|  |  |  |  |        |        |        |  |     |   48 39 d8             	cmp    %rbx,%rax
    42aa:	|  |  |  |  |        |        |        |  |  /--|-- 0f 84 12 01 00 00    	je     43c2 <main+0x842>
/usr/include/c++/10/bits/basic_string.h:759
	    _M_capacity(__str._M_allocated_capacity);
    42b0:	|  |  |  |  |        |        |        |  |  |  |   f3 0f 7e 8c 24 10 01 	movq   0x110(%rsp),%xmm1
    42b7:	00 00 
_ZNKSt7__cxx1112basic_stringIcSt11char_traitsIcESaIcEE4sizeEv():
/usr/include/c++/10/bits/basic_string.h:915
      { return _M_string_length; }
    42b9:	|  |  |  |  |        |        |        |  |  |  |   f3 0f 7e 84 24 08 01 	movq   0x108(%rsp),%xmm0
    42c0:	00 00 
_ZNSt7__cxx1112basic_stringIcSt11char_traitsIcESaIcEEaSEOS4_():
/usr/include/c++/10/bits/basic_string.h:745
	    if (!_M_is_local())
    42c2:	|  |  |  |  |        |        |        |  |  |  |   48 3b 3c 24          	cmp    (%rsp),%rdi
    42c6:	|  |  |  |  |        |  /-----|--------|--|--|--|-- 0f 84 d0 01 00 00    	je     449c <main+0x91c>
_ZNSt7__cxx1112basic_stringIcSt11char_traitsIcESaIcEE9_M_lengthEm():
/usr/include/c++/10/bits/basic_string.h:191
      { _M_string_length = __length; }
    42cc:	|  |  |  |  |        |  |     |        |  |  |  |   66 0f 6c c1          	punpcklqdq %xmm1,%xmm0
_ZNSt7__cxx1112basic_stringIcSt11char_traitsIcESaIcEEaSEOS4_():
/usr/include/c++/10/bits/basic_string.h:751
		    __capacity = _M_allocated_capacity;
    42d0:	|  |  |  |  |        |  |     |        |  |  |  |   48 8b 94 24 a8 01 00 	mov    0x1a8(%rsp),%rdx
    42d7:	00 
_ZNSt7__cxx1112basic_stringIcSt11char_traitsIcESaIcEE7_M_dataEPc():
/usr/include/c++/10/bits/basic_string.h:187
      { _M_dataplus._M_p = __p; }
    42d8:	|  |  |  |  |        |  |     |        |  |  |  |   48 89 84 24 98 01 00 	mov    %rax,0x198(%rsp)
    42df:	00 
_ZNSt7__cxx1112basic_stringIcSt11char_traitsIcESaIcEE9_M_lengthEm():
/usr/include/c++/10/bits/basic_string.h:191
      { _M_string_length = __length; }
    42e0:	|  |  |  |  |        |  |     |        |  |  |  |   0f 29 84 24 a0 01 00 	movaps %xmm0,0x1a0(%rsp)
    42e7:	00 
_ZNSt7__cxx1112basic_stringIcSt11char_traitsIcESaIcEEaSEOS4_():
/usr/include/c++/10/bits/basic_string.h:760
	    if (__data)
    42e8:	|  |  |  |  |        |  |     |        |  |  |  |   48 85 ff             	test   %rdi,%rdi
    42eb:	|  |  |  |  |        |  |  /--|--------|--|--|--|-- 0f 84 bf 01 00 00    	je     44b0 <main+0x930>
_ZNSt7__cxx1112basic_stringIcSt11char_traitsIcESaIcEE7_M_dataEPc():
/usr/include/c++/10/bits/basic_string.h:187
      { _M_dataplus._M_p = __p; }
    42f1:	|  |  |  |  |        |  |  |  |        |  |  |  |   48 89 bc 24 00 01 00 	mov    %rdi,0x100(%rsp)
    42f8:	00 
_ZNSt7__cxx1112basic_stringIcSt11char_traitsIcESaIcEE11_M_capacityEm():
/usr/include/c++/10/bits/basic_string.h:219
      { _M_allocated_capacity = __capacity; }
    42f9:	|  |  |  |  |        |  |  |  |        |  |  |  |   48 89 94 24 10 01 00 	mov    %rdx,0x110(%rsp)
    4300:	00 
_ZNKSt7__cxx1112basic_stringIcSt11char_traitsIcESaIcEE7_M_dataEv():
/usr/include/c++/10/bits/basic_string.h:195
      { return _M_dataplus._M_p; }
    4301:	|  |  |  |  |        |  |  |  |  /-----|--|--|--|-> 48 8b 84 24 00 01 00 	mov    0x100(%rsp),%rax
    4308:	00 
_ZNSt7__cxx1112basic_stringIcSt11char_traitsIcESaIcEE9_M_lengthEm():
/usr/include/c++/10/bits/basic_string.h:191
      { _M_string_length = __length; }
    4309:	|  |  |  |  |        |  |  |  |  |     |  |  |  |   48 c7 84 24 08 01 00 	movq   $0x0,0x108(%rsp)
    4310:	00 00 00 00 00 
_ZNSt11char_traitsIcE6assignERcRKc():
/usr/include/c++/10/bits/char_traits.h:357
    4315:	|  |  |  |  |        |  |  |  |  |     |  |  |  |   c6 00 00             	movb   $0x0,(%rax)
_ZNKSt7__cxx1112basic_stringIcSt11char_traitsIcESaIcEE7_M_dataEv():
/usr/include/c++/10/bits/basic_string.h:195
      { return _M_dataplus._M_p; }
    4318:	|  |  |  |  |        |  |  |  |  |     |  |  |  |   48 8b bc 24 00 01 00 	mov    0x100(%rsp),%rdi
    431f:	00 
_ZNSt7__cxx1112basic_stringIcSt11char_traitsIcESaIcEE10_M_disposeEv():
/usr/include/c++/10/bits/basic_string.h:239
	if (!_M_is_local())
    4320:	|  |  |  |  |        |  |  |  |  |     |  |  |  |   48 39 df             	cmp    %rbx,%rdi
    4323:	+--|--|--|--|--------|--|--|--|--|-----|--|--|--|-- 0f 84 f7 f8 ff ff    	je     3c20 <main+0xa0>
_ZN9__gnu_cxx13new_allocatorIcE10deallocateEPcm():
/usr/include/c++/10/ext/new_allocator.h:139
    4329:	|  |  |  |  |        |  |  |  |  |     |  |  |  |   e8 a2 f3 ff ff       	callq  36d0 <_ZdlPv@plt>
_ZN6CLBase9HandleArgEaPc():
/home/aliha951/forked_gapbs/gapbs/src/command_line.h:94
  }
    432e:	+--|--|--|--|--------|--|--|--|--|-----|--|--|--|-- e9 ed f8 ff ff       	jmpq   3c20 <main+0xa0>
main():
/usr/include/stdlib.h:363
    4333:	|  |  |  |  |        |  |  |  |  |     |  |  |  |   ba 0a 00 00 00       	mov    $0xa,%edx
atoi():
/usr/include/stdlib.h:363
    4338:	|  |  |  |  |        |  |  |  |  |     |  |  |  |   31 f6                	xor    %esi,%esi
    433a:	|  |  |  |  |        |  |  |  |  |     |  |  |  |   48 89 ef             	mov    %rbp,%rdi
    433d:	|  |  |  |  |        |  |  |  |  |     |  |  |  |   e8 be f4 ff ff       	callq  3800 <strtol@plt>
    4342:	|  |  |  |  |        |  |  |  |  |     |  |  |  |   89 84 24 94 01 00 00 	mov    %eax,0x194(%rsp)
_ZN6CLBase9HandleArgEaPc():
/home/aliha951/forked_gapbs/gapbs/src/command_line.h:89
      case 'k': degree_ = atoi(opt_arg);                    break;
    4349:	+--|--|--|--|--------|--|--|--|--|-----|--|--|--|-- e9 d2 f8 ff ff       	jmpq   3c20 <main+0xa0>
/home/aliha951/forked_gapbs/gapbs/src/command_line.h:92
      case 'm': in_place_ = true;                           break;
    434e:	|  |  |  |  |        |  |  |  |  |     |  |  |  |   c6 84 24 ba 01 00 00 	movb   $0x1,0x1ba(%rsp)
    4355:	01 
    4356:	+--|--|--|--|--------|--|--|--|--|-----|--|--|--|-- e9 c5 f8 ff ff       	jmpq   3c20 <main+0xa0>
/home/aliha951/forked_gapbs/gapbs/src/command_line.h:90
      case 's': symmetrize_ = true;                         break;
    435b:	|  |  |  |  |        |  |  |  |  |     |  |  |  |   c6 84 24 b8 01 00 00 	movb   $0x1,0x1b8(%rsp)
    4362:	01 
    4363:	\--|--|--|--|--------|--|--|--|--|-----|--|--|--|-- e9 b8 f8 ff ff       	jmpq   3c20 <main+0xa0>
BenchmarkKernel<CSRGraph<int>, main(int, char**)::<lambda(const Graph&)>, void (*)(const CSRGraph<int>&, const pvector<int>&), bool (*)(const CSRGraph<int>&, const pvector<int>&)>():
/home/aliha951/forked_gapbs/gapbs/src/benchmark.h:104
  double total_seconds = 0;
    4368:	   \--|--|--|--------|--|--|--|--|-----|--|--|--|-> 66 0f ef ff          	pxor   %xmm7,%xmm7
    436c:	      |  |  |        |  |  |  |  |     |  |  |  |   f2 0f 11 7c 24 18    	movsd  %xmm7,0x18(%rsp)
    4372:	      |  |  \--------|--|--|--|--|-----|--|--|--|-- e9 1b fc ff ff       	jmpq   3f92 <main+0x412>
_ZNSt11char_traitsIcE4copyEPcPKcm():
/usr/include/c++/10/bits/char_traits.h:431
	if (__n == 0)
    4377:	      |  |           |  |  |  |  |     |  |  |  \-> 48 83 7c 24 18 00    	cmpq   $0x0,0x18(%rsp)
    437d:	      |  |           |  |  |  |  |     +--|--|----- 0f 84 f8 fe ff ff    	je     427b <main+0x6fb>
_ZNKSt7__cxx1112basic_stringIcSt11char_traitsIcESaIcEE7_M_dataEv():
/usr/include/c++/10/bits/basic_string.h:195
      { return _M_dataplus._M_p; }
    4383:	      |  |           |  |  |  |  |     |  |  |      48 89 df             	mov    %rbx,%rdi
    4386:	      |  |           |  |  |  |  |     |  |  |  /-- eb 28                	jmp    43b0 <main+0x830>
_ZNSt7__cxx1112basic_stringIcSt11char_traitsIcESaIcEE12_M_constructIPKcEEvT_S8_St20forward_iterator_tag():
/usr/include/c++/10/bits/basic_string.tcc:219
	    _M_data(_M_create(__dnew, size_type(0)));
    4388:	      |  |           |  |  |  |  |     |  \--|--|-> 31 d2                	xor    %edx,%edx
    438a:	      |  |           |  |  |  |  |     |     |  |   4c 89 fe             	mov    %r15,%rsi
    438d:	      |  |           |  |  |  |  |     |     |  |   4c 89 ef             	mov    %r13,%rdi
    4390:	      |  |           |  |  |  |  |     |     |  |   e8 7b f5 ff ff       	callq  3910 <_ZNSt7__cxx1112basic_stringIcSt11char_traitsIcESaIcEE9_M_createERmm@plt>
_ZNSt7__cxx1112basic_stringIcSt11char_traitsIcESaIcEE7_M_dataEPc():
/usr/include/c++/10/bits/basic_string.h:187
      { _M_dataplus._M_p = __p; }
    4395:	      |  |           |  |  |  |  |     |     |  |   48 89 84 24 00 01 00 	mov    %rax,0x100(%rsp)
    439c:	00 
_ZNSt7__cxx1112basic_stringIcSt11char_traitsIcESaIcEE12_M_constructIPKcEEvT_S8_St20forward_iterator_tag():
/usr/include/c++/10/bits/basic_string.tcc:219
    439d:	      |  |           |  |  |  |  |     |     |  |   48 89 c7             	mov    %rax,%rdi
_ZNSt7__cxx1112basic_stringIcSt11char_traitsIcESaIcEE11_M_capacityEm():
/usr/include/c++/10/bits/basic_string.h:219
      { _M_allocated_capacity = __capacity; }
    43a0:	      |  |           |  |  |  |  |     |     |  |   48 8b 84 24 a0 00 00 	mov    0xa0(%rsp),%rax
    43a7:	00 
    43a8:	      |  |           |  |  |  |  |     |     |  |   48 89 84 24 10 01 00 	mov    %rax,0x110(%rsp)
    43af:	00 
_ZNSt11char_traitsIcE4copyEPcPKcm():
/usr/include/c++/10/bits/char_traits.h:437
	return static_cast<char_type*>(__builtin_memcpy(__s1, __s2, __n));
    43b0:	      |  |           |  |  |  |  |     |     |  \-> 48 8b 54 24 18       	mov    0x18(%rsp),%rdx
    43b5:	      |  |           |  |  |  |  |     |     |      48 89 ee             	mov    %rbp,%rsi
    43b8:	      |  |           |  |  |  |  |     |     |      e8 d3 f2 ff ff       	callq  3690 <memcpy@plt>
    43bd:	      |  |           |  |  |  |  |     \-----|----- e9 b9 fe ff ff       	jmpq   427b <main+0x6fb>
_ZNKSt7__cxx1112basic_stringIcSt11char_traitsIcESaIcEE4sizeEv():
/usr/include/c++/10/bits/basic_string.h:915
      { return _M_string_length; }
    43c2:	      |  |           |  |  |  |  |           \----> 48 8b 94 24 08 01 00 	mov    0x108(%rsp),%rdx
    43c9:	00 
_ZNSt7__cxx1112basic_stringIcSt11char_traitsIcESaIcEEaSEOS4_():
/usr/include/c++/10/bits/basic_string.h:734
	    if (__str.size())
    43ca:	      |  |           |  |  |  |  |                  48 85 d2             	test   %rdx,%rdx
    43cd:	      |  |           |  |  |  |  |  /-------------- 74 22                	je     43f1 <main+0x871>
_ZNSt7__cxx1112basic_stringIcSt11char_traitsIcESaIcEE7_S_copyEPcPKcm():
/usr/include/c++/10/bits/basic_string.h:356
	if (__n == 1)
    43cf:	      |  |           |  |  |  |  |  |               48 83 fa 01          	cmp    $0x1,%rdx
    43d3:	      |  |           |  |  |  |  |  |  /----------- 0f 84 e4 00 00 00    	je     44bd <main+0x93d>
_ZNSt11char_traitsIcE4copyEPcPKcm():
/usr/include/c++/10/bits/char_traits.h:437
    43d9:	      |  |           |  |  |  |  |  |  |            48 89 de             	mov    %rbx,%rsi
    43dc:	      |  |           |  |  |  |  |  |  |            e8 af f2 ff ff       	callq  3690 <memcpy@plt>
    43e1:	      |  |           |  |  |  |  |  |  |            48 8b bc 24 98 01 00 	mov    0x198(%rsp),%rdi
    43e8:	00 
    43e9:	      |  |           |  |  |  |  |  |  |            48 8b 94 24 08 01 00 	mov    0x108(%rsp),%rdx
    43f0:	00 
_ZNSt7__cxx1112basic_stringIcSt11char_traitsIcESaIcEE9_M_lengthEm():
/usr/include/c++/10/bits/basic_string.h:191
      { _M_string_length = __length; }
    43f1:	      |  |           |  |  |  |  |  >--|----------> 48 89 94 24 a0 01 00 	mov    %rdx,0x1a0(%rsp)
    43f8:	00 
_ZNSt11char_traitsIcE6assignERcRKc():
/usr/include/c++/10/bits/char_traits.h:357
      { __c1 = __c2; }
    43f9:	      |  |           |  |  |  |  |  |  |            c6 04 17 00          	movb   $0x0,(%rdi,%rdx,1)
_ZNSt7__cxx1112basic_stringIcSt11char_traitsIcESaIcEE13_M_set_lengthEm():
/usr/include/c++/10/bits/basic_string.h:226
      }
    43fd:	      |  |           |  |  |  |  +--|--|----------- e9 ff fe ff ff       	jmpq   4301 <main+0x781>
_ZNSt7__cxx1112basic_stringIcSt11char_traitsIcESaIcEE12_M_constructIPKcEEvT_S8_St20forward_iterator_tag():
/usr/include/c++/10/bits/basic_string.tcc:212
	  std::__throw_logic_error(__N("basic_string::"
    4402:	      |  |           |  |  |  \--|--|--|----------> 48 8d 3d ff eb 00 00 	lea    0xebff(%rip),%rdi        # 13008 <_IO_stdin_used+0x8>
    4409:	      |  |           |  |  |     |  |  |            e8 72 f2 ff ff       	callq  3680 <_ZSt19__throw_logic_errorPKc@plt>
_ZStlsISt11char_traitsIcEERSt13basic_ostreamIcT_ES5_PKc():
/usr/include/c++/10/ostream:611
    operator<<(basic_ostream<char, _Traits>& __out, const char* __s)
    {
      if (!__s)
	__out.setstate(ios_base::badbit);
      else
	__ostream_insert(__out, __s,
    440e:	      |  |           \--|--|-----|--|--|----------> ba 2b 00 00 00       	mov    $0x2b,%edx
    4413:	      |  |              |  |     |  |  |            48 8d 35 4e ec 00 00 	lea    0xec4e(%rip),%rsi        # 13068 <_IO_stdin_used+0x68>
    441a:	      |  |              |  |     |  |  |            48 8d 3d 5f 2c 01 00 	lea    0x12c5f(%rip),%rdi        # 17080 <_ZSt4cout@@GLIBCXX_3.4>
    4421:	      |  |              |  |     |  |  |            e8 0a f3 ff ff       	callq  3730 <_ZSt16__ostream_insertIcSt11char_traitsIcEERSt13basic_ostreamIT_T0_ES6_PKS3_l@plt>
_ZSt4endlIcSt11char_traitsIcEERSt13basic_ostreamIT_T0_ES6_():
/usr/include/c++/10/ostream:682
   *  for more on this subject.
  */
  template<typename _CharT, typename _Traits>
    inline basic_ostream<_CharT, _Traits>&
    endl(basic_ostream<_CharT, _Traits>& __os)
    { return flush(__os.put(__os.widen('\n'))); }
    4426:	      |  |              |  |     |  |  |            48 8b 05 53 2c 01 00 	mov    0x12c53(%rip),%rax        # 17080 <_ZSt4cout@@GLIBCXX_3.4>
    442d:	      |  |              |  |     |  |  |            48 8d 15 4c 2c 01 00 	lea    0x12c4c(%rip),%rdx        # 17080 <_ZSt4cout@@GLIBCXX_3.4>
    4434:	      |  |              |  |     |  |  |            48 8b 40 e8          	mov    -0x18(%rax),%rax
    4438:	      |  |              |  |     |  |  |            48 8b ac 02 f0 00 00 	mov    0xf0(%rdx,%rax,1),%rbp
    443f:	00 
_ZSt13__check_facetISt5ctypeIcEERKT_PS3_():
/usr/include/c++/10/bits/basic_ios.h:49

  template<typename _Facet>
    inline const _Facet&
    __check_facet(const _Facet* __f)
    {
      if (!__f)
    4440:	      |  |              |  |     |  |  |            48 85 ed             	test   %rbp,%rbp
    4443:	      |  |              |  |     |  |  |  /-------- 0f 84 9f 00 00 00    	je     44e8 <main+0x968>
_ZNKSt5ctypeIcE5widenEc():
/usr/include/c++/10/bits/locale_facets.h:874
       *  @return  The converted character.
      */
      char_type
      widen(char __c) const
      {
	if (_M_widen_ok)
    4449:	      |  |              |  |     |  |  |  |         80 7d 38 00          	cmpb   $0x0,0x38(%rbp)
    444d:	      |  |              |  |     |  |  |  |     /-- 74 10                	je     445f <main+0x8df>
/usr/include/c++/10/bits/locale_facets.h:875
	  return _M_widen[static_cast<unsigned char>(__c)];
    444f:	      |  |              |  |     |  |  |  |     |   0f b6 45 43          	movzbl 0x43(%rbp),%eax
    4453:	      |  |              |  |     |  |  |  |  /--|-- eb 2b                	jmp    4480 <main+0x900>
_ZN6CLBase9HandleArgEaPc():
/home/aliha951/forked_gapbs/gapbs/src/command_line.h:88
      case 'h': PrintUsage();                               break;
    4455:	      |  |              |  |     |  |  |  |  |  |   48 8b 7c 24 38       	mov    0x38(%rsp),%rdi
    445a:	      |  |              |  |     |  |  |  |  |  |   e8 a1 43 00 00       	callq  8800 <_ZN6CLBase10PrintUsageEv>
_ZNKSt5ctypeIcE5widenEc():
/usr/include/c++/10/bits/locale_facets.h:876
	this->_M_widen_init();
    445f:	      |  |              |  |     |  |  |  |  |  \-> 48 89 ef             	mov    %rbp,%rdi
    4462:	      |  |              |  |     |  |  |  |  |      e8 d9 f2 ff ff       	callq  3740 <_ZNKSt5ctypeIcE13_M_widen_initEv@plt>
/usr/include/c++/10/bits/locale_facets.h:877
	return this->do_widen(__c);
    4467:	      |  |              |  |     |  |  |  |  |      48 8b 45 00          	mov    0x0(%rbp),%rax
    446b:	      |  |              |  |     |  |  |  |  |      48 8d 0d 5e 31 00 00 	lea    0x315e(%rip),%rcx        # 75d0 <_ZNKSt5ctypeIcE8do_widenEc>
    4472:	      |  |              |  |     |  |  |  |  |      48 8b 50 30          	mov    0x30(%rax),%rdx
    4476:	      |  |              |  |     |  |  |  |  |      b8 0a 00 00 00       	mov    $0xa,%eax
    447b:	      |  |              |  |     |  |  |  |  |      48 39 ca             	cmp    %rcx,%rdx
    447e:	      |  |              |  |     |  |  |  |  |  /-- 75 5c                	jne    44dc <main+0x95c>
_ZSt4endlIcSt11char_traitsIcEERSt13basic_ostreamIT_T0_ES6_():
/usr/include/c++/10/ostream:682
    4480:	      |  |              |  |     |  |  |  |  >--|-> 0f be f0             	movsbl %al,%esi
    4483:	      |  |              |  |     |  |  |  |  |  |   48 8d 3d f6 2b 01 00 	lea    0x12bf6(%rip),%rdi        # 17080 <_ZSt4cout@@GLIBCXX_3.4>
    448a:	      |  |              |  |     |  |  |  |  |  |   e8 71 f0 ff ff       	callq  3500 <_ZNSo3putEc@plt>
    448f:	      |  |              |  |     |  |  |  |  |  |   48 89 c7             	mov    %rax,%rdi
_ZSt5flushIcSt11char_traitsIcEERSt13basic_ostreamIT_T0_ES6_():
/usr/include/c++/10/ostream:704
   *  This manipulator simply calls the stream's @c flush() member function.
  */
  template<typename _CharT, typename _Traits>
    inline basic_ostream<_CharT, _Traits>&
    flush(basic_ostream<_CharT, _Traits>& __os)
    { return __os.flush(); }
    4492:	      |  |              |  |     |  |  |  |  |  |   e8 c9 f1 ff ff       	callq  3660 <_ZNSo5flushEv@plt>
    4497:	      |  \--------------|--|-----|--|--|--|--|--|-- e9 48 fb ff ff       	jmpq   3fe4 <main+0x464>
_ZNSt7__cxx1112basic_stringIcSt11char_traitsIcESaIcEE7_M_dataEPc():
/usr/include/c++/10/bits/basic_string.h:187
      { _M_dataplus._M_p = __p; }
    449c:	      |                 \--|-----|--|--|--|--|--|-> 48 89 84 24 98 01 00 	mov    %rax,0x198(%rsp)
    44a3:	00 
_ZNSt7__cxx1112basic_stringIcSt11char_traitsIcESaIcEE9_M_lengthEm():
/usr/include/c++/10/bits/basic_string.h:191
      { _M_string_length = __length; }
    44a4:	      |                    |     |  |  |  |  |  |   66 0f 6c c1          	punpcklqdq %xmm1,%xmm0
    44a8:	      |                    |     |  |  |  |  |  |   0f 29 84 24 a0 01 00 	movaps %xmm0,0x1a0(%rsp)
    44af:	00 
_ZNSt7__cxx1112basic_stringIcSt11char_traitsIcESaIcEE7_M_dataEPc():
/usr/include/c++/10/bits/basic_string.h:187
      { _M_dataplus._M_p = __p; }
    44b0:	      |                    \-----|--|--|--|--|--|-> 48 89 9c 24 00 01 00 	mov    %rbx,0x100(%rsp)
    44b7:	00 
    44b8:	      |                          \--|--|--|--|--|-- e9 44 fe ff ff       	jmpq   4301 <main+0x781>
_ZNSt11char_traitsIcE6assignERcRKc():
/usr/include/c++/10/bits/char_traits.h:357
    44bd:	      |                             |  \--|--|--|-> 0f b6 84 24 10 01 00 	movzbl 0x110(%rsp),%eax
    44c4:	00 
    44c5:	      |                             |     |  |  |   88 07                	mov    %al,(%rdi)
    44c7:	      |                             |     |  |  |   48 8b bc 24 98 01 00 	mov    0x198(%rsp),%rdi
    44ce:	00 
    44cf:	      |                             |     |  |  |   48 8b 94 24 08 01 00 	mov    0x108(%rsp),%rdx
    44d6:	00 
    44d7:	      |                             \-----|--|--|-- e9 15 ff ff ff       	jmpq   43f1 <main+0x871>
_ZNKSt5ctypeIcE5widenEc():
/usr/include/c++/10/bits/locale_facets.h:877
    44dc:	      |                                   |  |  \-> be 0a 00 00 00       	mov    $0xa,%esi
    44e1:	      |                                   |  |      48 89 ef             	mov    %rbp,%rdi
    44e4:	      |                                   |  |      ff d2                	callq  *%rdx
    44e6:	      |                                   |  \----- eb 98                	jmp    4480 <main+0x900>
_ZSt13__check_facetISt5ctypeIcEERKT_PS3_():
/usr/include/c++/10/bits/basic_ios.h:50
	__throw_bad_cast();
    44e8:	      |                                   \-------> e8 93 f2 ff ff       	callq  3780 <_ZSt16__throw_bad_castv@plt>
main():
/home/aliha951/forked_gapbs/gapbs/src/cc.cc:229
}
    44ed:	      \-------------------------------------------> e8 2e f2 ff ff       	callq  3720 <__stack_chk_fail@plt>
    44f2:	                                                    f3 0f 1e fa          	endbr64 
_ZN7pvectorIiE16ReleaseResourcesEv():
/home/aliha951/forked_gapbs/gapbs/src/pvector.h:73
    if (start_ != nullptr) {
    44f6:	                                                    48 89 c3             	mov    %rax,%rbx
    44f9:	                                                    e9 d3 f5 ff ff       	jmpq   3ad1 <main.cold+0x37>
    44fe:	                                                    f3 0f 1e fa          	endbr64 
_ZNKSt7__cxx1112basic_stringIcSt11char_traitsIcESaIcEE7_M_dataEv():
/usr/include/c++/10/bits/basic_string.h:195
      { return _M_dataplus._M_p; }
    4502:	                                                    48 89 c5             	mov    %rax,%rbp
    4505:	                                                    e9 d8 f5 ff ff       	jmpq   3ae2 <main.cold+0x48>
    450a:	                                                    f3 0f 1e fa          	endbr64 
_ZN5CLAppD4Ev():
/home/aliha951/forked_gapbs/gapbs/src/command_line.h:114
class CLApp : public CLBase {
    450e:	                                                    48 89 c3             	mov    %rax,%rbx
    4511:	                                                    e9 9a f5 ff ff       	jmpq   3ab0 <main.cold+0x16>
    4516:	                                                    f3 0f 1e fa          	endbr64 
    451a:	                                                    e9 84 f5 ff ff       	jmpq   3aa3 <main.cold+0x9>
    451f:	                                                    f3 0f 1e fa          	endbr64 
_ZN7pvectorIiE16ReleaseResourcesEv():
/home/aliha951/forked_gapbs/gapbs/src/pvector.h:73
    4523:	                                                    48 89 c5             	mov    %rax,%rbp
    4526:	                                                    e9 eb f5 ff ff       	jmpq   3b16 <main.cold+0x7c>
    452b:	                                                    f3 0f 1e fa          	endbr64 
_ZNKSt7__cxx1112basic_stringIcSt11char_traitsIcESaIcEE7_M_dataEv():
/usr/include/c++/10/bits/basic_string.h:195
    452f:	                                                    48 89 c5             	mov    %rax,%rbp
    4532:	                                                    e9 f0 f5 ff ff       	jmpq   3b27 <main.cold+0x8d>
    4537:	                                                    f3 0f 1e fa          	endbr64 
    453b:	                                                    48 89 c5             	mov    %rax,%rbp
    453e:	                                                    e9 0a f6 ff ff       	jmpq   3b4d <main.cold+0xb3>
    4543:	                                                    f3 0f 1e fa          	endbr64 
    4547:	                                                    48 89 c5             	mov    %rax,%rbp
    454a:	                                                    e9 12 f6 ff ff       	jmpq   3b61 <main.cold+0xc7>
    454f:	                                                    f3 0f 1e fa          	endbr64 
    4553:	                                                    48 89 c5             	mov    %rax,%rbp
    4556:	                                                    e9 a9 f5 ff ff       	jmpq   3b04 <main.cold+0x6a>
main():
/usr/include/c++/10/bits/basic_string.h:195
    455b:	                                                    0f 1f 44 00 00       	nopl   0x0(%rax,%rax,1)

0000000000004560 <_GLOBAL__sub_I__Z10PrintLabelRKNSt7__cxx1112basic_stringIcSt11char_traitsIcESaIcEEES6_>:
_GLOBAL__sub_I__Z10PrintLabelRKNSt7__cxx1112basic_stringIcSt11char_traitsIcESaIcEEES6_():
/home/aliha951/forked_gapbs/gapbs/src/cc.cc:229
    4560:	f3 0f 1e fa          	endbr64 
    4564:	48 83 ec 08          	sub    $0x8,%rsp
/usr/include/c++/10/iostream:74
  extern wostream wclog;	/// Linked to standard error (buffered)
#endif
  ///@}

  // For construction of filebuffers for cout, cin, cerr, clog et. al.
  static ios_base::Init __ioinit;
    4568:	48 8d 3d 22 2c 01 00 	lea    0x12c22(%rip),%rdi        # 17191 <_ZStL8__ioinit>
__static_initialization_and_destruction_0():
/usr/include/c++/10/iostream:74
    456f:	e8 ec f2 ff ff       	callq  3860 <_ZNSt8ios_base4InitC1Ev@plt>
    4574:	48 8b 3d 7d 2a 01 00 	mov    0x12a7d(%rip),%rdi        # 16ff8 <_ZNSt8ios_base4InitD1Ev@GLIBCXX_3.4>
_GLOBAL__sub_I__Z10PrintLabelRKNSt7__cxx1112basic_stringIcSt11char_traitsIcESaIcEEES6_():
/home/aliha951/forked_gapbs/gapbs/src/cc.cc:229
    457b:	48 83 c4 08          	add    $0x8,%rsp
__static_initialization_and_destruction_0():
/usr/include/c++/10/iostream:74
    457f:	48 8d 15 82 2a 01 00 	lea    0x12a82(%rip),%rdx        # 17008 <__dso_handle>
    4586:	48 8d 35 04 2c 01 00 	lea    0x12c04(%rip),%rsi        # 17191 <_ZStL8__ioinit>
    458d:	e9 1e f1 ff ff       	jmpq   36b0 <__cxa_atexit@plt>
_GLOBAL__sub_I__Z10PrintLabelRKNSt7__cxx1112basic_stringIcSt11char_traitsIcESaIcEEES6_():
    4592:	66 2e 0f 1f 84 00 00 	nopw   %cs:0x0(%rax,%rax,1)
    4599:	00 00 00 
    459c:	0f 1f 40 00          	nopl   0x0(%rax)

00000000000045a0 <_start>:
_start():
    45a0:	f3 0f 1e fa          	endbr64 
    45a4:	31 ed                	xor    %ebp,%ebp
    45a6:	49 89 d1             	mov    %rdx,%r9
    45a9:	5e                   	pop    %rsi
    45aa:	48 89 e2             	mov    %rsp,%rdx
    45ad:	48 83 e4 f0          	and    $0xfffffffffffffff0,%rsp
    45b1:	50                   	push   %rax
    45b2:	54                   	push   %rsp
    45b3:	4c 8d 05 46 e7 00 00 	lea    0xe746(%rip),%r8        # 12d00 <__libc_csu_fini>
    45ba:	48 8d 0d cf e6 00 00 	lea    0xe6cf(%rip),%rcx        # 12c90 <__libc_csu_init>
    45c1:	48 8d 3d b8 f5 ff ff 	lea    -0xa48(%rip),%rdi        # 3b80 <main>
    45c8:	ff 15 12 2a 01 00    	callq  *0x12a12(%rip)        # 16fe0 <__libc_start_main@GLIBC_2.2.5>
    45ce:	f4                   	hlt    
    45cf:	90                   	nop

00000000000045d0 <deregister_tm_clones>:
deregister_tm_clones():
    45d0:	    48 8d 3d 41 2a 01 00 	lea    0x12a41(%rip),%rdi        # 17018 <__TMC_END__>
    45d7:	    48 8d 05 3a 2a 01 00 	lea    0x12a3a(%rip),%rax        # 17018 <__TMC_END__>
    45de:	    48 39 f8             	cmp    %rdi,%rax
    45e1:	/-- 74 15                	je     45f8 <deregister_tm_clones+0x28>
    45e3:	|   48 8b 05 ee 29 01 00 	mov    0x129ee(%rip),%rax        # 16fd8 <_ITM_deregisterTMCloneTable>
    45ea:	|   48 85 c0             	test   %rax,%rax
    45ed:	+-- 74 09                	je     45f8 <deregister_tm_clones+0x28>
    45ef:	|   ff e0                	jmpq   *%rax
    45f1:	|   0f 1f 80 00 00 00 00 	nopl   0x0(%rax)
    45f8:	\-> c3                   	retq   
    45f9:	    0f 1f 80 00 00 00 00 	nopl   0x0(%rax)

0000000000004600 <register_tm_clones>:
register_tm_clones():
    4600:	    48 8d 3d 11 2a 01 00 	lea    0x12a11(%rip),%rdi        # 17018 <__TMC_END__>
    4607:	    48 8d 35 0a 2a 01 00 	lea    0x12a0a(%rip),%rsi        # 17018 <__TMC_END__>
    460e:	    48 29 fe             	sub    %rdi,%rsi
    4611:	    48 89 f0             	mov    %rsi,%rax
    4614:	    48 c1 ee 3f          	shr    $0x3f,%rsi
    4618:	    48 c1 f8 03          	sar    $0x3,%rax
    461c:	    48 01 c6             	add    %rax,%rsi
    461f:	    48 d1 fe             	sar    %rsi
    4622:	/-- 74 14                	je     4638 <register_tm_clones+0x38>
    4624:	|   48 8b 05 c5 29 01 00 	mov    0x129c5(%rip),%rax        # 16ff0 <_ITM_registerTMCloneTable>
    462b:	|   48 85 c0             	test   %rax,%rax
    462e:	+-- 74 08                	je     4638 <register_tm_clones+0x38>
    4630:	|   ff e0                	jmpq   *%rax
    4632:	|   66 0f 1f 44 00 00    	nopw   0x0(%rax,%rax,1)
    4638:	\-> c3                   	retq   
    4639:	    0f 1f 80 00 00 00 00 	nopl   0x0(%rax)

0000000000004640 <__do_global_dtors_aux>:
__do_global_dtors_aux():
    4640:	       f3 0f 1e fa          	endbr64 
    4644:	       80 3d 45 2b 01 00 00 	cmpb   $0x0,0x12b45(%rip)        # 17190 <completed.0>
    464b:	/----- 75 2b                	jne    4678 <__do_global_dtors_aux+0x38>
    464d:	|      55                   	push   %rbp
    464e:	|      48 83 3d 7a 29 01 00 	cmpq   $0x0,0x1297a(%rip)        # 16fd0 <__cxa_finalize@GLIBC_2.2.5>
    4655:	00 
    4656:	|      48 89 e5             	mov    %rsp,%rbp
    4659:	|  /-- 74 0c                	je     4667 <__do_global_dtors_aux+0x27>
    465b:	|  |   48 8b 3d a6 29 01 00 	mov    0x129a6(%rip),%rdi        # 17008 <__dso_handle>
    4662:	|  |   e8 69 ee ff ff       	callq  34d0 <__cxa_finalize@plt>
    4667:	|  \-> e8 64 ff ff ff       	callq  45d0 <deregister_tm_clones>
    466c:	|      c6 05 1d 2b 01 00 01 	movb   $0x1,0x12b1d(%rip)        # 17190 <completed.0>
    4673:	|      5d                   	pop    %rbp
    4674:	|      c3                   	retq   
    4675:	|      0f 1f 00             	nopl   (%rax)
    4678:	\----> c3                   	retq   
    4679:	       0f 1f 80 00 00 00 00 	nopl   0x0(%rax)

0000000000004680 <frame_dummy>:
frame_dummy():
    4680:	f3 0f 1e fa          	endbr64 
    4684:	e9 77 ff ff ff       	jmpq   4600 <register_tm_clones>
    4689:	0f 1f 80 00 00 00 00 	nopl   0x0(%rax)

0000000000004690 <_Z8CompressRK8CSRGraphIiiLb1EER7pvectorIiE._omp_fn.0>:
_Z8CompressRK8CSRGraphIiiLb1EER7pvectorIiE._omp_fn.0():
/home/aliha951/forked_gapbs/gapbs/src/cc.cc:60
  #pragma omp parallel for schedule(dynamic, 16384)
    4690:	                f3 0f 1e fa          	endbr64 
    4694:	                41 54                	push   %r12
    4696:	                b9 00 40 00 00       	mov    $0x4000,%ecx
    469b:	                ba 01 00 00 00       	mov    $0x1,%edx
    46a0:	                55                   	push   %rbp
    46a1:	                53                   	push   %rbx
    46a2:	                48 89 fb             	mov    %rdi,%rbx
    46a5:	                48 83 ec 20          	sub    $0x20,%rsp
    46a9:	                64 48 8b 04 25 28 00 	mov    %fs:0x28,%rax
    46b0:	00 00 
    46b2:	                48 89 44 24 18       	mov    %rax,0x18(%rsp)
    46b7:	                31 c0                	xor    %eax,%eax
_ZNK8CSRGraphIiiLb1EE9num_nodesEv():
/home/aliha951/forked_gapbs/gapbs/src/graph.h:194
  bool directed() const {
    return directed_;
  }

  int64_t num_nodes() const {
    return num_nodes_;
    46b9:	                48 8b 07             	mov    (%rdi),%rax
    46bc:	                4c 8d 64 24 10       	lea    0x10(%rsp),%r12
    46c1:	                48 8d 6c 24 08       	lea    0x8(%rsp),%rbp
    46c6:	                31 ff                	xor    %edi,%edi
    46c8:	                4d 89 e1             	mov    %r12,%r9
    46cb:	                49 89 e8             	mov    %rbp,%r8
    46ce:	                48 63 70 08          	movslq 0x8(%rax),%rsi
    46d2:	                e8 f9 f1 ff ff       	callq  38d0 <GOMP_loop_nonmonotonic_dynamic_start@plt>
    46d7:	                84 c0                	test   %al,%al
    46d9:	         /----- 75 34                	jne    470f <_Z8CompressRK8CSRGraphIiiLb1EER7pvectorIiE._omp_fn.0+0x7f>
    46db:	         |  /-> e8 10 ef ff ff       	callq  35f0 <GOMP_loop_end_nowait@plt>
_Z8CompressRK8CSRGraphIiiLb1EER7pvectorIiE._omp_fn.0():
/home/aliha951/forked_gapbs/gapbs/src/cc.cc:60
    46e0:	         |  |   48 8b 44 24 18       	mov    0x18(%rsp),%rax
    46e5:	         |  |   64 48 2b 04 25 28 00 	sub    %fs:0x28,%rax
    46ec:	00 00 
    46ee:	/--------|--|-- 75 6b                	jne    475b <_Z8CompressRK8CSRGraphIiiLb1EER7pvectorIiE._omp_fn.0+0xcb>
    46f0:	|        |  |   48 83 c4 20          	add    $0x20,%rsp
    46f4:	|        |  |   5b                   	pop    %rbx
    46f5:	|        |  |   5d                   	pop    %rbp
    46f6:	|        |  |   41 5c                	pop    %r12
    46f8:	|        |  |   c3                   	retq   
    46f9:	|        |  |   0f 1f 80 00 00 00 00 	nopl   0x0(%rax)
    4700:	|  /-----|--|-> 4c 89 e6             	mov    %r12,%rsi
    4703:	|  |     |  |   48 89 ef             	mov    %rbp,%rdi
    4706:	|  |     |  |   e8 85 f0 ff ff       	callq  3790 <GOMP_loop_nonmonotonic_dynamic_next@plt>
    470b:	|  |     |  |   84 c0                	test   %al,%al
    470d:	|  |     |  \-- 74 cc                	je     46db <_Z8CompressRK8CSRGraphIiiLb1EER7pvectorIiE._omp_fn.0+0x4b>
_ZN7pvectorIiEixEm():
/home/aliha951/forked_gapbs/gapbs/src/pvector.h:116
    reserve(num_elements);
    end_size_ = start_ + num_elements;
  }

  T_& operator[](size_t n) {
    return start_[n];
    470f:	|  |     \----> 48 8b 53 08          	mov    0x8(%rbx),%rdx
    4713:	|  |            48 8b 44 24 08       	mov    0x8(%rsp),%rax
    4718:	|  |            8b 7c 24 10          	mov    0x10(%rsp),%edi
    471c:	|  |            48 8b 0a             	mov    (%rdx),%rcx
    471f:	|  |            89 c6                	mov    %eax,%esi
_Z8CompressRK8CSRGraphIiiLb1EER7pvectorIiE._omp_fn.0():
/home/aliha951/forked_gapbs/gapbs/src/cc.cc:62
    while (comp[n] != comp[comp[n]]) {
    4721:	|  |            48 98                	cltq   
    4723:	|  |            8b 14 81             	mov    (%rcx,%rax,4),%edx
    4726:	|  |            66 2e 0f 1f 84 00 00 	nopw   %cs:0x0(%rax,%rax,1)
    472d:	00 00 00 
/home/aliha951/forked_gapbs/gapbs/src/cc.cc:62 (discriminator 1)
    4730:	|  |  /-------> 48 63 c2             	movslq %edx,%rax
    4733:	|  |  |         8b 04 81             	mov    (%rcx,%rax,4),%eax
    4736:	|  |  |         39 d0                	cmp    %edx,%eax
    4738:	|  |  |  /----- 74 12                	je     474c <_Z8CompressRK8CSRGraphIiiLb1EER7pvectorIiE._omp_fn.0+0xbc>
/home/aliha951/forked_gapbs/gapbs/src/cc.cc:62
    473a:	|  |  |  |  /-> 48 63 d6             	movslq %esi,%rdx
/home/aliha951/forked_gapbs/gapbs/src/cc.cc:63
      comp[n] = comp[comp[n]];
    473d:	|  |  |  |  |   89 04 91             	mov    %eax,(%rcx,%rdx,4)
/home/aliha951/forked_gapbs/gapbs/src/cc.cc:62
    while (comp[n] != comp[comp[n]]) {
    4740:	|  |  |  |  |   89 c2                	mov    %eax,%edx
    4742:	|  |  |  |  |   48 63 c2             	movslq %edx,%rax
    4745:	|  |  |  |  |   8b 04 81             	mov    (%rcx,%rax,4),%eax
    4748:	|  |  |  |  |   39 d0                	cmp    %edx,%eax
    474a:	|  |  |  |  \-- 75 ee                	jne    473a <_Z8CompressRK8CSRGraphIiiLb1EER7pvectorIiE._omp_fn.0+0xaa>
    474c:	|  |  |  \----> 83 c6 01             	add    $0x1,%esi
    474f:	|  |  |         39 f7                	cmp    %esi,%edi
    4751:	|  \--|-------- 7e ad                	jle    4700 <_Z8CompressRK8CSRGraphIiiLb1EER7pvectorIiE._omp_fn.0+0x70>
    4753:	|     |         48 63 c6             	movslq %esi,%rax
    4756:	|     |         8b 14 81             	mov    (%rcx,%rax,4),%edx
    4759:	|     \-------- eb d5                	jmp    4730 <_Z8CompressRK8CSRGraphIiiLb1EER7pvectorIiE._omp_fn.0+0xa0>
/home/aliha951/forked_gapbs/gapbs/src/cc.cc:60
  #pragma omp parallel for schedule(dynamic, 16384)
    475b:	\-------------> e8 c0 ef ff ff       	callq  3720 <__stack_chk_fail@plt>

0000000000004760 <_Z8AfforestRK8CSRGraphIiiLb1EEbi._omp_fn.0>:
_Z8AfforestRK8CSRGraphIiiLb1EEbi._omp_fn.0():
/home/aliha951/forked_gapbs/gapbs/src/cc.cc:100
  #pragma omp parallel for
    4760:	                f3 0f 1e fa          	endbr64 
    4764:	                55                   	push   %rbp
    4765:	                53                   	push   %rbx
    4766:	                48 89 fb             	mov    %rdi,%rbx
    4769:	                48 83 ec 08          	sub    $0x8,%rsp
    476d:	                e8 de f1 ff ff       	callq  3950 <omp_get_num_threads@plt>
    4772:	                89 c5                	mov    %eax,%ebp
    4774:	                e8 17 f1 ff ff       	callq  3890 <omp_get_thread_num@plt>
    4779:	                89 c1                	mov    %eax,%ecx
_ZNK8CSRGraphIiiLb1EE9num_nodesEv():
/home/aliha951/forked_gapbs/gapbs/src/graph.h:194
    477b:	                48 8b 03             	mov    (%rbx),%rax
_Z8AfforestRK8CSRGraphIiiLb1EEbi._omp_fn.0():
/home/aliha951/forked_gapbs/gapbs/src/cc.cc:101
  for (NodeID n = 0; n < g.num_nodes(); n++)
    477e:	                48 8b 40 08          	mov    0x8(%rax),%rax
    4782:	                99                   	cltd   
    4783:	                f7 fd                	idiv   %ebp
    4785:	                39 d1                	cmp    %edx,%ecx
    4787:	/-------------- 0f 8c a3 00 00 00    	jl     4830 <_Z8AfforestRK8CSRGraphIiiLb1EEbi._omp_fn.0+0xd0>
    478d:	|  /----------> 0f af c8             	imul   %eax,%ecx
    4790:	|  |            01 ca                	add    %ecx,%edx
    4792:	|  |            8d 3c 10             	lea    (%rax,%rdx,1),%edi
    4795:	|  |            39 fa                	cmp    %edi,%edx
    4797:	|  |  /-------- 0f 8d 86 00 00 00    	jge    4823 <_Z8AfforestRK8CSRGraphIiiLb1EEbi._omp_fn.0+0xc3>
_ZN7pvectorIiEixEm():
/home/aliha951/forked_gapbs/gapbs/src/pvector.h:116
    479d:	|  |  |         48 8b 4b 08          	mov    0x8(%rbx),%rcx
    47a1:	|  |  |         4c 8b 01             	mov    (%rcx),%r8
    47a4:	|  |  |         8d 48 ff             	lea    -0x1(%rax),%ecx
    47a7:	|  |  |         83 f9 02             	cmp    $0x2,%ecx
    47aa:	|  |  |  /----- 76 54                	jbe    4800 <_Z8AfforestRK8CSRGraphIiiLb1EEbi._omp_fn.0+0xa0>
    47ac:	|  |  |  |      89 c6                	mov    %eax,%esi
    47ae:	|  |  |  |      66 0f 6e da          	movd   %edx,%xmm3
    47b2:	|  |  |  |      48 63 ca             	movslq %edx,%rcx
    47b5:	|  |  |  |      66 0f 6f 15 c3 ef 00 	movdqa 0xefc3(%rip),%xmm2        # 13780 <_ZZNSt8__detail18__to_chars_10_implIjEEvPcjT_E8__digits+0xe0>
    47bc:	00 
    47bd:	|  |  |  |      c1 ee 02             	shr    $0x2,%esi
    47c0:	|  |  |  |      66 0f 70 c3 00       	pshufd $0x0,%xmm3,%xmm0
    47c5:	|  |  |  |      49 8d 0c 88          	lea    (%r8,%rcx,4),%rcx
    47c9:	|  |  |  |      48 c1 e6 04          	shl    $0x4,%rsi
    47cd:	|  |  |  |      66 0f fe 05 9b ef 00 	paddd  0xef9b(%rip),%xmm0        # 13770 <_ZZNSt8__detail18__to_chars_10_implIjEEvPcjT_E8__digits+0xd0>
    47d4:	00 
    47d5:	|  |  |  |      48 01 ce             	add    %rcx,%rsi
    47d8:	|  |  |  |      0f 1f 84 00 00 00 00 	nopl   0x0(%rax,%rax,1)
    47df:	00 
    47e0:	|  |  |  |  /-> 66 0f 6f c8          	movdqa %xmm0,%xmm1
    47e4:	|  |  |  |  |   48 83 c1 10          	add    $0x10,%rcx
    47e8:	|  |  |  |  |   66 0f fe c2          	paddd  %xmm2,%xmm0
_Z8AfforestRK8CSRGraphIiiLb1EEbi._omp_fn.0():
/home/aliha951/forked_gapbs/gapbs/src/cc.cc:102 (discriminator 1)
    comp[n] = n;
    47ec:	|  |  |  |  |   0f 11 49 f0          	movups %xmm1,-0x10(%rcx)
    47f0:	|  |  |  |  |   48 39 f1             	cmp    %rsi,%rcx
    47f3:	|  |  |  |  \-- 75 eb                	jne    47e0 <_Z8AfforestRK8CSRGraphIiiLb1EEbi._omp_fn.0+0x80>
    47f5:	|  |  |  |      89 c1                	mov    %eax,%ecx
    47f7:	|  |  |  |      83 e1 fc             	and    $0xfffffffc,%ecx
    47fa:	|  |  |  |      01 ca                	add    %ecx,%edx
    47fc:	|  |  |  |      39 c8                	cmp    %ecx,%eax
    47fe:	|  |  +--|----- 74 23                	je     4823 <_Z8AfforestRK8CSRGraphIiiLb1EEbi._omp_fn.0+0xc3>
/home/aliha951/forked_gapbs/gapbs/src/cc.cc:102
    4800:	|  |  |  \----> 48 63 c2             	movslq %edx,%rax
    4803:	|  |  |         41 89 14 80          	mov    %edx,(%r8,%rax,4)
    4807:	|  |  |         8d 42 01             	lea    0x1(%rdx),%eax
    480a:	|  |  |         39 c7                	cmp    %eax,%edi
    480c:	|  |  +-------- 7e 15                	jle    4823 <_Z8AfforestRK8CSRGraphIiiLb1EEbi._omp_fn.0+0xc3>
    480e:	|  |  |         48 63 c8             	movslq %eax,%rcx
    4811:	|  |  |         83 c2 02             	add    $0x2,%edx
    4814:	|  |  |         41 89 04 88          	mov    %eax,(%r8,%rcx,4)
    4818:	|  |  |         39 d7                	cmp    %edx,%edi
    481a:	|  |  +-------- 7e 07                	jle    4823 <_Z8AfforestRK8CSRGraphIiiLb1EEbi._omp_fn.0+0xc3>
    481c:	|  |  |         48 63 c2             	movslq %edx,%rax
    481f:	|  |  |         41 89 14 80          	mov    %edx,(%r8,%rax,4)
/home/aliha951/forked_gapbs/gapbs/src/cc.cc:100
  #pragma omp parallel for
    4823:	|  |  \-------> 48 83 c4 08          	add    $0x8,%rsp
    4827:	|  |            5b                   	pop    %rbx
    4828:	|  |            5d                   	pop    %rbp
    4829:	|  |            c3                   	retq   
    482a:	|  |            66 0f 1f 44 00 00    	nopw   0x0(%rax,%rax,1)
    4830:	\--|----------> 83 c0 01             	add    $0x1,%eax
/home/aliha951/forked_gapbs/gapbs/src/cc.cc:101
  for (NodeID n = 0; n < g.num_nodes(); n++)
    4833:	   |            31 d2                	xor    %edx,%edx
    4835:	   \----------- e9 53 ff ff ff       	jmpq   478d <_Z8AfforestRK8CSRGraphIiiLb1EEbi._omp_fn.0+0x2d>
    483a:	                66 0f 1f 44 00 00    	nopw   0x0(%rax,%rax,1)

0000000000004840 <_ZN8CSRGraphIiiLb1EE8GenIndexERK7pvectorIlEPi._omp_fn.0>:
_ZN8CSRGraphIiiLb1EE8GenIndexERK7pvectorIlEPi._omp_fn.0():
/home/aliha951/forked_gapbs/gapbs/src/graph.h:245
  }

  static DestID_** GenIndex(const pvector<SGOffset> &offsets, DestID_* neighs) {
    NodeID_ length = offsets.size();
    DestID_** index = new DestID_*[length];
    #pragma omp parallel for
    4840:	             f3 0f 1e fa          	endbr64 
    4844:	             55                   	push   %rbp
    4845:	             53                   	push   %rbx
    4846:	             48 89 fb             	mov    %rdi,%rbx
    4849:	             48 83 ec 08          	sub    $0x8,%rsp
    484d:	             e8 fe f0 ff ff       	callq  3950 <omp_get_num_threads@plt>
    4852:	             89 c5                	mov    %eax,%ebp
    4854:	             e8 37 f0 ff ff       	callq  3890 <omp_get_thread_num@plt>
    4859:	             89 c1                	mov    %eax,%ecx
    485b:	             8b 43 18             	mov    0x18(%rbx),%eax
    485e:	             99                   	cltd   
    485f:	             f7 fd                	idiv   %ebp
    4861:	             39 d1                	cmp    %edx,%ecx
    4863:	   /-------- 7c 43                	jl     48a8 <_ZN8CSRGraphIiiLb1EE8GenIndexERK7pvectorIlEPi._omp_fn.0+0x68>
    4865:	/--|-------> 0f af c8             	imul   %eax,%ecx
    4868:	|  |         01 ca                	add    %ecx,%edx
    486a:	|  |         01 d0                	add    %edx,%eax
    486c:	|  |         39 c2                	cmp    %eax,%edx
    486e:	|  |  /----- 7d 2c                	jge    489c <_ZN8CSRGraphIiiLb1EE8GenIndexERK7pvectorIlEPi._omp_fn.0+0x5c>
_ZNK7pvectorIlEixEm():
/home/aliha951/forked_gapbs/gapbs/src/pvector.h:120
  }

  const T_& operator[](size_t n) const {
    return start_[n];
    4870:	|  |  |      48 8b 0b             	mov    (%rbx),%rcx
_ZN8CSRGraphIiiLb1EE8GenIndexERK7pvectorIlEPi._omp_fn.0():
/home/aliha951/forked_gapbs/gapbs/src/graph.h:245
    4873:	|  |  |      4c 8b 43 10          	mov    0x10(%rbx),%r8
    4877:	|  |  |      48 63 d2             	movslq %edx,%rdx
    487a:	|  |  |      48 8b 7b 08          	mov    0x8(%rbx),%rdi
_ZNK7pvectorIlEixEm():
/home/aliha951/forked_gapbs/gapbs/src/pvector.h:120
    487e:	|  |  |      48 8b 31             	mov    (%rcx),%rsi
    4881:	|  |  |      0f 1f 80 00 00 00 00 	nopl   0x0(%rax)
_ZN8CSRGraphIiiLb1EE8GenIndexERK7pvectorIlEPi._omp_fn.0():
/home/aliha951/forked_gapbs/gapbs/src/graph.h:247 (discriminator 1)
    for (NodeID_ n=0; n < length; n++)
      index[n] = neighs + offsets[n];
    4888:	|  |  |  /-> 48 8b 0c d6          	mov    (%rsi,%rdx,8),%rcx
    488c:	|  |  |  |   48 8d 0c 8f          	lea    (%rdi,%rcx,4),%rcx
    4890:	|  |  |  |   49 89 0c d0          	mov    %rcx,(%r8,%rdx,8)
    4894:	|  |  |  |   48 83 c2 01          	add    $0x1,%rdx
    4898:	|  |  |  |   39 d0                	cmp    %edx,%eax
    489a:	|  |  |  \-- 7f ec                	jg     4888 <_ZN8CSRGraphIiiLb1EE8GenIndexERK7pvectorIlEPi._omp_fn.0+0x48>
/home/aliha951/forked_gapbs/gapbs/src/graph.h:245
    #pragma omp parallel for
    489c:	|  |  \----> 48 83 c4 08          	add    $0x8,%rsp
    48a0:	|  |         5b                   	pop    %rbx
    48a1:	|  |         5d                   	pop    %rbp
    48a2:	|  |         c3                   	retq   
    48a3:	|  |         0f 1f 44 00 00       	nopl   0x0(%rax,%rax,1)
    48a8:	|  \-------> 83 c0 01             	add    $0x1,%eax
    48ab:	|            31 d2                	xor    %edx,%edx
    48ad:	\----------- eb b6                	jmp    4865 <_ZN8CSRGraphIiiLb1EE8GenIndexERK7pvectorIlEPi._omp_fn.0+0x25>
    48af:	             90                   	nop

00000000000048b0 <_ZN7pvectorI8EdgePairIiiEE7reserveEm._omp_fn.0>:
_ZN7pvectorI8EdgePairIiiEE7reserveEm._omp_fn.0():
/home/aliha951/forked_gapbs/gapbs/src/pvector.h:86
      #pragma omp parallel for
    48b0:	             f3 0f 1e fa          	endbr64 
    48b4:	             41 55                	push   %r13
    48b6:	             41 54                	push   %r12
    48b8:	             55                   	push   %rbp
    48b9:	             53                   	push   %rbx
    48ba:	             48 83 ec 08          	sub    $0x8,%rsp
    48be:	             48 8b 07             	mov    (%rdi),%rax
_ZNK7pvectorI8EdgePairIiiEE4sizeEv():
/home/aliha951/forked_gapbs/gapbs/src/pvector.h:143
  size_t capacity() const {
    return end_capacity_ - start_;
  }

  size_t size() const {
    return end_size_ - start_;
    48c1:	             4c 8b 20             	mov    (%rax),%r12
    48c4:	             48 8b 40 08          	mov    0x8(%rax),%rax
    48c8:	             4c 29 e0             	sub    %r12,%rax
    48cb:	             48 c1 f8 03          	sar    $0x3,%rax
    48cf:	/----------- 74 50                	je     4921 <_ZN7pvectorI8EdgePairIiiEE7reserveEm._omp_fn.0+0x71>
    48d1:	|            49 89 fd             	mov    %rdi,%r13
    48d4:	|            48 89 c3             	mov    %rax,%rbx
    48d7:	|            e8 74 f0 ff ff       	callq  3950 <omp_get_num_threads@plt>
    48dc:	|            89 c5                	mov    %eax,%ebp
    48de:	|            e8 ad ef ff ff       	callq  3890 <omp_get_thread_num@plt>
    48e3:	|            48 63 f5             	movslq %ebp,%rsi
    48e6:	|            31 d2                	xor    %edx,%edx
    48e8:	|            48 63 c8             	movslq %eax,%rcx
    48eb:	|            48 89 d8             	mov    %rbx,%rax
    48ee:	|            48 f7 f6             	div    %rsi
    48f1:	|            48 39 d1             	cmp    %rdx,%rcx
    48f4:	|     /----- 72 3a                	jb     4930 <_ZN7pvectorI8EdgePairIiiEE7reserveEm._omp_fn.0+0x80>
    48f6:	|  /--|----> 48 0f af c8          	imul   %rax,%rcx
    48fa:	|  |  |      48 01 ca             	add    %rcx,%rdx
    48fd:	|  |  |      48 01 d0             	add    %rdx,%rax
    4900:	|  |  |      48 39 c2             	cmp    %rax,%rdx
    4903:	+--|--|----- 73 1c                	jae    4921 <_ZN7pvectorI8EdgePairIiiEE7reserveEm._omp_fn.0+0x71>
_ZN7pvectorI8EdgePairIiiEE7reserveEm._omp_fn.0():
/home/aliha951/forked_gapbs/gapbs/src/pvector.h:86
      #pragma omp parallel for
    4905:	|  |  |      49 8b 75 08          	mov    0x8(%r13),%rsi
    4909:	|  |  |      0f 1f 80 00 00 00 00 	nopl   0x0(%rax)
/home/aliha951/forked_gapbs/gapbs/src/pvector.h:88 (discriminator 1)
        new_range[i] = start_[i];
    4910:	|  |  |  /-> 49 8b 0c d4          	mov    (%r12,%rdx,8),%rcx
    4914:	|  |  |  |   48 89 0c d6          	mov    %rcx,(%rsi,%rdx,8)
    4918:	|  |  |  |   48 83 c2 01          	add    $0x1,%rdx
    491c:	|  |  |  |   48 39 d0             	cmp    %rdx,%rax
    491f:	|  |  |  \-- 75 ef                	jne    4910 <_ZN7pvectorI8EdgePairIiiEE7reserveEm._omp_fn.0+0x60>
/home/aliha951/forked_gapbs/gapbs/src/pvector.h:86
      #pragma omp parallel for
    4921:	\--|--|----> 48 83 c4 08          	add    $0x8,%rsp
    4925:	   |  |      5b                   	pop    %rbx
    4926:	   |  |      5d                   	pop    %rbp
    4927:	   |  |      41 5c                	pop    %r12
    4929:	   |  |      41 5d                	pop    %r13
    492b:	   |  |      c3                   	retq   
    492c:	   |  |      0f 1f 40 00          	nopl   0x0(%rax)
    4930:	   |  \----> 48 83 c0 01          	add    $0x1,%rax
_ZNK7pvectorI8EdgePairIiiEE4sizeEv():
/home/aliha951/forked_gapbs/gapbs/src/pvector.h:143
    return end_size_ - start_;
    4934:	   |         31 d2                	xor    %edx,%edx
    4936:	   \-------- eb be                	jmp    48f6 <_ZN7pvectorI8EdgePairIiiEE7reserveEm._omp_fn.0+0x46>
_ZN7pvectorI8EdgePairIiiEE7reserveEm._omp_fn.0():
/home/aliha951/forked_gapbs/gapbs/src/pvector.h:143
    4938:	             0f 1f 84 00 00 00 00 	nopl   0x0(%rax,%rax,1)
    493f:	00 

0000000000004940 <_ZN11BuilderBaseIiiiLb1EE12CountDegreesERK7pvectorI8EdgePairIiiEEb._omp_fn.0>:
_ZN11BuilderBaseIiiiLb1EE12CountDegreesERK7pvectorI8EdgePairIiiEEb._omp_fn.0():
/home/aliha951/forked_gapbs/gapbs/src/builder.h:82
    return max_seen;
  }

  pvector<NodeID_> CountDegrees(const EdgeList &el, bool transpose) {
    pvector<NodeID_> degrees(num_nodes_, 0);
    #pragma omp parallel for
    4940:	                   f3 0f 1e fa          	endbr64 
    4944:	                   41 55                	push   %r13
    4946:	                   41 54                	push   %r12
    4948:	                   55                   	push   %rbp
    4949:	                   53                   	push   %rbx
    494a:	                   48 83 ec 08          	sub    $0x8,%rsp
/home/aliha951/forked_gapbs/gapbs/src/builder.h:83
    for (auto it = el.begin(); it < el.end(); it++) {
    494e:	                   48 8b 47 08          	mov    0x8(%rdi),%rax
_ZNK7pvectorI8EdgePairIiiEE5beginEv():
/home/aliha951/forked_gapbs/gapbs/src/pvector.h:147
  }

  iterator begin() const {
    return start_;
    4952:	                   4c 8b 20             	mov    (%rax),%r12
_ZNK7pvectorI8EdgePairIiiEE3endEv():
/home/aliha951/forked_gapbs/gapbs/src/pvector.h:151
  }

  iterator end() const {
    return end_size_;
    4955:	                   4c 8b 68 08          	mov    0x8(%rax),%r13
    4959:	                   4d 39 e5             	cmp    %r12,%r13
    495c:	/----------------- 0f 86 8a 00 00 00    	jbe    49ec <_ZN11BuilderBaseIiiiLb1EE12CountDegreesERK7pvectorI8EdgePairIiiEEb._omp_fn.0+0xac>
    4962:	|                  48 89 fb             	mov    %rdi,%rbx
    4965:	|                  e8 e6 ef ff ff       	callq  3950 <omp_get_num_threads@plt>
    496a:	|                  48 63 e8             	movslq %eax,%rbp
    496d:	|                  e8 1e ef ff ff       	callq  3890 <omp_get_thread_num@plt>
    4972:	|                  48 63 c8             	movslq %eax,%rcx
    4975:	|                  49 8d 45 07          	lea    0x7(%r13),%rax
    4979:	|                  4c 29 e0             	sub    %r12,%rax
    497c:	|                  48 89 c2             	mov    %rax,%rdx
    497f:	|                  48 8d 40 07          	lea    0x7(%rax),%rax
    4983:	|                  48 0f 49 c2          	cmovns %rdx,%rax
    4987:	|                  48 c1 f8 03          	sar    $0x3,%rax
    498b:	|                  48 99                	cqto   
    498d:	|                  48 f7 fd             	idiv   %rbp
    4990:	|                  48 39 d1             	cmp    %rdx,%rcx
    4993:	|        /-------- 7c 6b                	jl     4a00 <_ZN11BuilderBaseIiiiLb1EE12CountDegreesERK7pvectorI8EdgePairIiiEEb._omp_fn.0+0xc0>
    4995:	|     /--|-------> 48 0f af c8          	imul   %rax,%rcx
    4999:	|     |  |         48 01 ca             	add    %rcx,%rdx
    499c:	|     |  |         48 01 d0             	add    %rdx,%rax
    499f:	|     |  |         48 39 c2             	cmp    %rax,%rdx
    49a2:	+-----|--|-------- 7d 48                	jge    49ec <_ZN11BuilderBaseIiiiLb1EE12CountDegreesERK7pvectorI8EdgePairIiiEEb._omp_fn.0+0xac>
    49a4:	|     |  |         80 7b 18 00          	cmpb   $0x0,0x18(%rbx)
_ZN11BuilderBaseIiiiLb1EE12CountDegreesERK7pvectorI8EdgePairIiiEEb._omp_fn.0():
/home/aliha951/forked_gapbs/gapbs/src/builder.h:82
    #pragma omp parallel for
    49a8:	|     |  |         48 8b 3b             	mov    (%rbx),%rdi
    49ab:	|     |  |         49 8d 14 d4          	lea    (%r12,%rdx,8),%rdx
    49af:	|     |  |         4d 8d 04 c4          	lea    (%r12,%rax,8),%r8
    49b3:	|  /--|--|-------- 75 53                	jne    4a08 <_ZN11BuilderBaseIiiiLb1EE12CountDegreesERK7pvectorI8EdgePairIiiEEb._omp_fn.0+0xc8>
    49b5:	|  |  |  |         0f 1f 00             	nopl   (%rax)
_ZN7pvectorIiEixEm():
/home/aliha951/forked_gapbs/gapbs/src/pvector.h:116
    return start_[n];
    49b8:	|  |  |  |  /----> 48 8b 4b 10          	mov    0x10(%rbx),%rcx
_ZN11BuilderBaseIiiiLb1EE12CountDegreesERK7pvectorI8EdgePairIiiEEb._omp_fn.0():
/home/aliha951/forked_gapbs/gapbs/src/builder.h:84
      Edge e = *it;
    49bc:	|  |  |  |  |      48 63 42 04          	movslq 0x4(%rdx),%rax
/home/aliha951/forked_gapbs/gapbs/src/builder.h:86
      if (symmetrize_ || (!symmetrize_ && !transpose))
        fetch_and_add(degrees[e.u], 1);
    49c0:	|  |  |  |  |      48 63 32             	movslq (%rdx),%rsi
_Z13fetch_and_addIiiET_RS0_T0_():
/home/aliha951/forked_gapbs/gapbs/src/platform_atomics.h:26

    // gcc/clang/icc instrinsics

    template<typename T, typename U>
    T fetch_and_add(T &x, U inc) {
      return __sync_fetch_and_add(&x, inc);
    49c3:	|  |  |  |  |      48 8b 09             	mov    (%rcx),%rcx
    49c6:	|  |  |  |  |      f0 83 04 b1 01       	lock addl $0x1,(%rcx,%rsi,4)
_ZN11BuilderBaseIiiiLb1EE12CountDegreesERK7pvectorI8EdgePairIiiEEb._omp_fn.0():
/home/aliha951/forked_gapbs/gapbs/src/builder.h:87
      if ((symmetrize_ && !in_place_) || (!symmetrize_ && transpose))
    49cb:	|  |  |  |  |      80 7f 08 00          	cmpb   $0x0,0x8(%rdi)
    49cf:	|  |  |  |  |  /-- 74 12                	je     49e3 <_ZN11BuilderBaseIiiiLb1EE12CountDegreesERK7pvectorI8EdgePairIiiEEb._omp_fn.0+0xa3>
    49d1:	|  |  |  |  |  |   80 7f 0a 00          	cmpb   $0x0,0xa(%rdi)
    49d5:	|  |  |  |  |  +-- 75 0c                	jne    49e3 <_ZN11BuilderBaseIiiiLb1EE12CountDegreesERK7pvectorI8EdgePairIiiEEb._omp_fn.0+0xa3>
_ZN7pvectorIiEixEm():
/home/aliha951/forked_gapbs/gapbs/src/pvector.h:116
    49d7:	|  |  |  |  |  |   48 8b 4b 10          	mov    0x10(%rbx),%rcx
_Z13fetch_and_addIiiET_RS0_T0_():
/home/aliha951/forked_gapbs/gapbs/src/platform_atomics.h:26
    49db:	|  |  |  |  |  |   48 8b 09             	mov    (%rcx),%rcx
    49de:	|  |  |  |  |  |   f0 83 04 81 01       	lock addl $0x1,(%rcx,%rax,4)
    49e3:	|  |  |  |  |  \-> 48 83 c2 08          	add    $0x8,%rdx
    49e7:	|  |  |  |  |      49 39 d0             	cmp    %rdx,%r8
    49ea:	|  |  |  |  \----- 77 cc                	ja     49b8 <_ZN11BuilderBaseIiiiLb1EE12CountDegreesERK7pvectorI8EdgePairIiiEEb._omp_fn.0+0x78>
_ZN11BuilderBaseIiiiLb1EE12CountDegreesERK7pvectorI8EdgePairIiiEEb._omp_fn.0():
/home/aliha951/forked_gapbs/gapbs/src/builder.h:82
    #pragma omp parallel for
    49ec:	>--|--|--|-------> 48 83 c4 08          	add    $0x8,%rsp
    49f0:	|  |  |  |         5b                   	pop    %rbx
    49f1:	|  |  |  |         5d                   	pop    %rbp
    49f2:	|  |  |  |         41 5c                	pop    %r12
    49f4:	|  |  |  |         41 5d                	pop    %r13
    49f6:	|  |  |  |         c3                   	retq   
    49f7:	|  |  |  |         66 0f 1f 84 00 00 00 	nopw   0x0(%rax,%rax,1)
    49fe:	00 00 
    4a00:	|  |  |  \-------> 48 83 c0 01          	add    $0x1,%rax
_ZNK7pvectorI8EdgePairIiiEE3endEv():
/home/aliha951/forked_gapbs/gapbs/src/pvector.h:151
    return end_size_;
    4a04:	|  |  |            31 d2                	xor    %edx,%edx
    4a06:	|  |  \----------- eb 8d                	jmp    4995 <_ZN11BuilderBaseIiiiLb1EE12CountDegreesERK7pvectorI8EdgePairIiiEEb._omp_fn.0+0x55>
_ZN11BuilderBaseIiiiLb1EE12CountDegreesERK7pvectorI8EdgePairIiiEEb._omp_fn.0():
/home/aliha951/forked_gapbs/gapbs/src/builder.h:85
      if (symmetrize_ || (!symmetrize_ && !transpose))
    4a08:	|  >-------------> 80 7f 08 00          	cmpb   $0x0,0x8(%rdi)
/home/aliha951/forked_gapbs/gapbs/src/builder.h:84
      Edge e = *it;
    4a0c:	|  |               48 63 42 04          	movslq 0x4(%rdx),%rax
/home/aliha951/forked_gapbs/gapbs/src/builder.h:85
      if (symmetrize_ || (!symmetrize_ && !transpose))
    4a10:	|  |        /----- 74 1b                	je     4a2d <_ZN11BuilderBaseIiiiLb1EE12CountDegreesERK7pvectorI8EdgePairIiiEEb._omp_fn.0+0xed>
_ZN7pvectorIiEixEm():
/home/aliha951/forked_gapbs/gapbs/src/pvector.h:116
    return start_[n];
    4a12:	|  |        |      48 8b 4b 10          	mov    0x10(%rbx),%rcx
_ZN11BuilderBaseIiiiLb1EE12CountDegreesERK7pvectorI8EdgePairIiiEEb._omp_fn.0():
/home/aliha951/forked_gapbs/gapbs/src/builder.h:86
        fetch_and_add(degrees[e.u], 1);
    4a16:	|  |        |      48 63 32             	movslq (%rdx),%rsi
_Z13fetch_and_addIiiET_RS0_T0_():
/home/aliha951/forked_gapbs/gapbs/src/platform_atomics.h:26
    4a19:	|  |        |      48 8b 09             	mov    (%rcx),%rcx
    4a1c:	|  |        |      f0 83 04 b1 01       	lock addl $0x1,(%rcx,%rsi,4)
_ZN11BuilderBaseIiiiLb1EE12CountDegreesERK7pvectorI8EdgePairIiiEEb._omp_fn.0():
/home/aliha951/forked_gapbs/gapbs/src/builder.h:87
      if ((symmetrize_ && !in_place_) || (!symmetrize_ && transpose))
    4a21:	|  |        |      80 7f 08 00          	cmpb   $0x0,0x8(%rdi)
    4a25:	|  |        +----- 74 06                	je     4a2d <_ZN11BuilderBaseIiiiLb1EE12CountDegreesERK7pvectorI8EdgePairIiiEEb._omp_fn.0+0xed>
/home/aliha951/forked_gapbs/gapbs/src/builder.h:87 (discriminator 1)
    4a27:	|  |        |      80 7f 0a 00          	cmpb   $0x0,0xa(%rdi)
    4a2b:	|  |        |  /-- 75 0c                	jne    4a39 <_ZN11BuilderBaseIiiiLb1EE12CountDegreesERK7pvectorI8EdgePairIiiEEb._omp_fn.0+0xf9>
_ZN7pvectorIiEixEm():
/home/aliha951/forked_gapbs/gapbs/src/pvector.h:116
    4a2d:	|  |        \--|-> 48 8b 4b 10          	mov    0x10(%rbx),%rcx
_Z13fetch_and_addIiiET_RS0_T0_():
/home/aliha951/forked_gapbs/gapbs/src/platform_atomics.h:26
    4a31:	|  |           |   48 8b 09             	mov    (%rcx),%rcx
    4a34:	|  |           |   f0 83 04 81 01       	lock addl $0x1,(%rcx,%rax,4)
    4a39:	|  |           \-> 48 83 c2 08          	add    $0x8,%rdx
    4a3d:	|  |               49 39 d0             	cmp    %rdx,%r8
    4a40:	|  \-------------- 77 c6                	ja     4a08 <_ZN11BuilderBaseIiiiLb1EE12CountDegreesERK7pvectorI8EdgePairIiiEEb._omp_fn.0+0xc8>
    4a42:	\----------------- eb a8                	jmp    49ec <_ZN11BuilderBaseIiiiLb1EE12CountDegreesERK7pvectorI8EdgePairIiiEEb._omp_fn.0+0xac>
_ZN11BuilderBaseIiiiLb1EE12CountDegreesERK7pvectorI8EdgePairIiiEEb._omp_fn.0():
/home/aliha951/forked_gapbs/gapbs/src/platform_atomics.h:26
    4a44:	                   66 66 2e 0f 1f 84 00 	data16 nopw %cs:0x0(%rax,%rax,1)
    4a4b:	00 00 00 00 
    4a4f:	                   90                   	nop

0000000000004a50 <_ZN11BuilderBaseIiiiLb1EE17ParallelPrefixSumERK7pvectorIiE._omp_fn.0>:
_ZN11BuilderBaseIiiiLb1EE17ParallelPrefixSumERK7pvectorIiE._omp_fn.0():
/home/aliha951/forked_gapbs/gapbs/src/builder.h:110
  static
  pvector<SGOffset> ParallelPrefixSum(const pvector<NodeID_> &degrees) {
    const size_t block_size = 1<<20;
    const size_t num_blocks = (degrees.size() + block_size - 1) / block_size;
    pvector<SGOffset> local_sums(num_blocks);
    #pragma omp parallel for
    4a50:	                         f3 0f 1e fa          	endbr64 
    4a54:	                         41 54                	push   %r12
    4a56:	                         55                   	push   %rbp
    4a57:	                         53                   	push   %rbx
    4a58:	                         48 8b 5f 08          	mov    0x8(%rdi),%rbx
    4a5c:	                         48 85 db             	test   %rbx,%rbx
    4a5f:	/----------------------- 0f 84 4d 01 00 00    	je     4bb2 <_ZN11BuilderBaseIiiiLb1EE17ParallelPrefixSumERK7pvectorIiE._omp_fn.0+0x162>
    4a65:	|                        49 89 fc             	mov    %rdi,%r12
    4a68:	|                        e8 e3 ee ff ff       	callq  3950 <omp_get_num_threads@plt>
    4a6d:	|                        89 c5                	mov    %eax,%ebp
    4a6f:	|                        e8 1c ee ff ff       	callq  3890 <omp_get_thread_num@plt>
    4a74:	|                        48 63 cd             	movslq %ebp,%rcx
    4a77:	|                        31 d2                	xor    %edx,%edx
    4a79:	|                        48 63 f0             	movslq %eax,%rsi
    4a7c:	|                        48 89 d8             	mov    %rbx,%rax
    4a7f:	|                        48 f7 f1             	div    %rcx
    4a82:	|                        48 39 d6             	cmp    %rdx,%rsi
    4a85:	|     /----------------- 0f 82 3d 01 00 00    	jb     4bc8 <_ZN11BuilderBaseIiiiLb1EE17ParallelPrefixSumERK7pvectorIiE._omp_fn.0+0x178>
    4a8b:	|  /--|----------------> 48 0f af f0          	imul   %rax,%rsi
    4a8f:	|  |  |                  48 01 d6             	add    %rdx,%rsi
    4a92:	|  |  |                  48 01 f0             	add    %rsi,%rax
    4a95:	|  |  |                  48 39 c6             	cmp    %rax,%rsi
    4a98:	+--|--|----------------- 0f 83 14 01 00 00    	jae    4bb2 <_ZN11BuilderBaseIiiiLb1EE17ParallelPrefixSumERK7pvectorIiE._omp_fn.0+0x162>
/home/aliha951/forked_gapbs/gapbs/src/builder.h:113
    for (size_t block=0; block < num_blocks; block++) {
      SGOffset lsum = 0;
      size_t block_end = std::min((block + 1) * block_size, degrees.size());
    4a9e:	|  |  |                  49 8b 14 24          	mov    (%r12),%rdx
    4aa2:	|  |  |                  49 89 f0             	mov    %rsi,%r8
/home/aliha951/forked_gapbs/gapbs/src/builder.h:115
      for (size_t i=block * block_size; i < block_end; i++)
        lsum += degrees[i];
    4aa5:	|  |  |                  66 0f ef e4          	pxor   %xmm4,%xmm4
    4aa9:	|  |  |                  49 c1 e0 14          	shl    $0x14,%r8
_ZNK7pvectorIiE4sizeEv():
/home/aliha951/forked_gapbs/gapbs/src/pvector.h:143
    return end_size_ - start_;
    4aad:	|  |  |                  4c 8b 1a             	mov    (%rdx),%r11
    4ab0:	|  |  |                  4c 8b 52 08          	mov    0x8(%rdx),%r10
_ZN7pvectorIlEixEm():
/home/aliha951/forked_gapbs/gapbs/src/pvector.h:116
    return start_[n];
    4ab4:	|  |  |                  49 8b 54 24 10       	mov    0x10(%r12),%rdx
_ZNK7pvectorIiE4sizeEv():
/home/aliha951/forked_gapbs/gapbs/src/pvector.h:143
    return end_size_ - start_;
    4ab9:	|  |  |                  4d 29 da             	sub    %r11,%r10
_ZN7pvectorIlEixEm():
/home/aliha951/forked_gapbs/gapbs/src/pvector.h:116
    return start_[n];
    4abc:	|  |  |                  48 8b 12             	mov    (%rdx),%rdx
_ZNK7pvectorIiE4sizeEv():
/home/aliha951/forked_gapbs/gapbs/src/pvector.h:143
    return end_size_ - start_;
    4abf:	|  |  |                  49 c1 fa 02          	sar    $0x2,%r10
    4ac3:	|  |  |                  4c 8d 0c f2          	lea    (%rdx,%rsi,8),%r9
    4ac7:	|  |  |                  48 c1 e6 16          	shl    $0x16,%rsi
    4acb:	|  |  |                  48 8d 2c c2          	lea    (%rdx,%rax,8),%rbp
    4acf:	|  |  |                  4c 01 de             	add    %r11,%rsi
    4ad2:	|  |  |                  66 0f 1f 44 00 00    	nopw   0x0(%rax,%rax,1)
/home/aliha951/forked_gapbs/gapbs/src/pvector.h:142
  size_t size() const {
    4ad8:	|  |  |  /-------------> 4c 89 c1             	mov    %r8,%rcx
_ZN11BuilderBaseIiiiLb1EE17ParallelPrefixSumERK7pvectorIiE._omp_fn.0():
/home/aliha951/forked_gapbs/gapbs/src/builder.h:113
      size_t block_end = std::min((block + 1) * block_size, degrees.size());
    4adb:	|  |  |  |               49 81 c0 00 00 10 00 	add    $0x100000,%r8
    4ae2:	|  |  |  |               4c 89 d3             	mov    %r10,%rbx
    4ae5:	|  |  |  |               4d 39 d0             	cmp    %r10,%r8
    4ae8:	|  |  |  |               49 0f 46 d8          	cmovbe %r8,%rbx
/home/aliha951/forked_gapbs/gapbs/src/builder.h:114
      for (size_t i=block * block_size; i < block_end; i++)
    4aec:	|  |  |  |               48 39 cb             	cmp    %rcx,%rbx
    4aef:	|  |  |  |  /----------- 0f 86 cb 00 00 00    	jbe    4bc0 <_ZN11BuilderBaseIiiiLb1EE17ParallelPrefixSumERK7pvectorIiE._omp_fn.0+0x170>
    4af5:	|  |  |  |  |            48 89 df             	mov    %rbx,%rdi
    4af8:	|  |  |  |  |            48 29 cf             	sub    %rcx,%rdi
    4afb:	|  |  |  |  |            48 8d 47 ff          	lea    -0x1(%rdi),%rax
    4aff:	|  |  |  |  |            48 83 f8 02          	cmp    $0x2,%rax
    4b03:	|  |  |  |  |  /-------- 0f 86 bb 00 00 00    	jbe    4bc4 <_ZN11BuilderBaseIiiiLb1EE17ParallelPrefixSumERK7pvectorIiE._omp_fn.0+0x174>
    4b09:	|  |  |  |  |  |         48 89 fa             	mov    %rdi,%rdx
    4b0c:	|  |  |  |  |  |         48 89 f0             	mov    %rsi,%rax
    4b0f:	|  |  |  |  |  |         66 0f ef c9          	pxor   %xmm1,%xmm1
    4b13:	|  |  |  |  |  |         48 c1 ea 02          	shr    $0x2,%rdx
    4b17:	|  |  |  |  |  |         48 c1 e2 04          	shl    $0x4,%rdx
    4b1b:	|  |  |  |  |  |         48 01 f2             	add    %rsi,%rdx
    4b1e:	|  |  |  |  |  |         66 90                	xchg   %ax,%ax
/home/aliha951/forked_gapbs/gapbs/src/builder.h:115 (discriminator 2)
        lsum += degrees[i];
    4b20:	|  |  |  |  |  |     /-> f3 0f 6f 00          	movdqu (%rax),%xmm0
    4b24:	|  |  |  |  |  |     |   66 0f 6f d4          	movdqa %xmm4,%xmm2
    4b28:	|  |  |  |  |  |     |   48 83 c0 10          	add    $0x10,%rax
    4b2c:	|  |  |  |  |  |     |   66 0f 66 d0          	pcmpgtd %xmm0,%xmm2
    4b30:	|  |  |  |  |  |     |   66 0f 6f d8          	movdqa %xmm0,%xmm3
    4b34:	|  |  |  |  |  |     |   66 0f 62 da          	punpckldq %xmm2,%xmm3
    4b38:	|  |  |  |  |  |     |   66 0f 6a c2          	punpckhdq %xmm2,%xmm0
    4b3c:	|  |  |  |  |  |     |   66 0f d4 cb          	paddq  %xmm3,%xmm1
    4b40:	|  |  |  |  |  |     |   66 0f d4 c8          	paddq  %xmm0,%xmm1
/home/aliha951/forked_gapbs/gapbs/src/builder.h:114 (discriminator 2)
      for (size_t i=block * block_size; i < block_end; i++)
    4b44:	|  |  |  |  |  |     |   48 39 d0             	cmp    %rdx,%rax
    4b47:	|  |  |  |  |  |     \-- 75 d7                	jne    4b20 <_ZN11BuilderBaseIiiiLb1EE17ParallelPrefixSumERK7pvectorIiE._omp_fn.0+0xd0>
    4b49:	|  |  |  |  |  |         66 0f 6f c1          	movdqa %xmm1,%xmm0
    4b4d:	|  |  |  |  |  |         48 89 fa             	mov    %rdi,%rdx
    4b50:	|  |  |  |  |  |         66 0f 73 d8 08       	psrldq $0x8,%xmm0
    4b55:	|  |  |  |  |  |         48 83 e2 fc          	and    $0xfffffffffffffffc,%rdx
    4b59:	|  |  |  |  |  |         66 0f d4 c1          	paddq  %xmm1,%xmm0
    4b5d:	|  |  |  |  |  |         48 01 d1             	add    %rdx,%rcx
    4b60:	|  |  |  |  |  |         66 48 0f 7e c0       	movq   %xmm0,%rax
    4b65:	|  |  |  |  |  |         48 39 fa             	cmp    %rdi,%rdx
    4b68:	|  |  |  |  |  |     /-- 74 31                	je     4b9b <_ZN11BuilderBaseIiiiLb1EE17ParallelPrefixSumERK7pvectorIiE._omp_fn.0+0x14b>
/home/aliha951/forked_gapbs/gapbs/src/builder.h:115
        lsum += degrees[i];
    4b6a:	|  |  |  |  |  |  /--|-> 49 63 3c 8b          	movslq (%r11,%rcx,4),%rdi
_ZNK7pvectorIiEixEm():
/home/aliha951/forked_gapbs/gapbs/src/pvector.h:120
    return start_[n];
    4b6e:	|  |  |  |  |  |  |  |   48 8d 14 8d 00 00 00 	lea    0x0(,%rcx,4),%rdx
    4b75:	00 
_ZN11BuilderBaseIiiiLb1EE17ParallelPrefixSumERK7pvectorIiE._omp_fn.0():
/home/aliha951/forked_gapbs/gapbs/src/builder.h:115
    4b76:	|  |  |  |  |  |  |  |   48 01 f8             	add    %rdi,%rax
/home/aliha951/forked_gapbs/gapbs/src/builder.h:114
      for (size_t i=block * block_size; i < block_end; i++)
    4b79:	|  |  |  |  |  |  |  |   48 8d 79 01          	lea    0x1(%rcx),%rdi
    4b7d:	|  |  |  |  |  |  |  |   48 39 df             	cmp    %rbx,%rdi
    4b80:	|  |  |  |  |  |  |  +-- 73 19                	jae    4b9b <_ZN11BuilderBaseIiiiLb1EE17ParallelPrefixSumERK7pvectorIiE._omp_fn.0+0x14b>
/home/aliha951/forked_gapbs/gapbs/src/builder.h:115
        lsum += degrees[i];
    4b82:	|  |  |  |  |  |  |  |   49 63 7c 13 04       	movslq 0x4(%r11,%rdx,1),%rdi
/home/aliha951/forked_gapbs/gapbs/src/builder.h:114
      for (size_t i=block * block_size; i < block_end; i++)
    4b87:	|  |  |  |  |  |  |  |   48 83 c1 02          	add    $0x2,%rcx
/home/aliha951/forked_gapbs/gapbs/src/builder.h:115
        lsum += degrees[i];
    4b8b:	|  |  |  |  |  |  |  |   48 01 f8             	add    %rdi,%rax
/home/aliha951/forked_gapbs/gapbs/src/builder.h:114
      for (size_t i=block * block_size; i < block_end; i++)
    4b8e:	|  |  |  |  |  |  |  |   48 39 cb             	cmp    %rcx,%rbx
    4b91:	|  |  |  |  |  |  |  +-- 76 08                	jbe    4b9b <_ZN11BuilderBaseIiiiLb1EE17ParallelPrefixSumERK7pvectorIiE._omp_fn.0+0x14b>
/home/aliha951/forked_gapbs/gapbs/src/builder.h:115
        lsum += degrees[i];
    4b93:	|  |  |  |  |  |  |  |   49 63 54 13 08       	movslq 0x8(%r11,%rdx,1),%rdx
    4b98:	|  |  |  |  |  |  |  |   48 01 d0             	add    %rdx,%rax
/home/aliha951/forked_gapbs/gapbs/src/builder.h:116
      local_sums[block] = lsum;
    4b9b:	|  |  |  |  |  |  |  >-> 49 89 01             	mov    %rax,(%r9)
    4b9e:	|  |  |  |  |  |  |  |   49 83 c1 08          	add    $0x8,%r9
    4ba2:	|  |  |  |  |  |  |  |   48 81 c6 00 00 40 00 	add    $0x400000,%rsi
    4ba9:	|  |  |  |  |  |  |  |   49 39 e9             	cmp    %rbp,%r9
    4bac:	|  |  |  \--|--|--|--|-- 0f 85 26 ff ff ff    	jne    4ad8 <_ZN11BuilderBaseIiiiLb1EE17ParallelPrefixSumERK7pvectorIiE._omp_fn.0+0x88>
/home/aliha951/forked_gapbs/gapbs/src/builder.h:110
    #pragma omp parallel for
    4bb2:	\--|--|-----|--|--|--|-> 5b                   	pop    %rbx
    4bb3:	   |  |     |  |  |  |   5d                   	pop    %rbp
    4bb4:	   |  |     |  |  |  |   41 5c                	pop    %r12
    4bb6:	   |  |     |  |  |  |   c3                   	retq   
    4bb7:	   |  |     |  |  |  |   66 0f 1f 84 00 00 00 	nopw   0x0(%rax,%rax,1)
    4bbe:	00 00 
/home/aliha951/forked_gapbs/gapbs/src/builder.h:112
      SGOffset lsum = 0;
    4bc0:	   |  |     \--|--|--|-> 31 c0                	xor    %eax,%eax
    4bc2:	   |  |        |  |  \-- eb d7                	jmp    4b9b <_ZN11BuilderBaseIiiiLb1EE17ParallelPrefixSumERK7pvectorIiE._omp_fn.0+0x14b>
    4bc4:	   |  |        \--|----> 31 c0                	xor    %eax,%eax
    4bc6:	   |  |           \----- eb a2                	jmp    4b6a <_ZN11BuilderBaseIiiiLb1EE17ParallelPrefixSumERK7pvectorIiE._omp_fn.0+0x11a>
    4bc8:	   |  \----------------> 48 83 c0 01          	add    $0x1,%rax
/home/aliha951/forked_gapbs/gapbs/src/builder.h:110
    #pragma omp parallel for
    4bcc:	   |                     31 d2                	xor    %edx,%edx
    4bce:	   \-------------------- e9 b8 fe ff ff       	jmpq   4a8b <_ZN11BuilderBaseIiiiLb1EE17ParallelPrefixSumERK7pvectorIiE._omp_fn.0+0x3b>
    4bd3:	                         66 66 2e 0f 1f 84 00 	data16 nopw %cs:0x0(%rax,%rax,1)
    4bda:	00 00 00 00 
    4bde:	                         66 90                	xchg   %ax,%ax

0000000000004be0 <_ZN11BuilderBaseIiiiLb1EE17ParallelPrefixSumERK7pvectorIiE._omp_fn.1>:
_ZN11BuilderBaseIiiiLb1EE17ParallelPrefixSumERK7pvectorIiE._omp_fn.1():
/home/aliha951/forked_gapbs/gapbs/src/builder.h:126
      bulk_prefix[block] = total;
      total += local_sums[block];
    }
    bulk_prefix[num_blocks] = total;
    pvector<SGOffset> prefix(degrees.size() + 1);
    #pragma omp parallel for
    4be0:	                   f3 0f 1e fa          	endbr64 
    4be4:	                   41 54                	push   %r12
    4be6:	                   55                   	push   %rbp
    4be7:	                   53                   	push   %rbx
    4be8:	                   48 8b 5f 10          	mov    0x10(%rdi),%rbx
    4bec:	                   48 85 db             	test   %rbx,%rbx
    4bef:	/----------------- 0f 84 98 00 00 00    	je     4c8d <_ZN11BuilderBaseIiiiLb1EE17ParallelPrefixSumERK7pvectorIiE._omp_fn.1+0xad>
    4bf5:	|                  48 89 fd             	mov    %rdi,%rbp
    4bf8:	|                  e8 53 ed ff ff       	callq  3950 <omp_get_num_threads@plt>
    4bfd:	|                  41 89 c4             	mov    %eax,%r12d
    4c00:	|                  e8 8b ec ff ff       	callq  3890 <omp_get_thread_num@plt>
    4c05:	|                  49 63 cc             	movslq %r12d,%rcx
    4c08:	|                  31 d2                	xor    %edx,%edx
    4c0a:	|                  4c 63 c8             	movslq %eax,%r9
    4c0d:	|                  48 89 d8             	mov    %rbx,%rax
    4c10:	|                  48 f7 f1             	div    %rcx
    4c13:	|                  49 39 d1             	cmp    %rdx,%r9
    4c16:	|     /----------- 72 7a                	jb     4c92 <_ZN11BuilderBaseIiiiLb1EE17ParallelPrefixSumERK7pvectorIiE._omp_fn.1+0xb2>
    4c18:	|  /--|----------> 4c 0f af c8          	imul   %rax,%r9
    4c1c:	|  |  |            49 01 d1             	add    %rdx,%r9
    4c1f:	|  |  |            4c 01 c8             	add    %r9,%rax
    4c22:	|  |  |            49 39 c1             	cmp    %rax,%r9
    4c25:	+--|--|----------- 73 66                	jae    4c8d <_ZN11BuilderBaseIiiiLb1EE17ParallelPrefixSumERK7pvectorIiE._omp_fn.1+0xad>
/home/aliha951/forked_gapbs/gapbs/src/builder.h:129
    for (size_t block=0; block < num_blocks; block++) {
      SGOffset local_total = bulk_prefix[block];
      size_t block_end = std::min((block + 1) * block_size, degrees.size());
    4c27:	|  |  |            48 8b 4d 00          	mov    0x0(%rbp),%rcx
_ZN7pvectorIlEixEm():
/home/aliha951/forked_gapbs/gapbs/src/pvector.h:116
    return start_[n];
    4c2b:	|  |  |            48 8b 55 18          	mov    0x18(%rbp),%rdx
_ZN11BuilderBaseIiiiLb1EE17ParallelPrefixSumERK7pvectorIiE._omp_fn.1():
/home/aliha951/forked_gapbs/gapbs/src/builder.h:131
      for (size_t i=block * block_size; i < block_end; i++) {
        prefix[i] = local_total;
    4c2f:	|  |  |            48 8b 6d 08          	mov    0x8(%rbp),%rbp
_ZNK7pvectorIiE4sizeEv():
/home/aliha951/forked_gapbs/gapbs/src/pvector.h:143
    return end_size_ - start_;
    4c33:	|  |  |            4c 8b 01             	mov    (%rcx),%r8
    4c36:	|  |  |            4c 8b 59 08          	mov    0x8(%rcx),%r11
_ZN7pvectorIlEixEm():
/home/aliha951/forked_gapbs/gapbs/src/pvector.h:116
    return start_[n];
    4c3a:	|  |  |            48 8b 12             	mov    (%rdx),%rdx
_ZNK7pvectorIiE4sizeEv():
/home/aliha951/forked_gapbs/gapbs/src/pvector.h:143
    return end_size_ - start_;
    4c3d:	|  |  |            4d 29 c3             	sub    %r8,%r11
    4c40:	|  |  |            4e 8d 14 ca          	lea    (%rdx,%r9,8),%r10
    4c44:	|  |  |            49 c1 fb 02          	sar    $0x2,%r11
    4c48:	|  |  |            49 c1 e1 14          	shl    $0x14,%r9
    4c4c:	|  |  |            48 8d 1c c2          	lea    (%rdx,%rax,8),%rbx
_ZN7pvectorIlEixEm():
/home/aliha951/forked_gapbs/gapbs/src/pvector.h:115
  T_& operator[](size_t n) {
    4c50:	|  |  |  /-------> 4c 89 c8             	mov    %r9,%rax
_ZN11BuilderBaseIiiiLb1EE17ParallelPrefixSumERK7pvectorIiE._omp_fn.1():
/home/aliha951/forked_gapbs/gapbs/src/builder.h:129
      size_t block_end = std::min((block + 1) * block_size, degrees.size());
    4c53:	|  |  |  |         49 81 c1 00 00 10 00 	add    $0x100000,%r9
    4c5a:	|  |  |  |         4c 89 de             	mov    %r11,%rsi
/home/aliha951/forked_gapbs/gapbs/src/builder.h:128
      SGOffset local_total = bulk_prefix[block];
    4c5d:	|  |  |  |         49 8b 12             	mov    (%r10),%rdx
_ZNK7pvectorIiE4sizeEv():
/home/aliha951/forked_gapbs/gapbs/src/pvector.h:142
  size_t size() const {
    4c60:	|  |  |  |         4d 39 d9             	cmp    %r11,%r9
    4c63:	|  |  |  |         49 0f 46 f1          	cmovbe %r9,%rsi
_ZN11BuilderBaseIiiiLb1EE17ParallelPrefixSumERK7pvectorIiE._omp_fn.1():
/home/aliha951/forked_gapbs/gapbs/src/builder.h:130
      for (size_t i=block * block_size; i < block_end; i++) {
    4c67:	|  |  |  |         48 39 c6             	cmp    %rax,%rsi
    4c6a:	|  |  |  |  /----- 76 18                	jbe    4c84 <_ZN11BuilderBaseIiiiLb1EE17ParallelPrefixSumERK7pvectorIiE._omp_fn.1+0xa4>
_ZN7pvectorIlEixEm():
/home/aliha951/forked_gapbs/gapbs/src/pvector.h:116
    return start_[n];
    4c6c:	|  |  |  |  |      48 8b 7d 00          	mov    0x0(%rbp),%rdi
_ZN11BuilderBaseIiiiLb1EE17ParallelPrefixSumERK7pvectorIiE._omp_fn.1():
/home/aliha951/forked_gapbs/gapbs/src/builder.h:132 (discriminator 2)
        local_total += degrees[i];
    4c70:	|  |  |  |  |  /-> 49 63 0c 80          	movslq (%r8,%rax,4),%rcx
/home/aliha951/forked_gapbs/gapbs/src/builder.h:131 (discriminator 2)
        prefix[i] = local_total;
    4c74:	|  |  |  |  |  |   48 89 14 c7          	mov    %rdx,(%rdi,%rax,8)
/home/aliha951/forked_gapbs/gapbs/src/builder.h:130 (discriminator 2)
      for (size_t i=block * block_size; i < block_end; i++) {
    4c78:	|  |  |  |  |  |   48 83 c0 01          	add    $0x1,%rax
/home/aliha951/forked_gapbs/gapbs/src/builder.h:132 (discriminator 2)
        local_total += degrees[i];
    4c7c:	|  |  |  |  |  |   48 01 ca             	add    %rcx,%rdx
/home/aliha951/forked_gapbs/gapbs/src/builder.h:130 (discriminator 2)
      for (size_t i=block * block_size; i < block_end; i++) {
    4c7f:	|  |  |  |  |  |   48 39 c6             	cmp    %rax,%rsi
    4c82:	|  |  |  |  |  \-- 75 ec                	jne    4c70 <_ZN11BuilderBaseIiiiLb1EE17ParallelPrefixSumERK7pvectorIiE._omp_fn.1+0x90>
    4c84:	|  |  |  |  \----> 49 83 c2 08          	add    $0x8,%r10
    4c88:	|  |  |  |         49 39 da             	cmp    %rbx,%r10
    4c8b:	|  |  |  \-------- 75 c3                	jne    4c50 <_ZN11BuilderBaseIiiiLb1EE17ParallelPrefixSumERK7pvectorIiE._omp_fn.1+0x70>
/home/aliha951/forked_gapbs/gapbs/src/builder.h:126
    #pragma omp parallel for
    4c8d:	\--|--|----------> 5b                   	pop    %rbx
    4c8e:	   |  |            5d                   	pop    %rbp
    4c8f:	   |  |            41 5c                	pop    %r12
    4c91:	   |  |            c3                   	retq   
    4c92:	   |  \----------> 48 83 c0 01          	add    $0x1,%rax
    4c96:	   |               31 d2                	xor    %edx,%edx
    4c98:	   \-------------- e9 7b ff ff ff       	jmpq   4c18 <_ZN11BuilderBaseIiiiLb1EE17ParallelPrefixSumERK7pvectorIiE._omp_fn.1+0x38>
    4c9d:	                   0f 1f 00             	nopl   (%rax)

0000000000004ca0 <_ZN7pvectorIiE4fillEi._omp_fn.0>:
_ZN7pvectorIiE4fillEi._omp_fn.0():
/home/aliha951/forked_gapbs/gapbs/src/pvector.h:133
    #pragma omp parallel for
    4ca0:	                f3 0f 1e fa          	endbr64 
    4ca4:	                41 55                	push   %r13
    4ca6:	                41 54                	push   %r12
    4ca8:	                55                   	push   %rbp
    4ca9:	                53                   	push   %rbx
    4caa:	                48 83 ec 08          	sub    $0x8,%rsp
    4cae:	                48 8b 07             	mov    (%rdi),%rax
/home/aliha951/forked_gapbs/gapbs/src/pvector.h:134
    for (T_* ptr=start_; ptr < end_size_; ptr++)
    4cb1:	                48 8b 28             	mov    (%rax),%rbp
    4cb4:	                4c 8b 68 08          	mov    0x8(%rax),%r13
    4cb8:	                4c 39 ed             	cmp    %r13,%rbp
    4cbb:	/-------------- 0f 83 dd 00 00 00    	jae    4d9e <_ZN7pvectorIiE4fillEi._omp_fn.0+0xfe>
    4cc1:	|               49 89 fc             	mov    %rdi,%r12
    4cc4:	|               e8 87 ec ff ff       	callq  3950 <omp_get_num_threads@plt>
    4cc9:	|               48 63 d8             	movslq %eax,%rbx
    4ccc:	|               e8 bf eb ff ff       	callq  3890 <omp_get_thread_num@plt>
    4cd1:	|               48 63 c8             	movslq %eax,%rcx
    4cd4:	|               49 8d 45 03          	lea    0x3(%r13),%rax
    4cd8:	|               48 29 e8             	sub    %rbp,%rax
    4cdb:	|               48 89 c2             	mov    %rax,%rdx
    4cde:	|               48 8d 40 03          	lea    0x3(%rax),%rax
    4ce2:	|               48 0f 49 c2          	cmovns %rdx,%rax
    4ce6:	|               48 c1 f8 02          	sar    $0x2,%rax
    4cea:	|               48 99                	cqto   
    4cec:	|               48 f7 fb             	idiv   %rbx
    4cef:	|               48 39 d1             	cmp    %rdx,%rcx
    4cf2:	|     /-------- 0f 8c b8 00 00 00    	jl     4db0 <_ZN7pvectorIiE4fillEi._omp_fn.0+0x110>
    4cf8:	|  /--|-------> 48 0f af c8          	imul   %rax,%rcx
    4cfc:	|  |  |         48 01 ca             	add    %rcx,%rdx
    4cff:	|  |  |         48 01 d0             	add    %rdx,%rax
    4d02:	|  |  |         48 39 c2             	cmp    %rax,%rdx
    4d05:	+--|--|-------- 0f 8d 93 00 00 00    	jge    4d9e <_ZN7pvectorIiE4fillEi._omp_fn.0+0xfe>
    4d0b:	|  |  |         48 c1 e2 02          	shl    $0x2,%rdx
    4d0f:	|  |  |         48 c1 e0 02          	shl    $0x2,%rax
/home/aliha951/forked_gapbs/gapbs/src/pvector.h:133
    #pragma omp parallel for
    4d13:	|  |  |         41 8b 7c 24 08       	mov    0x8(%r12),%edi
    4d18:	|  |  |         48 8d 74 15 00       	lea    0x0(%rbp,%rdx,1),%rsi
    4d1d:	|  |  |         48 01 c5             	add    %rax,%rbp
    4d20:	|  |  |         48 29 d0             	sub    %rdx,%rax
    4d23:	|  |  |         48 83 e8 01          	sub    $0x1,%rax
    4d27:	|  |  |         4c 8d 46 01          	lea    0x1(%rsi),%r8
    4d2b:	|  |  |         48 89 f1             	mov    %rsi,%rcx
    4d2e:	|  |  |         48 89 c2             	mov    %rax,%rdx
    4d31:	|  |  |         48 c1 ea 02          	shr    $0x2,%rdx
    4d35:	|  |  |         48 83 c2 01          	add    $0x1,%rdx
    4d39:	|  |  |         4c 39 c5             	cmp    %r8,%rbp
    4d3c:	|  |  |         41 b8 01 00 00 00    	mov    $0x1,%r8d
    4d42:	|  |  |         49 0f 42 d0          	cmovb  %r8,%rdx
    4d46:	|  |  |  /----- 72 3c                	jb     4d84 <_ZN7pvectorIiE4fillEi._omp_fn.0+0xe4>
    4d48:	|  |  |  |      48 83 f8 0b          	cmp    $0xb,%rax
    4d4c:	|  |  |  +----- 76 36                	jbe    4d84 <_ZN7pvectorIiE4fillEi._omp_fn.0+0xe4>
    4d4e:	|  |  |  |      48 89 d0             	mov    %rdx,%rax
    4d51:	|  |  |  |      66 0f 6e cf          	movd   %edi,%xmm1
    4d55:	|  |  |  |      48 c1 e8 02          	shr    $0x2,%rax
    4d59:	|  |  |  |      66 0f 70 c1 00       	pshufd $0x0,%xmm1,%xmm0
    4d5e:	|  |  |  |      48 c1 e0 04          	shl    $0x4,%rax
    4d62:	|  |  |  |      48 01 f0             	add    %rsi,%rax
    4d65:	|  |  |  |      0f 1f 00             	nopl   (%rax)
/home/aliha951/forked_gapbs/gapbs/src/pvector.h:135 (discriminator 1)
      *ptr = init_val;
    4d68:	|  |  |  |  /-> 0f 11 01             	movups %xmm0,(%rcx)
    4d6b:	|  |  |  |  |   48 83 c1 10          	add    $0x10,%rcx
    4d6f:	|  |  |  |  |   48 39 c1             	cmp    %rax,%rcx
    4d72:	|  |  |  |  \-- 75 f4                	jne    4d68 <_ZN7pvectorIiE4fillEi._omp_fn.0+0xc8>
    4d74:	|  |  |  |      48 89 d0             	mov    %rdx,%rax
    4d77:	|  |  |  |      48 83 e0 fc          	and    $0xfffffffffffffffc,%rax
    4d7b:	|  |  |  |      48 8d 34 86          	lea    (%rsi,%rax,4),%rsi
    4d7f:	|  |  |  |      48 39 c2             	cmp    %rax,%rdx
    4d82:	+--|--|--|----- 74 1a                	je     4d9e <_ZN7pvectorIiE4fillEi._omp_fn.0+0xfe>
    4d84:	|  |  |  \----> 48 8d 46 04          	lea    0x4(%rsi),%rax
/home/aliha951/forked_gapbs/gapbs/src/pvector.h:135
    4d88:	|  |  |         89 3e                	mov    %edi,(%rsi)
    4d8a:	|  |  |         48 39 c5             	cmp    %rax,%rbp
    4d8d:	+--|--|-------- 76 0f                	jbe    4d9e <_ZN7pvectorIiE4fillEi._omp_fn.0+0xfe>
    4d8f:	|  |  |         48 8d 46 08          	lea    0x8(%rsi),%rax
    4d93:	|  |  |         89 7e 04             	mov    %edi,0x4(%rsi)
    4d96:	|  |  |         48 39 c5             	cmp    %rax,%rbp
    4d99:	+--|--|-------- 76 03                	jbe    4d9e <_ZN7pvectorIiE4fillEi._omp_fn.0+0xfe>
    4d9b:	|  |  |         89 7e 08             	mov    %edi,0x8(%rsi)
/home/aliha951/forked_gapbs/gapbs/src/pvector.h:133
    #pragma omp parallel for
    4d9e:	\--|--|-------> 48 83 c4 08          	add    $0x8,%rsp
    4da2:	   |  |         5b                   	pop    %rbx
    4da3:	   |  |         5d                   	pop    %rbp
    4da4:	   |  |         41 5c                	pop    %r12
    4da6:	   |  |         41 5d                	pop    %r13
    4da8:	   |  |         c3                   	retq   
    4da9:	   |  |         0f 1f 80 00 00 00 00 	nopl   0x0(%rax)
    4db0:	   |  \-------> 48 83 c0 01          	add    $0x1,%rax
/home/aliha951/forked_gapbs/gapbs/src/pvector.h:134
    for (T_* ptr=start_; ptr < end_size_; ptr++)
    4db4:	   |            31 d2                	xor    %edx,%edx
    4db6:	   \----------- e9 3d ff ff ff       	jmpq   4cf8 <_ZN7pvectorIiE4fillEi._omp_fn.0+0x58>
    4dbb:	                0f 1f 44 00 00       	nopl   0x0(%rax,%rax,1)

0000000000004dc0 <_ZSt13__adjust_heapIPiliN9__gnu_cxx5__ops15_Iter_less_iterEEvT_T0_S5_T1_T2_.isra.0>:
_ZSt13__adjust_heapIPiliN9__gnu_cxx5__ops15_Iter_less_iterEEvT_T0_S5_T1_T2_():
/usr/include/c++/10/bits/stl_heap.h:228
    __adjust_heap(_RandomAccessIterator __first, _Distance __holeIndex,
		  _Distance __len, _Tp __value, _Compare __comp)
    {
      const _Distance __topIndex = __holeIndex;
      _Distance __secondChild = __holeIndex;
      while (__secondChild < (__len - 1) / 2)
    4dc0:	                      48 8d 42 ff          	lea    -0x1(%rdx),%rax
/usr/include/c++/10/bits/stl_heap.h:223
    __adjust_heap(_RandomAccessIterator __first, _Distance __holeIndex,
    4dc4:	                      55                   	push   %rbp
/usr/include/c++/10/bits/stl_heap.h:237
		     __first + (__secondChild - 1)))
	    __secondChild--;
	  *(__first + __holeIndex) = _GLIBCXX_MOVE(*(__first + __secondChild));
	  __holeIndex = __secondChild;
	}
      if ((__len & 1) == 0 && __secondChild == (__len - 2) / 2)
    4dc5:	                      48 89 d5             	mov    %rdx,%rbp
/usr/include/c++/10/bits/stl_heap.h:223
    __adjust_heap(_RandomAccessIterator __first, _Distance __holeIndex,
    4dc8:	                      49 89 f0             	mov    %rsi,%r8
/usr/include/c++/10/bits/stl_heap.h:228
      while (__secondChild < (__len - 1) / 2)
    4dcb:	                      49 89 c3             	mov    %rax,%r11
/usr/include/c++/10/bits/stl_heap.h:223
    __adjust_heap(_RandomAccessIterator __first, _Distance __holeIndex,
    4dce:	                      53                   	push   %rbx
    4dcf:	                      41 89 c9             	mov    %ecx,%r9d
    4dd2:	                      48 89 d3             	mov    %rdx,%rbx
/usr/include/c++/10/bits/stl_heap.h:228
      while (__secondChild < (__len - 1) / 2)
    4dd5:	                      49 c1 eb 3f          	shr    $0x3f,%r11
/usr/include/c++/10/bits/stl_heap.h:237
      if ((__len & 1) == 0 && __secondChild == (__len - 2) / 2)
    4dd9:	                      83 e5 01             	and    $0x1,%ebp
/usr/include/c++/10/bits/stl_heap.h:228
      while (__secondChild < (__len - 1) / 2)
    4ddc:	                      49 01 c3             	add    %rax,%r11
    4ddf:	                      49 d1 fb             	sar    %r11
    4de2:	                      4c 39 de             	cmp    %r11,%rsi
    4de5:	                  /-- 7c 1e                	jl     4e05 <_ZSt13__adjust_heapIPiliN9__gnu_cxx5__ops15_Iter_less_iterEEvT_T0_S5_T1_T2_.isra.0+0x45>
    4de7:	/-----------------|-- e9 94 00 00 00       	jmpq   4e80 <_ZSt13__adjust_heapIPiliN9__gnu_cxx5__ops15_Iter_less_iterEEvT_T0_S5_T1_T2_.isra.0+0xc0>
    4dec:	|                 |   0f 1f 40 00          	nopl   0x0(%rax)
/usr/include/c++/10/bits/stl_heap.h:233
	    __secondChild--;
    4df0:	|        /--------|-> 48 83 e8 01          	sub    $0x1,%rax
/usr/include/c++/10/bits/stl_heap.h:234
	  *(__first + __holeIndex) = _GLIBCXX_MOVE(*(__first + __secondChild));
    4df4:	|        |        |   48 8d 0c 87          	lea    (%rdi,%rax,4),%rcx
    4df8:	|        |        |   8b 11                	mov    (%rcx),%edx
    4dfa:	|        |        |   89 14 b7             	mov    %edx,(%rdi,%rsi,4)
/usr/include/c++/10/bits/stl_heap.h:228
      while (__secondChild < (__len - 1) / 2)
    4dfd:	|        |        |   4c 39 d8             	cmp    %r11,%rax
    4e00:	|        |  /-----|-- 7d 26                	jge    4e28 <_ZSt13__adjust_heapIPiliN9__gnu_cxx5__ops15_Iter_less_iterEEvT_T0_S5_T1_T2_.isra.0+0x68>
/usr/include/c++/10/bits/stl_heap.h:223
    __adjust_heap(_RandomAccessIterator __first, _Distance __holeIndex,
    4e02:	|        |  |  /--|-> 48 89 c6             	mov    %rax,%rsi
/usr/include/c++/10/bits/stl_heap.h:230
	  __secondChild = 2 * (__secondChild + 1);
    4e05:	|        |  |  |  \-> 48 8d 56 01          	lea    0x1(%rsi),%rdx
    4e09:	|        |  |  |      48 8d 04 12          	lea    (%rdx,%rdx,1),%rax
/usr/include/c++/10/bits/stl_heap.h:232
		     __first + (__secondChild - 1)))
    4e0d:	|        |  |  |      48 c1 e2 03          	shl    $0x3,%rdx
/usr/include/c++/10/bits/stl_heap.h:231
	  if (__comp(__first + __secondChild,
    4e11:	|        |  |  |      48 8d 0c 17          	lea    (%rdi,%rdx,1),%rcx
_ZNK9__gnu_cxx5__ops15_Iter_less_iterclIPiS3_EEbT_T0_():
/usr/include/c++/10/bits/predefined_ops.h:43
  {
    template<typename _Iterator1, typename _Iterator2>
      _GLIBCXX14_CONSTEXPR
      bool
      operator()(_Iterator1 __it1, _Iterator2 __it2) const
      { return *__it1 < *__it2; }
    4e15:	|        |  |  |      44 8b 11             	mov    (%rcx),%r10d
_ZSt13__adjust_heapIPiliN9__gnu_cxx5__ops15_Iter_less_iterEEvT_T0_S5_T1_T2_():
/usr/include/c++/10/bits/stl_heap.h:231
    4e18:	|        |  |  |      44 3b 54 17 fc       	cmp    -0x4(%rdi,%rdx,1),%r10d
    4e1d:	|        \--|--|----- 7c d1                	jl     4df0 <_ZSt13__adjust_heapIPiliN9__gnu_cxx5__ops15_Iter_less_iterEEvT_T0_S5_T1_T2_.isra.0+0x30>
/usr/include/c++/10/bits/stl_heap.h:234
	  *(__first + __holeIndex) = _GLIBCXX_MOVE(*(__first + __secondChild));
    4e1f:	|           |  |      44 89 14 b7          	mov    %r10d,(%rdi,%rsi,4)
/usr/include/c++/10/bits/stl_heap.h:228
      while (__secondChild < (__len - 1) / 2)
    4e23:	|           |  |      4c 39 d8             	cmp    %r11,%rax
    4e26:	|           |  \----- 7c da                	jl     4e02 <_ZSt13__adjust_heapIPiliN9__gnu_cxx5__ops15_Iter_less_iterEEvT_T0_S5_T1_T2_.isra.0+0x42>
/usr/include/c++/10/bits/stl_heap.h:237
      if ((__len & 1) == 0 && __secondChild == (__len - 2) / 2)
    4e28:	|           \-------> 48 85 ed             	test   %rbp,%rbp
    4e2b:	|     /-------------- 74 63                	je     4e90 <_ZSt13__adjust_heapIPiliN9__gnu_cxx5__ops15_Iter_less_iterEEvT_T0_S5_T1_T2_.isra.0+0xd0>
_ZSt11__push_heapIPiliN9__gnu_cxx5__ops14_Iter_less_valEEvT_T0_S5_T1_RT2_():
/usr/include/c++/10/bits/stl_heap.h:138
      _Distance __parent = (__holeIndex - 1) / 2;
    4e2d:	|  /--|-------------> 48 8d 50 ff          	lea    -0x1(%rax),%rdx
    4e31:	|  |  |               48 89 d6             	mov    %rdx,%rsi
    4e34:	|  |  |               48 c1 ee 3f          	shr    $0x3f,%rsi
    4e38:	|  |  |               48 01 d6             	add    %rdx,%rsi
    4e3b:	|  |  |               48 d1 fe             	sar    %rsi
/usr/include/c++/10/bits/stl_heap.h:139
      while (__holeIndex > __topIndex && __comp(__first + __parent, __value))
    4e3e:	|  |  |               4c 39 c0             	cmp    %r8,%rax
    4e41:	|  |  |           /-- 7f 26                	jg     4e69 <_ZSt13__adjust_heapIPiliN9__gnu_cxx5__ops15_Iter_less_iterEEvT_T0_S5_T1_T2_.isra.0+0xa9>
    4e43:	|  |  |     /-----|-- eb 34                	jmp    4e79 <_ZSt13__adjust_heapIPiliN9__gnu_cxx5__ops15_Iter_less_iterEEvT_T0_S5_T1_T2_.isra.0+0xb9>
    4e45:	|  |  |     |     |   0f 1f 00             	nopl   (%rax)
/usr/include/c++/10/bits/stl_heap.h:141
	  *(__first + __holeIndex) = _GLIBCXX_MOVE(*(__first + __parent));
    4e48:	|  |  |     |  /--|-> 89 11                	mov    %edx,(%rcx)
/usr/include/c++/10/bits/stl_heap.h:143
	  __parent = (__holeIndex - 1) / 2;
    4e4a:	|  |  |     |  |  |   48 8d 56 ff          	lea    -0x1(%rsi),%rdx
    4e4e:	|  |  |     |  |  |   48 89 d0             	mov    %rdx,%rax
    4e51:	|  |  |     |  |  |   48 c1 e8 3f          	shr    $0x3f,%rax
    4e55:	|  |  |     |  |  |   48 01 d0             	add    %rdx,%rax
    4e58:	|  |  |     |  |  |   48 d1 f8             	sar    %rax
    4e5b:	|  |  |     |  |  |   48 89 c2             	mov    %rax,%rdx
/usr/include/c++/10/bits/stl_heap.h:139
      while (__holeIndex > __topIndex && __comp(__first + __parent, __value))
    4e5e:	|  |  |     |  |  |   48 89 f0             	mov    %rsi,%rax
    4e61:	|  |  |     |  |  |   49 39 f0             	cmp    %rsi,%r8
    4e64:	|  |  |  /--|--|--|-- 7d 5a                	jge    4ec0 <_ZSt13__adjust_heapIPiliN9__gnu_cxx5__ops15_Iter_less_iterEEvT_T0_S5_T1_T2_.isra.0+0x100>
/usr/include/c++/10/bits/stl_heap.h:143
	  __parent = (__holeIndex - 1) / 2;
    4e66:	|  |  |  |  |  |  |   48 89 d6             	mov    %rdx,%rsi
/usr/include/c++/10/bits/stl_heap.h:139
      while (__holeIndex > __topIndex && __comp(__first + __parent, __value))
    4e69:	|  |  |  |  |  |  \-> 4c 8d 14 b7          	lea    (%rdi,%rsi,4),%r10
/usr/include/c++/10/bits/stl_heap.h:141
	  *(__first + __holeIndex) = _GLIBCXX_MOVE(*(__first + __parent));
    4e6d:	|  |  |  |  |  |      48 8d 0c 87          	lea    (%rdi,%rax,4),%rcx
_ZNK9__gnu_cxx5__ops14_Iter_less_valclIPiiEEbT_RT0_():
/usr/include/c++/10/bits/predefined_ops.h:67

    template<typename _Iterator, typename _Value>
      _GLIBCXX20_CONSTEXPR
      bool
      operator()(_Iterator __it, _Value& __val) const
      { return *__it < __val; }
    4e71:	|  |  |  |  |  |      41 8b 12             	mov    (%r10),%edx
_ZSt11__push_heapIPiliN9__gnu_cxx5__ops14_Iter_less_valEEvT_T0_S5_T1_RT2_():
/usr/include/c++/10/bits/stl_heap.h:139
      while (__holeIndex > __topIndex && __comp(__first + __parent, __value))
    4e74:	|  |  |  |  |  |      44 39 ca             	cmp    %r9d,%edx
    4e77:	|  |  |  |  |  \----- 7c cf                	jl     4e48 <_ZSt13__adjust_heapIPiliN9__gnu_cxx5__ops15_Iter_less_iterEEvT_T0_S5_T1_T2_.isra.0+0x88>
/usr/include/c++/10/bits/stl_heap.h:145
      *(__first + __holeIndex) = _GLIBCXX_MOVE(__value);
    4e79:	|  |  |  |  >-------> 44 89 09             	mov    %r9d,(%rcx)
_ZSt13__adjust_heapIPiliN9__gnu_cxx5__ops15_Iter_less_iterEEvT_T0_S5_T1_T2_():
/usr/include/c++/10/bits/stl_heap.h:248
	}
      __decltype(__gnu_cxx::__ops::__iter_comp_val(_GLIBCXX_MOVE(__comp)))
	__cmp(_GLIBCXX_MOVE(__comp));
      std::__push_heap(__first, __holeIndex, __topIndex,
		       _GLIBCXX_MOVE(__value), __cmp);
    }
    4e7c:	|  |  |  |  |         5b                   	pop    %rbx
    4e7d:	|  |  |  |  |         5d                   	pop    %rbp
    4e7e:	|  |  |  |  |         c3                   	retq   
    4e7f:	|  |  |  |  |         90                   	nop
_ZSt11__push_heapIPiliN9__gnu_cxx5__ops14_Iter_less_valEEvT_T0_S5_T1_RT2_():
/usr/include/c++/10/bits/stl_heap.h:145
      *(__first + __holeIndex) = _GLIBCXX_MOVE(__value);
    4e80:	\--|--|--|--|-------> 48 8d 0c b7          	lea    (%rdi,%rsi,4),%rcx
_ZSt13__adjust_heapIPiliN9__gnu_cxx5__ops15_Iter_less_iterEEvT_T0_S5_T1_T2_():
/usr/include/c++/10/bits/stl_heap.h:237
      if ((__len & 1) == 0 && __secondChild == (__len - 2) / 2)
    4e84:	   |  |  |  |         48 85 ed             	test   %rbp,%rbp
    4e87:	   |  |  |  \-------- 75 f0                	jne    4e79 <_ZSt13__adjust_heapIPiliN9__gnu_cxx5__ops15_Iter_less_iterEEvT_T0_S5_T1_T2_.isra.0+0xb9>
    4e89:	   |  |  |            4c 89 c0             	mov    %r8,%rax
    4e8c:	   |  |  |            0f 1f 40 00          	nopl   0x0(%rax)
    4e90:	   |  \--|----------> 48 8d 53 fe          	lea    -0x2(%rbx),%rdx
    4e94:	   |     |            48 89 d3             	mov    %rdx,%rbx
    4e97:	   |     |            48 c1 eb 3f          	shr    $0x3f,%rbx
    4e9b:	   |     |            48 01 d3             	add    %rdx,%rbx
    4e9e:	   |     |            48 d1 fb             	sar    %rbx
    4ea1:	   |     |            48 39 d8             	cmp    %rbx,%rax
    4ea4:	   +-----|----------- 75 87                	jne    4e2d <_ZSt13__adjust_heapIPiliN9__gnu_cxx5__ops15_Iter_less_iterEEvT_T0_S5_T1_T2_.isra.0+0x6d>
/usr/include/c++/10/bits/stl_heap.h:239
	  __secondChild = 2 * (__secondChild + 1);
    4ea6:	   |     |            48 8d 44 00 02       	lea    0x2(%rax,%rax,1),%rax
/usr/include/c++/10/bits/stl_heap.h:240
	  *(__first + __holeIndex) = _GLIBCXX_MOVE(*(__first
    4eab:	   |     |            8b 54 87 fc          	mov    -0x4(%rdi,%rax,4),%edx
/usr/include/c++/10/bits/stl_heap.h:242
	  __holeIndex = __secondChild - 1;
    4eaf:	   |     |            48 83 e8 01          	sub    $0x1,%rax
/usr/include/c++/10/bits/stl_heap.h:240
	  *(__first + __holeIndex) = _GLIBCXX_MOVE(*(__first
    4eb3:	   |     |            89 11                	mov    %edx,(%rcx)
_ZSt11__push_heapIPiliN9__gnu_cxx5__ops14_Iter_less_valEEvT_T0_S5_T1_RT2_():
/usr/include/c++/10/bits/stl_heap.h:145
      *(__first + __holeIndex) = _GLIBCXX_MOVE(__value);
    4eb5:	   |     |            48 8d 0c 87          	lea    (%rdi,%rax,4),%rcx
_ZSt13__adjust_heapIPiliN9__gnu_cxx5__ops15_Iter_less_iterEEvT_T0_S5_T1_T2_():
/usr/include/c++/10/bits/stl_heap.h:145
    4eb9:	   \-----|----------- e9 6f ff ff ff       	jmpq   4e2d <_ZSt13__adjust_heapIPiliN9__gnu_cxx5__ops15_Iter_less_iterEEvT_T0_S5_T1_T2_.isra.0+0x6d>
    4ebe:	         |            66 90                	xchg   %ax,%ax
_ZSt11__push_heapIPiliN9__gnu_cxx5__ops14_Iter_less_valEEvT_T0_S5_T1_RT2_():
/usr/include/c++/10/bits/stl_heap.h:145
    4ec0:	         \----------> 4c 89 d1             	mov    %r10,%rcx
    4ec3:	                      44 89 09             	mov    %r9d,(%rcx)
_ZSt13__adjust_heapIPiliN9__gnu_cxx5__ops15_Iter_less_iterEEvT_T0_S5_T1_T2_():
/usr/include/c++/10/bits/stl_heap.h:248
    }
    4ec6:	                      5b                   	pop    %rbx
    4ec7:	                      5d                   	pop    %rbp
    4ec8:	                      c3                   	retq   
_ZSt13__adjust_heapIPiliN9__gnu_cxx5__ops15_Iter_less_iterEEvT_T0_S5_T1_T2_.isra.0():
/usr/include/c++/10/bits/stl_heap.h:248
    4ec9:	                      0f 1f 80 00 00 00 00 	nopl   0x0(%rax)

0000000000004ed0 <_ZSt16__introsort_loopIPilN9__gnu_cxx5__ops15_Iter_less_iterEEvT_S4_T0_T1_.isra.0>:
_ZSt16__introsort_loopIPilN9__gnu_cxx5__ops15_Iter_less_iterEEvT_S4_T0_T1_():
/usr/include/c++/10/bits/stl_algo.h:1954
    void
    __introsort_loop(_RandomAccessIterator __first,
		     _RandomAccessIterator __last,
		     _Size __depth_limit, _Compare __comp)
    {
      while (__last - __first > int(_S_threshold))
    4ed0:	            /-------------------------> 48 89 f0             	mov    %rsi,%rax
    4ed3:	            |                           48 29 f8             	sub    %rdi,%rax
    4ed6:	            |                           48 83 f8 40          	cmp    $0x40,%rax
    4eda:	/-----------|-------------------------- 0f 8e a1 01 00 00    	jle    5081 <_ZSt16__introsort_loopIPilN9__gnu_cxx5__ops15_Iter_less_iterEEvT_S4_T0_T1_.isra.0+0x1b1>
/usr/include/c++/10/bits/stl_algo.h:1950
    __introsort_loop(_RandomAccessIterator __first,
    4ee0:	|           |                           41 56                	push   %r14
    4ee2:	|           |                           49 89 f0             	mov    %rsi,%r8
    4ee5:	|           |                           49 89 d6             	mov    %rdx,%r14
    4ee8:	|           |                           41 55                	push   %r13
    4eea:	|           |                           49 89 fd             	mov    %rdi,%r13
    4eed:	|           |                           41 54                	push   %r12
    4eef:	|           |                           55                   	push   %rbp
_ZSt27__unguarded_partition_pivotIPiN9__gnu_cxx5__ops15_Iter_less_iterEET_S4_S4_T0_():
/usr/include/c++/10/bits/stl_algo.h:1929
      std::__move_median_to_first(__first, __first + 1, __mid, __last - 1,
    4ef0:	|           |                           48 8d 6f 04          	lea    0x4(%rdi),%rbp
_ZSt16__introsort_loopIPilN9__gnu_cxx5__ops15_Iter_less_iterEEvT_S4_T0_T1_():
/usr/include/c++/10/bits/stl_algo.h:1950
    __introsort_loop(_RandomAccessIterator __first,
    4ef4:	|           |                           53                   	push   %rbx
/usr/include/c++/10/bits/stl_algo.h:1956
	{
	  if (__depth_limit == 0)
    4ef5:	|           |                           48 85 d2             	test   %rdx,%rdx
    4ef8:	|        /--|-------------------------- 0f 84 ef 00 00 00    	je     4fed <_ZSt16__introsort_loopIPilN9__gnu_cxx5__ops15_Iter_less_iterEEvT_S4_T0_T1_.isra.0+0x11d>
_ZSt27__unguarded_partition_pivotIPiN9__gnu_cxx5__ops15_Iter_less_iterEET_S4_S4_T0_():
/usr/include/c++/10/bits/stl_algo.h:1928
      _RandomAccessIterator __mid = __first + (__last - __first) / 2;
    4efe:	|        |  |     /-------------------> 48 c1 f8 03          	sar    $0x3,%rax
_ZNK9__gnu_cxx5__ops15_Iter_less_iterclIPiS3_EEbT_T0_():
/usr/include/c++/10/bits/predefined_ops.h:43
      { return *__it1 < *__it2; }
    4f02:	|        |  |     |                     41 8b 4d 04          	mov    0x4(%r13),%ecx
    4f06:	|        |  |     |                     41 8b 70 fc          	mov    -0x4(%r8),%esi
_ZSt16__introsort_loopIPilN9__gnu_cxx5__ops15_Iter_less_iterEEvT_S4_T0_T1_():
/usr/include/c++/10/bits/stl_algo.h:1961
	    {
	      std::__partial_sort(__first, __last, __last, __comp);
	      return;
	    }
	  --__depth_limit;
    4f0a:	|        |  |     |                     49 83 ee 01          	sub    $0x1,%r14
_ZSt27__unguarded_partition_pivotIPiN9__gnu_cxx5__ops15_Iter_less_iterEET_S4_S4_T0_():
/usr/include/c++/10/bits/stl_algo.h:1928
      _RandomAccessIterator __mid = __first + (__last - __first) / 2;
    4f0e:	|        |  |     |                     49 8d 7c 85 00       	lea    0x0(%r13,%rax,4),%rdi
_ZSt4swapIiENSt9enable_ifIXsrSt6__and_IJSt6__not_ISt15__is_tuple_likeIT_EESt21is_move_constructibleIS4_ESt18is_move_assignableIS4_EEE5valueEvE4typeERS4_SE_():
/usr/include/c++/10/bits/move.h:197
    {
#if __cplusplus < 201103L
      // concept requirements
      __glibcxx_function_requires(_SGIAssignableConcept<_Tp>)
#endif
      _Tp __tmp = _GLIBCXX_MOVE(__a);
    4f13:	|        |  |     |                     41 8b 55 00          	mov    0x0(%r13),%edx
_ZNK9__gnu_cxx5__ops15_Iter_less_iterclIPiS3_EEbT_T0_():
/usr/include/c++/10/bits/predefined_ops.h:43
    4f17:	|        |  |     |                     8b 07                	mov    (%rdi),%eax
_ZSt22__move_median_to_firstIPiN9__gnu_cxx5__ops15_Iter_less_iterEEvT_S4_S4_S4_T0_():
/usr/include/c++/10/bits/stl_algo.h:82
      if (__comp(__a, __b))
    4f19:	|        |  |     |                     39 c1                	cmp    %eax,%ecx
    4f1b:	|        |  |     |     /-------------- 0f 8d 92 00 00 00    	jge    4fb3 <_ZSt16__introsort_loopIPilN9__gnu_cxx5__ops15_Iter_less_iterEEvT_S4_T0_T1_.isra.0+0xe3>
/usr/include/c++/10/bits/stl_algo.h:84
	  if (__comp(__b, __c))
    4f21:	|        |  |     |     |               39 f0                	cmp    %esi,%eax
    4f23:	|        |  |  /--|-----|-------------- 0f 8c b1 00 00 00    	jl     4fda <_ZSt16__introsort_loopIPilN9__gnu_cxx5__ops15_Iter_less_iterEEvT_S4_T0_T1_.isra.0+0x10a>
/usr/include/c++/10/bits/stl_algo.h:86
	  else if (__comp(__a, __c))
    4f29:	|        |  |  |  |     |               39 f1                	cmp    %esi,%ecx
    4f2b:	|     /--|--|--|--|-----|-------------- 0f 8d 35 01 00 00    	jge    5066 <_ZSt16__introsort_loopIPilN9__gnu_cxx5__ops15_Iter_less_iterEEvT_S4_T0_T1_.isra.0+0x196>
_ZSt4swapIiENSt9enable_ifIXsrSt6__and_IJSt6__not_ISt15__is_tuple_likeIT_EESt21is_move_constructibleIS4_ESt18is_move_assignableIS4_EEE5valueEvE4typeERS4_SE_():
/usr/include/c++/10/bits/move.h:198
      __a = _GLIBCXX_MOVE(__b);
    4f31:	|     |  |  |  |  |  /--|-------------> 41 89 75 00          	mov    %esi,0x0(%r13)
/usr/include/c++/10/bits/move.h:199
      __b = _GLIBCXX_MOVE(__tmp);
    4f35:	|     |  |  |  |  |  |  |               41 89 50 fc          	mov    %edx,-0x4(%r8)
_ZNK9__gnu_cxx5__ops15_Iter_less_iterclIPiS3_EEbT_T0_():
/usr/include/c++/10/bits/predefined_ops.h:43
    4f39:	|     |  |  |  |  |  |  |               41 8b 4d 00          	mov    0x0(%r13),%ecx
    4f3d:	|  /--|--|--|--|--|--|--|-------------> 48 89 eb             	mov    %rbp,%rbx
_ZSt16__introsort_loopIPilN9__gnu_cxx5__ops15_Iter_less_iterEEvT_S4_T0_T1_():
/usr/include/c++/10/bits/predefined_ops.h:43
    4f40:	|  |  |  |  |  |  |  |  |               4c 89 c0             	mov    %r8,%rax
    4f43:	|  |  |  |  |  |  |  |  |               0f 1f 44 00 00       	nopl   0x0(%rax,%rax,1)
_ZNK9__gnu_cxx5__ops15_Iter_less_iterclIPiS3_EEbT_T0_():
/usr/include/c++/10/bits/predefined_ops.h:43
    4f48:	|  |  |  |  |  |  |  |  |  /----------> 8b 33                	mov    (%rbx),%esi
    4f4a:	|  |  |  |  |  |  |  |  |  |            49 89 dc             	mov    %rbx,%r12
_ZSt21__unguarded_partitionIPiN9__gnu_cxx5__ops15_Iter_less_iterEET_S4_S4_S4_T0_():
/usr/include/c++/10/bits/stl_algo.h:1909
	  while (__comp(__first, __pivot))
    4f4d:	|  |  |  |  |  |  |  |  |  |            39 ce                	cmp    %ecx,%esi
    4f4f:	|  |  |  |  |  |  |  |  |  |  /-------- 7c 2a                	jl     4f7b <_ZSt16__introsort_loopIPilN9__gnu_cxx5__ops15_Iter_less_iterEEvT_S4_T0_T1_.isra.0+0xab>
/usr/include/c++/10/bits/stl_algo.h:1911
	  --__last;
    4f51:	|  |  |  |  |  |  |  |  |  |  |         48 83 e8 04          	sub    $0x4,%rax
/usr/include/c++/10/bits/stl_algo.h:1912
	  while (__comp(__pivot, __last))
    4f55:	|  |  |  |  |  |  |  |  |  |  |         39 d1                	cmp    %edx,%ecx
    4f57:	|  |  |  |  |  |  |  |  |  |  |  /----- 7d 12                	jge    4f6b <_ZSt16__introsort_loopIPilN9__gnu_cxx5__ops15_Iter_less_iterEEvT_S4_T0_T1_.isra.0+0x9b>
    4f59:	|  |  |  |  |  |  |  |  |  |  |  |      0f 1f 80 00 00 00 00 	nopl   0x0(%rax)
_ZNK9__gnu_cxx5__ops15_Iter_less_iterclIPiS3_EEbT_T0_():
/usr/include/c++/10/bits/predefined_ops.h:43
    4f60:	|  |  |  |  |  |  |  |  |  |  |  |  /-> 8b 50 fc             	mov    -0x4(%rax),%edx
_ZSt21__unguarded_partitionIPiN9__gnu_cxx5__ops15_Iter_less_iterEET_S4_S4_S4_T0_():
/usr/include/c++/10/bits/stl_algo.h:1913
	    --__last;
    4f63:	|  |  |  |  |  |  |  |  |  |  |  |  |   48 83 e8 04          	sub    $0x4,%rax
/usr/include/c++/10/bits/stl_algo.h:1912
	  while (__comp(__pivot, __last))
    4f67:	|  |  |  |  |  |  |  |  |  |  |  |  |   39 ca                	cmp    %ecx,%edx
    4f69:	|  |  |  |  |  |  |  |  |  |  |  |  \-- 7f f5                	jg     4f60 <_ZSt16__introsort_loopIPilN9__gnu_cxx5__ops15_Iter_less_iterEEvT_S4_T0_T1_.isra.0+0x90>
/usr/include/c++/10/bits/stl_algo.h:1914
	  if (!(__first < __last))
    4f6b:	|  |  |  |  |  |  |  |  |  |  |  \----> 48 39 d8             	cmp    %rbx,%rax
    4f6e:	|  |  |  |  |  |  |  |  |  |  |     /-- 76 18                	jbe    4f88 <_ZSt16__introsort_loopIPilN9__gnu_cxx5__ops15_Iter_less_iterEEvT_S4_T0_T1_.isra.0+0xb8>
_ZSt4swapIiENSt9enable_ifIXsrSt6__and_IJSt6__not_ISt15__is_tuple_likeIT_EESt21is_move_constructibleIS4_ESt18is_move_assignableIS4_EEE5valueEvE4typeERS4_SE_():
/usr/include/c++/10/bits/move.h:198
      __a = _GLIBCXX_MOVE(__b);
    4f70:	|  |  |  |  |  |  |  |  |  |  |     |   89 13                	mov    %edx,(%rbx)
_ZNK9__gnu_cxx5__ops15_Iter_less_iterclIPiS3_EEbT_T0_():
/usr/include/c++/10/bits/predefined_ops.h:43
    4f72:	|  |  |  |  |  |  |  |  |  |  |     |   8b 50 fc             	mov    -0x4(%rax),%edx
_ZSt4swapIiENSt9enable_ifIXsrSt6__and_IJSt6__not_ISt15__is_tuple_likeIT_EESt21is_move_constructibleIS4_ESt18is_move_assignableIS4_EEE5valueEvE4typeERS4_SE_():
/usr/include/c++/10/bits/move.h:199
      __b = _GLIBCXX_MOVE(__tmp);
    4f75:	|  |  |  |  |  |  |  |  |  |  |     |   89 30                	mov    %esi,(%rax)
_ZNK9__gnu_cxx5__ops15_Iter_less_iterclIPiS3_EEbT_T0_():
/usr/include/c++/10/bits/predefined_ops.h:43
    4f77:	|  |  |  |  |  |  |  |  |  |  |     |   41 8b 4d 00          	mov    0x0(%r13),%ecx
    4f7b:	|  |  |  |  |  |  |  |  |  |  \-----|-> 48 83 c3 04          	add    $0x4,%rbx
    4f7f:	|  |  |  |  |  |  |  |  |  \--------|-- eb c7                	jmp    4f48 <_ZSt16__introsort_loopIPilN9__gnu_cxx5__ops15_Iter_less_iterEEvT_S4_T0_T1_.isra.0+0x78>
    4f81:	|  |  |  |  |  |  |  |  |           |   0f 1f 80 00 00 00 00 	nopl   0x0(%rax)
_ZSt16__introsort_loopIPilN9__gnu_cxx5__ops15_Iter_less_iterEEvT_S4_T0_T1_():
/usr/include/c++/10/bits/stl_algo.h:1964
	  _RandomAccessIterator __cut =
	    std::__unguarded_partition_pivot(__first, __last, __comp);
	  std::__introsort_loop(__cut, __last, __depth_limit, __comp);
    4f88:	|  |  |  |  |  |  |  |  |           \-> 4c 89 f2             	mov    %r14,%rdx
    4f8b:	|  |  |  |  |  |  |  |  |               4c 89 c6             	mov    %r8,%rsi
    4f8e:	|  |  |  |  |  |  |  |  |               48 89 df             	mov    %rbx,%rdi
    4f91:	|  |  |  |  \--|--|--|--|-------------- e8 3a ff ff ff       	callq  4ed0 <_ZSt16__introsort_loopIPilN9__gnu_cxx5__ops15_Iter_less_iterEEvT_S4_T0_T1_.isra.0>
/usr/include/c++/10/bits/stl_algo.h:1954
      while (__last - __first > int(_S_threshold))
    4f96:	|  |  |  |     |  |  |  |               48 89 d8             	mov    %rbx,%rax
    4f99:	|  |  |  |     |  |  |  |               4c 29 e8             	sub    %r13,%rax
    4f9c:	|  |  |  |     |  |  |  |               48 83 f8 40          	cmp    $0x40,%rax
    4fa0:	|  |  |  |     |  |  |  |     /-------- 0f 8e b7 00 00 00    	jle    505d <_ZSt16__introsort_loopIPilN9__gnu_cxx5__ops15_Iter_less_iterEEvT_S4_T0_T1_.isra.0+0x18d>
/usr/include/c++/10/bits/stl_algo.h:1956
	  if (__depth_limit == 0)
    4fa6:	|  |  |  |     |  |  |  |     |         4d 85 f6             	test   %r14,%r14
    4fa9:	|  |  |  |     |  |  |  |     |  /----- 74 45                	je     4ff0 <_ZSt16__introsort_loopIPilN9__gnu_cxx5__ops15_Iter_less_iterEEvT_S4_T0_T1_.isra.0+0x120>
    4fab:	|  |  |  |     |  |  |  |     |  |      49 89 d8             	mov    %rbx,%r8
    4fae:	|  |  |  |     |  \--|--|-----|--|----- e9 4b ff ff ff       	jmpq   4efe <_ZSt16__introsort_loopIPilN9__gnu_cxx5__ops15_Iter_less_iterEEvT_S4_T0_T1_.isra.0+0x2e>
_ZSt22__move_median_to_firstIPiN9__gnu_cxx5__ops15_Iter_less_iterEEvT_S4_S4_S4_T0_():
/usr/include/c++/10/bits/stl_algo.h:91
      else if (__comp(__a, __c))
    4fb3:	|  |  |  |     |     |  \-----|--|----> 39 f1                	cmp    %esi,%ecx
    4fb5:	|  |  |  |     |     |        |  |  /-- 7d 1b                	jge    4fd2 <_ZSt16__introsort_loopIPilN9__gnu_cxx5__ops15_Iter_less_iterEEvT_S4_T0_T1_.isra.0+0x102>
_ZSt4swapIiENSt9enable_ifIXsrSt6__and_IJSt6__not_ISt15__is_tuple_likeIT_EESt21is_move_constructibleIS4_ESt18is_move_assignableIS4_EEE5valueEvE4typeERS4_SE_():
/usr/include/c++/10/bits/move.h:198
      __a = _GLIBCXX_MOVE(__b);
    4fb7:	|  |  |  |     |     |        |  |  |   66 0f 6e ca          	movd   %edx,%xmm1
    4fbb:	|  |  |  |     |     |        |  |  |   66 0f 6e c1          	movd   %ecx,%xmm0
    4fbf:	|  |  |  |     |     |        |  |  |   66 0f 62 c1          	punpckldq %xmm1,%xmm0
    4fc3:	|  |  |  |     |     |        |  |  |   66 41 0f d6 45 00    	movq   %xmm0,0x0(%r13)
_ZNK9__gnu_cxx5__ops15_Iter_less_iterclIPiS3_EEbT_T0_():
/usr/include/c++/10/bits/predefined_ops.h:43
    4fc9:	|  |  |  |     |     |        |  |  |   41 8b 50 fc          	mov    -0x4(%r8),%edx
_ZSt9iter_swapIPiS0_EvT_T0_():
/usr/include/c++/10/bits/stl_algobase.h:184
#else
      // _GLIBCXX_RESOLVE_LIB_DEFECTS
      // 187. iter_swap underspecified
      swap(*__a, *__b);
#endif
    }
    4fcd:	|  +--|--|-----|-----|--------|--|--|-- e9 6b ff ff ff       	jmpq   4f3d <_ZSt16__introsort_loopIPilN9__gnu_cxx5__ops15_Iter_less_iterEEvT_S4_T0_T1_.isra.0+0x6d>
_ZSt22__move_median_to_firstIPiN9__gnu_cxx5__ops15_Iter_less_iterEEvT_S4_S4_S4_T0_():
/usr/include/c++/10/bits/stl_algo.h:93
      else if (__comp(__b, __c))
    4fd2:	|  |  |  |     |     |        |  |  \-> 39 f0                	cmp    %esi,%eax
    4fd4:	|  |  |  |     |     \--------|--|----- 0f 8c 57 ff ff ff    	jl     4f31 <_ZSt16__introsort_loopIPilN9__gnu_cxx5__ops15_Iter_less_iterEEvT_S4_T0_T1_.isra.0+0x61>
_ZSt4swapIiENSt9enable_ifIXsrSt6__and_IJSt6__not_ISt15__is_tuple_likeIT_EESt21is_move_constructibleIS4_ESt18is_move_assignableIS4_EEE5valueEvE4typeERS4_SE_():
/usr/include/c++/10/bits/move.h:198
    4fda:	|  |  |  |     \--------------|--|----> 41 89 45 00          	mov    %eax,0x0(%r13)
/usr/include/c++/10/bits/move.h:199
      __b = _GLIBCXX_MOVE(__tmp);
    4fde:	|  |  |  |                    |  |      89 17                	mov    %edx,(%rdi)
_ZNK9__gnu_cxx5__ops15_Iter_less_iterclIPiS3_EEbT_T0_():
/usr/include/c++/10/bits/predefined_ops.h:43
    4fe0:	|  |  |  |                    |  |      41 8b 4d 00          	mov    0x0(%r13),%ecx
    4fe4:	|  |  |  |                    |  |      41 8b 50 fc          	mov    -0x4(%r8),%edx
_ZSt9iter_swapIPiS0_EvT_T0_():
/usr/include/c++/10/bits/stl_algobase.h:184
    4fe8:	|  +--|--|--------------------|--|----- e9 50 ff ff ff       	jmpq   4f3d <_ZSt16__introsort_loopIPilN9__gnu_cxx5__ops15_Iter_less_iterEEvT_S4_T0_T1_.isra.0+0x6d>
_ZSt16__introsort_loopIPilN9__gnu_cxx5__ops15_Iter_less_iterEEvT_S4_T0_T1_():
/usr/include/c++/10/bits/stl_algo.h:1956
	  if (__depth_limit == 0)
    4fed:	|  |  |  \--------------------|--|----> 49 89 f4             	mov    %rsi,%r12
_ZSt11__make_heapIPiN9__gnu_cxx5__ops15_Iter_less_iterEEvT_S4_RT0_():
/usr/include/c++/10/bits/stl_heap.h:350
	  _DistanceType;

      if (__last - __first < 2)
	return;

      const _DistanceType __len = __last - __first;
    4ff0:	|  |  |                       |  \----> 48 c1 f8 02          	sar    $0x2,%rax
/usr/include/c++/10/bits/stl_heap.h:355
      _DistanceType __parent = (__len - 2) / 2;
      while (true)
	{
	  _ValueType __value = _GLIBCXX_MOVE(*(__first + __parent));
	  std::__adjust_heap(__first, __parent, __len, _GLIBCXX_MOVE(__value),
    4ff4:	|  |  |                       |         4c 89 ef             	mov    %r13,%rdi
/usr/include/c++/10/bits/stl_heap.h:351
      _DistanceType __parent = (__len - 2) / 2;
    4ff7:	|  |  |                       |         48 8d 68 fe          	lea    -0x2(%rax),%rbp
/usr/include/c++/10/bits/stl_heap.h:355
	  std::__adjust_heap(__first, __parent, __len, _GLIBCXX_MOVE(__value),
    4ffb:	|  |  |                       |         48 89 c2             	mov    %rax,%rdx
/usr/include/c++/10/bits/stl_heap.h:350
      const _DistanceType __len = __last - __first;
    4ffe:	|  |  |                       |         48 89 c3             	mov    %rax,%rbx
/usr/include/c++/10/bits/stl_heap.h:351
      _DistanceType __parent = (__len - 2) / 2;
    5001:	|  |  |                       |         48 d1 fd             	sar    %rbp
/usr/include/c++/10/bits/stl_heap.h:355
	  std::__adjust_heap(__first, __parent, __len, _GLIBCXX_MOVE(__value),
    5004:	|  |  |                       |         41 8b 4c ad 00       	mov    0x0(%r13,%rbp,4),%ecx
    5009:	|  |  |                       |         48 89 ee             	mov    %rbp,%rsi
    500c:	|  |  |                       |         e8 af fd ff ff       	callq  4dc0 <_ZSt13__adjust_heapIPiliN9__gnu_cxx5__ops15_Iter_less_iterEEvT_T0_S5_T1_T2_.isra.0>
/usr/include/c++/10/bits/stl_heap.h:359
			     __comp);
	  if (__parent == 0)
	    return;
	  __parent--;
    5011:	|  |  |                       |     /-> 48 83 ed 01          	sub    $0x1,%rbp
/usr/include/c++/10/bits/stl_heap.h:355
	  std::__adjust_heap(__first, __parent, __len, _GLIBCXX_MOVE(__value),
    5015:	|  |  |                       |     |   48 89 da             	mov    %rbx,%rdx
    5018:	|  |  |                       |     |   4c 89 ef             	mov    %r13,%rdi
    501b:	|  |  |                       |     |   41 8b 4c ad 00       	mov    0x0(%r13,%rbp,4),%ecx
    5020:	|  |  |                       |     |   48 89 ee             	mov    %rbp,%rsi
    5023:	|  |  |                       |     |   e8 98 fd ff ff       	callq  4dc0 <_ZSt13__adjust_heapIPiliN9__gnu_cxx5__ops15_Iter_less_iterEEvT_T0_S5_T1_T2_.isra.0>
/usr/include/c++/10/bits/stl_heap.h:357
	  if (__parent == 0)
    5028:	|  |  |                       |     |   48 85 ed             	test   %rbp,%rbp
    502b:	|  |  |                       |     \-- 75 e4                	jne    5011 <_ZSt16__introsort_loopIPilN9__gnu_cxx5__ops15_Iter_less_iterEEvT_S4_T0_T1_.isra.0+0x141>
    502d:	|  |  |                       |         0f 1f 00             	nopl   (%rax)
_ZSt11__sort_heapIPiN9__gnu_cxx5__ops15_Iter_less_iterEEvT_S4_RT0_():
/usr/include/c++/10/bits/stl_heap.h:423
    __sort_heap(_RandomAccessIterator __first, _RandomAccessIterator __last,
		_Compare& __comp)
    {
      while (__last - __first > 1)
	{
	  --__last;
    5030:	|  |  |                       |     /-> 49 83 ec 04          	sub    $0x4,%r12
_ZSt10__pop_heapIPiN9__gnu_cxx5__ops15_Iter_less_iterEEvT_S4_S4_RT0_():
/usr/include/c++/10/bits/stl_heap.h:262
      *__result = _GLIBCXX_MOVE(*__first);
    5034:	|  |  |                       |     |   41 8b 45 00          	mov    0x0(%r13),%eax
/usr/include/c++/10/bits/stl_heap.h:261
      _ValueType __value = _GLIBCXX_MOVE(*__result);
    5038:	|  |  |                       |     |   41 8b 0c 24          	mov    (%r12),%ecx
/usr/include/c++/10/bits/stl_heap.h:263
      std::__adjust_heap(__first, _DistanceType(0),
    503c:	|  |  |                       |     |   31 f6                	xor    %esi,%esi
/usr/include/c++/10/bits/stl_heap.h:264
			 _DistanceType(__last - __first),
    503e:	|  |  |                       |     |   4c 89 e3             	mov    %r12,%rbx
/usr/include/c++/10/bits/stl_heap.h:263
      std::__adjust_heap(__first, _DistanceType(0),
    5041:	|  |  |                       |     |   4c 89 ef             	mov    %r13,%rdi
/usr/include/c++/10/bits/stl_heap.h:264
			 _DistanceType(__last - __first),
    5044:	|  |  |                       |     |   4c 29 eb             	sub    %r13,%rbx
/usr/include/c++/10/bits/stl_heap.h:262
      *__result = _GLIBCXX_MOVE(*__first);
    5047:	|  |  |                       |     |   41 89 04 24          	mov    %eax,(%r12)
/usr/include/c++/10/bits/stl_heap.h:264
			 _DistanceType(__last - __first),
    504b:	|  |  |                       |     |   48 89 da             	mov    %rbx,%rdx
    504e:	|  |  |                       |     |   48 c1 fa 02          	sar    $0x2,%rdx
/usr/include/c++/10/bits/stl_heap.h:263
      std::__adjust_heap(__first, _DistanceType(0),
    5052:	|  |  |                       |     |   e8 69 fd ff ff       	callq  4dc0 <_ZSt13__adjust_heapIPiliN9__gnu_cxx5__ops15_Iter_less_iterEEvT_T0_S5_T1_T2_.isra.0>
_ZSt11__sort_heapIPiN9__gnu_cxx5__ops15_Iter_less_iterEEvT_S4_RT0_():
/usr/include/c++/10/bits/stl_heap.h:421
      while (__last - __first > 1)
    5057:	|  |  |                       |     |   48 83 fb 04          	cmp    $0x4,%rbx
    505b:	|  |  |                       |     \-- 7f d3                	jg     5030 <_ZSt16__introsort_loopIPilN9__gnu_cxx5__ops15_Iter_less_iterEEvT_S4_T0_T1_.isra.0+0x160>
_ZSt16__introsort_loopIPilN9__gnu_cxx5__ops15_Iter_less_iterEEvT_S4_T0_T1_():
/usr/include/c++/10/bits/stl_algo.h:1967
	  __last = __cut;
	}
    }
    505d:	|  |  |                       \-------> 5b                   	pop    %rbx
    505e:	|  |  |                                 5d                   	pop    %rbp
    505f:	|  |  |                                 41 5c                	pop    %r12
    5061:	|  |  |                                 41 5d                	pop    %r13
    5063:	|  |  |                                 41 5e                	pop    %r14
    5065:	|  |  |                                 c3                   	retq   
_ZSt4swapIiENSt9enable_ifIXsrSt6__and_IJSt6__not_ISt15__is_tuple_likeIT_EESt21is_move_constructibleIS4_ESt18is_move_assignableIS4_EEE5valueEvE4typeERS4_SE_():
/usr/include/c++/10/bits/move.h:198
      __a = _GLIBCXX_MOVE(__b);
    5066:	|  |  \-------------------------------> 66 0f 6e d2          	movd   %edx,%xmm2
    506a:	|  |                                    66 0f 6e c1          	movd   %ecx,%xmm0
    506e:	|  |                                    66 0f 62 c2          	punpckldq %xmm2,%xmm0
    5072:	|  |                                    66 41 0f d6 45 00    	movq   %xmm0,0x0(%r13)
_ZNK9__gnu_cxx5__ops15_Iter_less_iterclIPiS3_EEbT_T0_():
/usr/include/c++/10/bits/predefined_ops.h:43
    5078:	|  |                                    41 8b 50 fc          	mov    -0x4(%r8),%edx
_ZSt9iter_swapIPiS0_EvT_T0_():
/usr/include/c++/10/bits/stl_algobase.h:184
    507c:	|  \----------------------------------- e9 bc fe ff ff       	jmpq   4f3d <_ZSt16__introsort_loopIPilN9__gnu_cxx5__ops15_Iter_less_iterEEvT_S4_T0_T1_.isra.0+0x6d>
    5081:	\-------------------------------------> c3                   	retq   
_ZSt16__introsort_loopIPilN9__gnu_cxx5__ops15_Iter_less_iterEEvT_S4_T0_T1_.isra.0():
/usr/include/c++/10/bits/stl_algobase.h:184
    5082:	                                        66 66 2e 0f 1f 84 00 	data16 nopw %cs:0x0(%rax,%rax,1)
    5089:	00 00 00 00 
    508d:	                                        0f 1f 00             	nopl   (%rax)

0000000000005090 <_ZSt4endlIcSt11char_traitsIcEERSt13basic_ostreamIT_T0_ES6_.isra.0>:
_ZSt4endlIcSt11char_traitsIcEERSt13basic_ostreamIT_T0_ES6_():
/usr/include/c++/10/ostream:681
    endl(basic_ostream<_CharT, _Traits>& __os)
    5090:	          41 54                	push   %r12
    5092:	          55                   	push   %rbp
    5093:	          48 83 ec 08          	sub    $0x8,%rsp
/usr/include/c++/10/ostream:682
    { return flush(__os.put(__os.widen('\n'))); }
    5097:	          48 8b 07             	mov    (%rdi),%rax
    509a:	          48 8b 40 e8          	mov    -0x18(%rax),%rax
    509e:	          4c 8b a4 07 f0 00 00 	mov    0xf0(%rdi,%rax,1),%r12
    50a5:	00 
_ZSt13__check_facetISt5ctypeIcEERKT_PS3_():
/usr/include/c++/10/bits/basic_ios.h:49
      if (!__f)
    50a6:	          4d 85 e4             	test   %r12,%r12
    50a9:	/-------- 74 58                	je     5103 <_ZSt4endlIcSt11char_traitsIcEERSt13basic_ostreamIT_T0_ES6_.isra.0+0x73>
_ZNKSt5ctypeIcE5widenEc():
/usr/include/c++/10/bits/locale_facets.h:874
	if (_M_widen_ok)
    50ab:	|         41 80 7c 24 38 00    	cmpb   $0x0,0x38(%r12)
    50b1:	|         48 89 fd             	mov    %rdi,%rbp
    50b4:	|     /-- 74 22                	je     50d8 <_ZSt4endlIcSt11char_traitsIcEERSt13basic_ostreamIT_T0_ES6_.isra.0+0x48>
_ZSt4endlIcSt11char_traitsIcEERSt13basic_ostreamIT_T0_ES6_():
/usr/include/c++/10/ostream:682
    50b6:	|     |   41 0f be 74 24 43    	movsbl 0x43(%r12),%esi
    50bc:	|  /--|-> 48 89 ef             	mov    %rbp,%rdi
    50bf:	|  |  |   e8 3c e4 ff ff       	callq  3500 <_ZNSo3putEc@plt>
    50c4:	|  |  |   48 83 c4 08          	add    $0x8,%rsp
    50c8:	|  |  |   5d                   	pop    %rbp
    50c9:	|  |  |   48 89 c7             	mov    %rax,%rdi
    50cc:	|  |  |   41 5c                	pop    %r12
_ZSt5flushIcSt11char_traitsIcEERSt13basic_ostreamIT_T0_ES6_():
/usr/include/c++/10/ostream:704
    { return __os.flush(); }
    50ce:	|  |  |   e9 8d e5 ff ff       	jmpq   3660 <_ZNSo5flushEv@plt>
    50d3:	|  |  |   0f 1f 44 00 00       	nopl   0x0(%rax,%rax,1)
_ZNKSt5ctypeIcE5widenEc():
/usr/include/c++/10/bits/locale_facets.h:876
	this->_M_widen_init();
    50d8:	|  |  \-> 4c 89 e7             	mov    %r12,%rdi
    50db:	|  |      e8 60 e6 ff ff       	callq  3740 <_ZNKSt5ctypeIcE13_M_widen_initEv@plt>
/usr/include/c++/10/bits/locale_facets.h:877
	return this->do_widen(__c);
    50e0:	|  |      49 8b 04 24          	mov    (%r12),%rax
    50e4:	|  |      be 0a 00 00 00       	mov    $0xa,%esi
    50e9:	|  |      48 8d 15 e0 24 00 00 	lea    0x24e0(%rip),%rdx        # 75d0 <_ZNKSt5ctypeIcE8do_widenEc>
    50f0:	|  |      48 8b 40 30          	mov    0x30(%rax),%rax
    50f4:	|  |      48 39 d0             	cmp    %rdx,%rax
    50f7:	|  +----- 74 c3                	je     50bc <_ZSt4endlIcSt11char_traitsIcEERSt13basic_ostreamIT_T0_ES6_.isra.0+0x2c>
    50f9:	|  |      4c 89 e7             	mov    %r12,%rdi
    50fc:	|  |      ff d0                	callq  *%rax
_ZSt4endlIcSt11char_traitsIcEERSt13basic_ostreamIT_T0_ES6_():
/usr/include/c++/10/ostream:682
    { return flush(__os.put(__os.widen('\n'))); }
    50fe:	|  |      0f be f0             	movsbl %al,%esi
    5101:	|  \----- eb b9                	jmp    50bc <_ZSt4endlIcSt11char_traitsIcEERSt13basic_ostreamIT_T0_ES6_.isra.0+0x2c>
_ZSt13__check_facetISt5ctypeIcEERKT_PS3_():
/usr/include/c++/10/bits/basic_ios.h:50
	__throw_bad_cast();
    5103:	\-------> e8 78 e6 ff ff       	callq  3780 <_ZSt16__throw_bad_castv@plt>
_ZSt4endlIcSt11char_traitsIcEERSt13basic_ostreamIT_T0_ES6_.isra.0():
/usr/include/c++/10/bits/basic_ios.h:50
    5108:	          0f 1f 84 00 00 00 00 	nopl   0x0(%rax,%rax,1)
    510f:	00 

0000000000005110 <_Z8AfforestRK8CSRGraphIiiLb1EEbi._omp_fn.2>:
_Z8AfforestRK8CSRGraphIiiLb1EEbi._omp_fn.2():
/home/aliha951/forked_gapbs/gapbs/src/cc.cc:124
    #pragma omp parallel for schedule(dynamic, 16384)
    5110:	                      f3 0f 1e fa          	endbr64 
    5114:	                      41 57                	push   %r15
    5116:	                      b9 00 40 00 00       	mov    $0x4000,%ecx
