
pr:     file format elf64-x86-64


Disassembly of section .init:

0000000000003000 <_init>:
_init():
    3000:	    f3 0f 1e fa          	endbr64 
    3004:	    48 83 ec 08          	sub    $0x8,%rsp
    3008:	    48 8b 05 d9 3f 01 00 	mov    0x13fd9(%rip),%rax        # 16fe8 <__gmon_start__>
    300f:	    48 85 c0             	test   %rax,%rax
    3012:	/-- 74 02                	je     3016 <_init+0x16>
    3014:	|   ff d0                	callq  *%rax
    3016:	\-> 48 83 c4 08          	add    $0x8,%rsp
    301a:	    c3                   	retq   

Disassembly of section .plt:

0000000000003020 <.plt>:
    3020:	/-> ff 35 42 3d 01 00    	pushq  0x13d42(%rip)        # 16d68 <_GLOBAL_OFFSET_TABLE_+0x8>
    3026:	|   f2 ff 25 43 3d 01 00 	bnd jmpq *0x13d43(%rip)        # 16d70 <_GLOBAL_OFFSET_TABLE_+0x10>
    302d:	|   0f 1f 00             	nopl   (%rax)
    3030:	|   f3 0f 1e fa          	endbr64 
    3034:	|   68 00 00 00 00       	pushq  $0x0
    3039:	+-- f2 e9 e1 ff ff ff    	bnd jmpq 3020 <.plt>
    303f:	|   90                   	nop
    3040:	|   f3 0f 1e fa          	endbr64 
    3044:	|   68 01 00 00 00       	pushq  $0x1
    3049:	+-- f2 e9 d1 ff ff ff    	bnd jmpq 3020 <.plt>
    304f:	|   90                   	nop
    3050:	|   f3 0f 1e fa          	endbr64 
    3054:	|   68 02 00 00 00       	pushq  $0x2
    3059:	+-- f2 e9 c1 ff ff ff    	bnd jmpq 3020 <.plt>
    305f:	|   90                   	nop
    3060:	|   f3 0f 1e fa          	endbr64 
    3064:	|   68 03 00 00 00       	pushq  $0x3
    3069:	+-- f2 e9 b1 ff ff ff    	bnd jmpq 3020 <.plt>
    306f:	|   90                   	nop
    3070:	|   f3 0f 1e fa          	endbr64 
    3074:	|   68 04 00 00 00       	pushq  $0x4
    3079:	+-- f2 e9 a1 ff ff ff    	bnd jmpq 3020 <.plt>
    307f:	|   90                   	nop
    3080:	|   f3 0f 1e fa          	endbr64 
    3084:	|   68 05 00 00 00       	pushq  $0x5
    3089:	+-- f2 e9 91 ff ff ff    	bnd jmpq 3020 <.plt>
    308f:	|   90                   	nop
    3090:	|   f3 0f 1e fa          	endbr64 
    3094:	|   68 06 00 00 00       	pushq  $0x6
    3099:	+-- f2 e9 81 ff ff ff    	bnd jmpq 3020 <.plt>
    309f:	|   90                   	nop
    30a0:	|   f3 0f 1e fa          	endbr64 
    30a4:	|   68 07 00 00 00       	pushq  $0x7
    30a9:	+-- f2 e9 71 ff ff ff    	bnd jmpq 3020 <.plt>
    30af:	|   90                   	nop
    30b0:	|   f3 0f 1e fa          	endbr64 
    30b4:	|   68 08 00 00 00       	pushq  $0x8
    30b9:	+-- f2 e9 61 ff ff ff    	bnd jmpq 3020 <.plt>
    30bf:	|   90                   	nop
    30c0:	|   f3 0f 1e fa          	endbr64 
    30c4:	|   68 09 00 00 00       	pushq  $0x9
    30c9:	+-- f2 e9 51 ff ff ff    	bnd jmpq 3020 <.plt>
    30cf:	|   90                   	nop
    30d0:	|   f3 0f 1e fa          	endbr64 
    30d4:	|   68 0a 00 00 00       	pushq  $0xa
    30d9:	+-- f2 e9 41 ff ff ff    	bnd jmpq 3020 <.plt>
    30df:	|   90                   	nop
    30e0:	|   f3 0f 1e fa          	endbr64 
    30e4:	|   68 0b 00 00 00       	pushq  $0xb
    30e9:	+-- f2 e9 31 ff ff ff    	bnd jmpq 3020 <.plt>
    30ef:	|   90                   	nop
    30f0:	|   f3 0f 1e fa          	endbr64 
    30f4:	|   68 0c 00 00 00       	pushq  $0xc
    30f9:	+-- f2 e9 21 ff ff ff    	bnd jmpq 3020 <.plt>
    30ff:	|   90                   	nop
    3100:	|   f3 0f 1e fa          	endbr64 
    3104:	|   68 0d 00 00 00       	pushq  $0xd
    3109:	+-- f2 e9 11 ff ff ff    	bnd jmpq 3020 <.plt>
    310f:	|   90                   	nop
    3110:	|   f3 0f 1e fa          	endbr64 
    3114:	|   68 0e 00 00 00       	pushq  $0xe
    3119:	+-- f2 e9 01 ff ff ff    	bnd jmpq 3020 <.plt>
    311f:	|   90                   	nop
    3120:	|   f3 0f 1e fa          	endbr64 
    3124:	|   68 0f 00 00 00       	pushq  $0xf
    3129:	+-- f2 e9 f1 fe ff ff    	bnd jmpq 3020 <.plt>
    312f:	|   90                   	nop
    3130:	|   f3 0f 1e fa          	endbr64 
    3134:	|   68 10 00 00 00       	pushq  $0x10
    3139:	+-- f2 e9 e1 fe ff ff    	bnd jmpq 3020 <.plt>
    313f:	|   90                   	nop
    3140:	|   f3 0f 1e fa          	endbr64 
    3144:	|   68 11 00 00 00       	pushq  $0x11
    3149:	+-- f2 e9 d1 fe ff ff    	bnd jmpq 3020 <.plt>
    314f:	|   90                   	nop
    3150:	|   f3 0f 1e fa          	endbr64 
    3154:	|   68 12 00 00 00       	pushq  $0x12
    3159:	+-- f2 e9 c1 fe ff ff    	bnd jmpq 3020 <.plt>
    315f:	|   90                   	nop
    3160:	|   f3 0f 1e fa          	endbr64 
    3164:	|   68 13 00 00 00       	pushq  $0x13
    3169:	+-- f2 e9 b1 fe ff ff    	bnd jmpq 3020 <.plt>
    316f:	|   90                   	nop
    3170:	|   f3 0f 1e fa          	endbr64 
    3174:	|   68 14 00 00 00       	pushq  $0x14
    3179:	+-- f2 e9 a1 fe ff ff    	bnd jmpq 3020 <.plt>
    317f:	|   90                   	nop
    3180:	|   f3 0f 1e fa          	endbr64 
    3184:	|   68 15 00 00 00       	pushq  $0x15
    3189:	+-- f2 e9 91 fe ff ff    	bnd jmpq 3020 <.plt>
    318f:	|   90                   	nop
    3190:	|   f3 0f 1e fa          	endbr64 
    3194:	|   68 16 00 00 00       	pushq  $0x16
    3199:	+-- f2 e9 81 fe ff ff    	bnd jmpq 3020 <.plt>
    319f:	|   90                   	nop
    31a0:	|   f3 0f 1e fa          	endbr64 
    31a4:	|   68 17 00 00 00       	pushq  $0x17
    31a9:	+-- f2 e9 71 fe ff ff    	bnd jmpq 3020 <.plt>
    31af:	|   90                   	nop
    31b0:	|   f3 0f 1e fa          	endbr64 
    31b4:	|   68 18 00 00 00       	pushq  $0x18
    31b9:	+-- f2 e9 61 fe ff ff    	bnd jmpq 3020 <.plt>
    31bf:	|   90                   	nop
    31c0:	|   f3 0f 1e fa          	endbr64 
    31c4:	|   68 19 00 00 00       	pushq  $0x19
    31c9:	+-- f2 e9 51 fe ff ff    	bnd jmpq 3020 <.plt>
    31cf:	|   90                   	nop
    31d0:	|   f3 0f 1e fa          	endbr64 
    31d4:	|   68 1a 00 00 00       	pushq  $0x1a
    31d9:	+-- f2 e9 41 fe ff ff    	bnd jmpq 3020 <.plt>
    31df:	|   90                   	nop
    31e0:	|   f3 0f 1e fa          	endbr64 
    31e4:	|   68 1b 00 00 00       	pushq  $0x1b
    31e9:	+-- f2 e9 31 fe ff ff    	bnd jmpq 3020 <.plt>
    31ef:	|   90                   	nop
    31f0:	|   f3 0f 1e fa          	endbr64 
    31f4:	|   68 1c 00 00 00       	pushq  $0x1c
    31f9:	+-- f2 e9 21 fe ff ff    	bnd jmpq 3020 <.plt>
    31ff:	|   90                   	nop
    3200:	|   f3 0f 1e fa          	endbr64 
    3204:	|   68 1d 00 00 00       	pushq  $0x1d
    3209:	+-- f2 e9 11 fe ff ff    	bnd jmpq 3020 <.plt>
    320f:	|   90                   	nop
    3210:	|   f3 0f 1e fa          	endbr64 
    3214:	|   68 1e 00 00 00       	pushq  $0x1e
    3219:	+-- f2 e9 01 fe ff ff    	bnd jmpq 3020 <.plt>
    321f:	|   90                   	nop
    3220:	|   f3 0f 1e fa          	endbr64 
    3224:	|   68 1f 00 00 00       	pushq  $0x1f
    3229:	+-- f2 e9 f1 fd ff ff    	bnd jmpq 3020 <.plt>
    322f:	|   90                   	nop
    3230:	|   f3 0f 1e fa          	endbr64 
    3234:	|   68 20 00 00 00       	pushq  $0x20
    3239:	+-- f2 e9 e1 fd ff ff    	bnd jmpq 3020 <.plt>
    323f:	|   90                   	nop
    3240:	|   f3 0f 1e fa          	endbr64 
    3244:	|   68 21 00 00 00       	pushq  $0x21
    3249:	+-- f2 e9 d1 fd ff ff    	bnd jmpq 3020 <.plt>
    324f:	|   90                   	nop
    3250:	|   f3 0f 1e fa          	endbr64 
    3254:	|   68 22 00 00 00       	pushq  $0x22
    3259:	+-- f2 e9 c1 fd ff ff    	bnd jmpq 3020 <.plt>
    325f:	|   90                   	nop
    3260:	|   f3 0f 1e fa          	endbr64 
    3264:	|   68 23 00 00 00       	pushq  $0x23
    3269:	+-- f2 e9 b1 fd ff ff    	bnd jmpq 3020 <.plt>
    326f:	|   90                   	nop
    3270:	|   f3 0f 1e fa          	endbr64 
    3274:	|   68 24 00 00 00       	pushq  $0x24
    3279:	+-- f2 e9 a1 fd ff ff    	bnd jmpq 3020 <.plt>
    327f:	|   90                   	nop
    3280:	|   f3 0f 1e fa          	endbr64 
    3284:	|   68 25 00 00 00       	pushq  $0x25
    3289:	+-- f2 e9 91 fd ff ff    	bnd jmpq 3020 <.plt>
    328f:	|   90                   	nop
    3290:	|   f3 0f 1e fa          	endbr64 
    3294:	|   68 26 00 00 00       	pushq  $0x26
    3299:	+-- f2 e9 81 fd ff ff    	bnd jmpq 3020 <.plt>
    329f:	|   90                   	nop
    32a0:	|   f3 0f 1e fa          	endbr64 
    32a4:	|   68 27 00 00 00       	pushq  $0x27
    32a9:	+-- f2 e9 71 fd ff ff    	bnd jmpq 3020 <.plt>
    32af:	|   90                   	nop
    32b0:	|   f3 0f 1e fa          	endbr64 
    32b4:	|   68 28 00 00 00       	pushq  $0x28
    32b9:	+-- f2 e9 61 fd ff ff    	bnd jmpq 3020 <.plt>
    32bf:	|   90                   	nop
    32c0:	|   f3 0f 1e fa          	endbr64 
    32c4:	|   68 29 00 00 00       	pushq  $0x29
    32c9:	+-- f2 e9 51 fd ff ff    	bnd jmpq 3020 <.plt>
    32cf:	|   90                   	nop
    32d0:	|   f3 0f 1e fa          	endbr64 
    32d4:	|   68 2a 00 00 00       	pushq  $0x2a
    32d9:	+-- f2 e9 41 fd ff ff    	bnd jmpq 3020 <.plt>
    32df:	|   90                   	nop
    32e0:	|   f3 0f 1e fa          	endbr64 
    32e4:	|   68 2b 00 00 00       	pushq  $0x2b
    32e9:	+-- f2 e9 31 fd ff ff    	bnd jmpq 3020 <.plt>
    32ef:	|   90                   	nop
    32f0:	|   f3 0f 1e fa          	endbr64 
    32f4:	|   68 2c 00 00 00       	pushq  $0x2c
    32f9:	+-- f2 e9 21 fd ff ff    	bnd jmpq 3020 <.plt>
    32ff:	|   90                   	nop
    3300:	|   f3 0f 1e fa          	endbr64 
    3304:	|   68 2d 00 00 00       	pushq  $0x2d
    3309:	+-- f2 e9 11 fd ff ff    	bnd jmpq 3020 <.plt>
    330f:	|   90                   	nop
    3310:	|   f3 0f 1e fa          	endbr64 
    3314:	|   68 2e 00 00 00       	pushq  $0x2e
    3319:	+-- f2 e9 01 fd ff ff    	bnd jmpq 3020 <.plt>
    331f:	|   90                   	nop
    3320:	|   f3 0f 1e fa          	endbr64 
    3324:	|   68 2f 00 00 00       	pushq  $0x2f
    3329:	+-- f2 e9 f1 fc ff ff    	bnd jmpq 3020 <.plt>
    332f:	|   90                   	nop
    3330:	|   f3 0f 1e fa          	endbr64 
    3334:	|   68 30 00 00 00       	pushq  $0x30
    3339:	+-- f2 e9 e1 fc ff ff    	bnd jmpq 3020 <.plt>
    333f:	|   90                   	nop
    3340:	|   f3 0f 1e fa          	endbr64 
    3344:	|   68 31 00 00 00       	pushq  $0x31
    3349:	+-- f2 e9 d1 fc ff ff    	bnd jmpq 3020 <.plt>
    334f:	|   90                   	nop
    3350:	|   f3 0f 1e fa          	endbr64 
    3354:	|   68 32 00 00 00       	pushq  $0x32
    3359:	+-- f2 e9 c1 fc ff ff    	bnd jmpq 3020 <.plt>
    335f:	|   90                   	nop
    3360:	|   f3 0f 1e fa          	endbr64 
    3364:	|   68 33 00 00 00       	pushq  $0x33
    3369:	+-- f2 e9 b1 fc ff ff    	bnd jmpq 3020 <.plt>
    336f:	|   90                   	nop
    3370:	|   f3 0f 1e fa          	endbr64 
    3374:	|   68 34 00 00 00       	pushq  $0x34
    3379:	+-- f2 e9 a1 fc ff ff    	bnd jmpq 3020 <.plt>
    337f:	|   90                   	nop
    3380:	|   f3 0f 1e fa          	endbr64 
    3384:	|   68 35 00 00 00       	pushq  $0x35
    3389:	+-- f2 e9 91 fc ff ff    	bnd jmpq 3020 <.plt>
    338f:	|   90                   	nop
    3390:	|   f3 0f 1e fa          	endbr64 
    3394:	|   68 36 00 00 00       	pushq  $0x36
    3399:	+-- f2 e9 81 fc ff ff    	bnd jmpq 3020 <.plt>
    339f:	|   90                   	nop
    33a0:	|   f3 0f 1e fa          	endbr64 
    33a4:	|   68 37 00 00 00       	pushq  $0x37
    33a9:	+-- f2 e9 71 fc ff ff    	bnd jmpq 3020 <.plt>
    33af:	|   90                   	nop
    33b0:	|   f3 0f 1e fa          	endbr64 
    33b4:	|   68 38 00 00 00       	pushq  $0x38
    33b9:	+-- f2 e9 61 fc ff ff    	bnd jmpq 3020 <.plt>
    33bf:	|   90                   	nop
    33c0:	|   f3 0f 1e fa          	endbr64 
    33c4:	|   68 39 00 00 00       	pushq  $0x39
    33c9:	+-- f2 e9 51 fc ff ff    	bnd jmpq 3020 <.plt>
    33cf:	|   90                   	nop
    33d0:	|   f3 0f 1e fa          	endbr64 
    33d4:	|   68 3a 00 00 00       	pushq  $0x3a
    33d9:	+-- f2 e9 41 fc ff ff    	bnd jmpq 3020 <.plt>
    33df:	|   90                   	nop
    33e0:	|   f3 0f 1e fa          	endbr64 
    33e4:	|   68 3b 00 00 00       	pushq  $0x3b
    33e9:	+-- f2 e9 31 fc ff ff    	bnd jmpq 3020 <.plt>
    33ef:	|   90                   	nop
    33f0:	|   f3 0f 1e fa          	endbr64 
    33f4:	|   68 3c 00 00 00       	pushq  $0x3c
    33f9:	+-- f2 e9 21 fc ff ff    	bnd jmpq 3020 <.plt>
    33ff:	|   90                   	nop
    3400:	|   f3 0f 1e fa          	endbr64 
    3404:	|   68 3d 00 00 00       	pushq  $0x3d
    3409:	+-- f2 e9 11 fc ff ff    	bnd jmpq 3020 <.plt>
    340f:	|   90                   	nop
    3410:	|   f3 0f 1e fa          	endbr64 
    3414:	|   68 3e 00 00 00       	pushq  $0x3e
    3419:	+-- f2 e9 01 fc ff ff    	bnd jmpq 3020 <.plt>
    341f:	|   90                   	nop
    3420:	|   f3 0f 1e fa          	endbr64 
    3424:	|   68 3f 00 00 00       	pushq  $0x3f
    3429:	+-- f2 e9 f1 fb ff ff    	bnd jmpq 3020 <.plt>
    342f:	|   90                   	nop
    3430:	|   f3 0f 1e fa          	endbr64 
    3434:	|   68 40 00 00 00       	pushq  $0x40
    3439:	+-- f2 e9 e1 fb ff ff    	bnd jmpq 3020 <.plt>
    343f:	|   90                   	nop
    3440:	|   f3 0f 1e fa          	endbr64 
    3444:	|   68 41 00 00 00       	pushq  $0x41
    3449:	+-- f2 e9 d1 fb ff ff    	bnd jmpq 3020 <.plt>
    344f:	|   90                   	nop
    3450:	|   f3 0f 1e fa          	endbr64 
    3454:	|   68 42 00 00 00       	pushq  $0x42
    3459:	+-- f2 e9 c1 fb ff ff    	bnd jmpq 3020 <.plt>
    345f:	|   90                   	nop
    3460:	|   f3 0f 1e fa          	endbr64 
    3464:	|   68 43 00 00 00       	pushq  $0x43
    3469:	+-- f2 e9 b1 fb ff ff    	bnd jmpq 3020 <.plt>
    346f:	|   90                   	nop
    3470:	|   f3 0f 1e fa          	endbr64 
    3474:	|   68 44 00 00 00       	pushq  $0x44
    3479:	+-- f2 e9 a1 fb ff ff    	bnd jmpq 3020 <.plt>
    347f:	|   90                   	nop
    3480:	|   f3 0f 1e fa          	endbr64 
    3484:	|   68 45 00 00 00       	pushq  $0x45
    3489:	+-- f2 e9 91 fb ff ff    	bnd jmpq 3020 <.plt>
    348f:	|   90                   	nop
    3490:	|   f3 0f 1e fa          	endbr64 
    3494:	|   68 46 00 00 00       	pushq  $0x46
    3499:	+-- f2 e9 81 fb ff ff    	bnd jmpq 3020 <.plt>
    349f:	|   90                   	nop
    34a0:	|   f3 0f 1e fa          	endbr64 
    34a4:	|   68 47 00 00 00       	pushq  $0x47
    34a9:	+-- f2 e9 71 fb ff ff    	bnd jmpq 3020 <.plt>
    34af:	|   90                   	nop
    34b0:	|   f3 0f 1e fa          	endbr64 
    34b4:	|   68 48 00 00 00       	pushq  $0x48
    34b9:	+-- f2 e9 61 fb ff ff    	bnd jmpq 3020 <.plt>
    34bf:	|   90                   	nop
    34c0:	|   f3 0f 1e fa          	endbr64 
    34c4:	|   68 49 00 00 00       	pushq  $0x49
    34c9:	\-- f2 e9 51 fb ff ff    	bnd jmpq 3020 <.plt>
    34cf:	    90                   	nop

Disassembly of section .plt.got:

00000000000034d0 <__cxa_finalize@plt>:
    34d0:	f3 0f 1e fa          	endbr64 
    34d4:	f2 ff 25 ed 3a 01 00 	bnd jmpq *0x13aed(%rip)        # 16fc8 <__cxa_finalize@GLIBC_2.2.5>
    34db:	0f 1f 44 00 00       	nopl   0x0(%rax,%rax,1)

Disassembly of section .plt.sec:

00000000000034e0 <__printf_chk@plt>:
    34e0:	f3 0f 1e fa          	endbr64 
    34e4:	f2 ff 25 8d 38 01 00 	bnd jmpq *0x1388d(%rip)        # 16d78 <__printf_chk@GLIBC_2.3.4>
    34eb:	0f 1f 44 00 00       	nopl   0x0(%rax,%rax,1)

00000000000034f0 <_Znam@plt>:
    34f0:	f3 0f 1e fa          	endbr64 
    34f4:	f2 ff 25 85 38 01 00 	bnd jmpq *0x13885(%rip)        # 16d80 <_Znam@GLIBCXX_3.4>
    34fb:	0f 1f 44 00 00       	nopl   0x0(%rax,%rax,1)

0000000000003500 <_ZNSo3putEc@plt>:
    3500:	f3 0f 1e fa          	endbr64 
    3504:	f2 ff 25 7d 38 01 00 	bnd jmpq *0x1387d(%rip)        # 16d88 <_ZNSo3putEc@GLIBCXX_3.4>
    350b:	0f 1f 44 00 00       	nopl   0x0(%rax,%rax,1)

0000000000003510 <__errno_location@plt>:
    3510:	f3 0f 1e fa          	endbr64 
    3514:	f2 ff 25 75 38 01 00 	bnd jmpq *0x13875(%rip)        # 16d90 <__errno_location@GLIBC_2.2.5>
    351b:	0f 1f 44 00 00       	nopl   0x0(%rax,%rax,1)

0000000000003520 <_ZNSt6chrono3_V212system_clock3nowEv@plt>:
    3520:	f3 0f 1e fa          	endbr64 
    3524:	f2 ff 25 6d 38 01 00 	bnd jmpq *0x1386d(%rip)        # 16d98 <_ZNSt6chrono3_V212system_clock3nowEv@GLIBCXX_3.4.19>
    352b:	0f 1f 44 00 00       	nopl   0x0(%rax,%rax,1)

0000000000003530 <_ZNSt13basic_filebufIcSt11char_traitsIcEE5closeEv@plt>:
    3530:	f3 0f 1e fa          	endbr64 
    3534:	f2 ff 25 65 38 01 00 	bnd jmpq *0x13865(%rip)        # 16da0 <_ZNSt13basic_filebufIcSt11char_traitsIcEE5closeEv@GLIBCXX_3.4>
    353b:	0f 1f 44 00 00       	nopl   0x0(%rax,%rax,1)

0000000000003540 <getopt@plt>:
    3540:	f3 0f 1e fa          	endbr64 
    3544:	f2 ff 25 5d 38 01 00 	bnd jmpq *0x1385d(%rip)        # 16da8 <getopt@GLIBC_2.2.5>
    354b:	0f 1f 44 00 00       	nopl   0x0(%rax,%rax,1)

0000000000003550 <_ZNKSt12__basic_fileIcE7is_openEv@plt>:
    3550:	f3 0f 1e fa          	endbr64 
    3554:	f2 ff 25 55 38 01 00 	bnd jmpq *0x13855(%rip)        # 16db0 <_ZNKSt12__basic_fileIcE7is_openEv@GLIBCXX_3.4>
    355b:	0f 1f 44 00 00       	nopl   0x0(%rax,%rax,1)

0000000000003560 <_ZNSt14basic_ifstreamIcSt11char_traitsIcEED1Ev@plt>:
    3560:	f3 0f 1e fa          	endbr64 
    3564:	f2 ff 25 4d 38 01 00 	bnd jmpq *0x1384d(%rip)        # 16db8 <_ZNSt14basic_ifstreamIcSt11char_traitsIcEED1Ev@GLIBCXX_3.4>
    356b:	0f 1f 44 00 00       	nopl   0x0(%rax,%rax,1)

0000000000003570 <_ZNKSt7__cxx1112basic_stringIcSt11char_traitsIcESaIcEE7compareEPKc@plt>:
    3570:	f3 0f 1e fa          	endbr64 
    3574:	f2 ff 25 45 38 01 00 	bnd jmpq *0x13845(%rip)        # 16dc0 <_ZNKSt7__cxx1112basic_stringIcSt11char_traitsIcESaIcEE7compareEPKc@GLIBCXX_3.4.21>
    357b:	0f 1f 44 00 00       	nopl   0x0(%rax,%rax,1)

0000000000003580 <_ZNSt8ios_baseC2Ev@plt>:
    3580:	f3 0f 1e fa          	endbr64 
    3584:	f2 ff 25 3d 38 01 00 	bnd jmpq *0x1383d(%rip)        # 16dc8 <_ZNSt8ios_baseC2Ev@GLIBCXX_3.4>
    358b:	0f 1f 44 00 00       	nopl   0x0(%rax,%rax,1)

0000000000003590 <_ZNSt7__cxx1112basic_stringIcSt11char_traitsIcESaIcEE9_M_appendEPKcm@plt>:
    3590:	f3 0f 1e fa          	endbr64 
    3594:	f2 ff 25 35 38 01 00 	bnd jmpq *0x13835(%rip)        # 16dd0 <_ZNSt7__cxx1112basic_stringIcSt11char_traitsIcESaIcEE9_M_appendEPKcm@GLIBCXX_3.4.21>
    359b:	0f 1f 44 00 00       	nopl   0x0(%rax,%rax,1)

00000000000035a0 <_ZNSt8ios_baseD2Ev@plt>:
    35a0:	f3 0f 1e fa          	endbr64 
    35a4:	f2 ff 25 2d 38 01 00 	bnd jmpq *0x1382d(%rip)        # 16dd8 <_ZNSt8ios_baseD2Ev@GLIBCXX_3.4>
    35ab:	0f 1f 44 00 00       	nopl   0x0(%rax,%rax,1)

00000000000035b0 <_ZNSi4peekEv@plt>:
    35b0:	f3 0f 1e fa          	endbr64 
    35b4:	f2 ff 25 25 38 01 00 	bnd jmpq *0x13825(%rip)        # 16de0 <_ZNSi4peekEv@GLIBCXX_3.4>
    35bb:	0f 1f 44 00 00       	nopl   0x0(%rax,%rax,1)

00000000000035c0 <__cxa_begin_catch@plt>:
    35c0:	f3 0f 1e fa          	endbr64 
    35c4:	f2 ff 25 1d 38 01 00 	bnd jmpq *0x1381d(%rip)        # 16de8 <__cxa_begin_catch@CXXABI_1.3>
    35cb:	0f 1f 44 00 00       	nopl   0x0(%rax,%rax,1)

00000000000035d0 <strlen@plt>:
    35d0:	f3 0f 1e fa          	endbr64 
    35d4:	f2 ff 25 15 38 01 00 	bnd jmpq *0x13815(%rip)        # 16df0 <strlen@GLIBC_2.2.5>
    35db:	0f 1f 44 00 00       	nopl   0x0(%rax,%rax,1)

00000000000035e0 <_ZNSt7__cxx1119basic_istringstreamIcSt11char_traitsIcESaIcEED1Ev@plt>:
    35e0:	f3 0f 1e fa          	endbr64 
    35e4:	f2 ff 25 0d 38 01 00 	bnd jmpq *0x1380d(%rip)        # 16df8 <_ZNSt7__cxx1119basic_istringstreamIcSt11char_traitsIcESaIcEED1Ev@GLIBCXX_3.4.21>
    35eb:	0f 1f 44 00 00       	nopl   0x0(%rax,%rax,1)

00000000000035f0 <GOMP_loop_end_nowait@plt>:
    35f0:	f3 0f 1e fa          	endbr64 
    35f4:	f2 ff 25 05 38 01 00 	bnd jmpq *0x13805(%rip)        # 16e00 <GOMP_loop_end_nowait@GOMP_1.0>
    35fb:	0f 1f 44 00 00       	nopl   0x0(%rax,%rax,1)

0000000000003600 <_ZSt20__throw_length_errorPKc@plt>:
    3600:	f3 0f 1e fa          	endbr64 
    3604:	f2 ff 25 fd 37 01 00 	bnd jmpq *0x137fd(%rip)        # 16e08 <_ZSt20__throw_length_errorPKc@GLIBCXX_3.4>
    360b:	0f 1f 44 00 00       	nopl   0x0(%rax,%rax,1)

0000000000003610 <_ZSt24__throw_invalid_argumentPKc@plt>:
    3610:	f3 0f 1e fa          	endbr64 
    3614:	f2 ff 25 f5 37 01 00 	bnd jmpq *0x137f5(%rip)        # 16e10 <_ZSt24__throw_invalid_argumentPKc@GLIBCXX_3.4>
    361b:	0f 1f 44 00 00       	nopl   0x0(%rax,%rax,1)

0000000000003620 <__snprintf_chk@plt>:
    3620:	f3 0f 1e fa          	endbr64 
    3624:	f2 ff 25 ed 37 01 00 	bnd jmpq *0x137ed(%rip)        # 16e18 <__snprintf_chk@GLIBC_2.3.4>
    362b:	0f 1f 44 00 00       	nopl   0x0(%rax,%rax,1)

0000000000003630 <_ZNSirsERi@plt>:
    3630:	f3 0f 1e fa          	endbr64 
    3634:	f2 ff 25 e5 37 01 00 	bnd jmpq *0x137e5(%rip)        # 16e20 <_ZNSirsERi@GLIBCXX_3.4>
    363b:	0f 1f 44 00 00       	nopl   0x0(%rax,%rax,1)

0000000000003640 <_ZNSi6ignoreEli@plt>:
    3640:	f3 0f 1e fa          	endbr64 
    3644:	f2 ff 25 dd 37 01 00 	bnd jmpq *0x137dd(%rip)        # 16e28 <_ZNSi6ignoreEli@GLIBCXX_3.4>
    364b:	0f 1f 44 00 00       	nopl   0x0(%rax,%rax,1)

0000000000003650 <_ZNSo5flushEv@plt>:
    3650:	f3 0f 1e fa          	endbr64 
    3654:	f2 ff 25 d5 37 01 00 	bnd jmpq *0x137d5(%rip)        # 16e30 <_ZNSo5flushEv@GLIBCXX_3.4>
    365b:	0f 1f 44 00 00       	nopl   0x0(%rax,%rax,1)

0000000000003660 <_ZSt19__throw_logic_errorPKc@plt>:
    3660:	f3 0f 1e fa          	endbr64 
    3664:	f2 ff 25 cd 37 01 00 	bnd jmpq *0x137cd(%rip)        # 16e38 <_ZSt19__throw_logic_errorPKc@GLIBCXX_3.4>
    366b:	0f 1f 44 00 00       	nopl   0x0(%rax,%rax,1)

0000000000003670 <strtod@plt>:
    3670:	f3 0f 1e fa          	endbr64 
    3674:	f2 ff 25 c5 37 01 00 	bnd jmpq *0x137c5(%rip)        # 16e40 <strtod@GLIBC_2.2.5>
    367b:	0f 1f 44 00 00       	nopl   0x0(%rax,%rax,1)

0000000000003680 <__vsnprintf_chk@plt>:
    3680:	f3 0f 1e fa          	endbr64 
    3684:	f2 ff 25 bd 37 01 00 	bnd jmpq *0x137bd(%rip)        # 16e48 <__vsnprintf_chk@GLIBC_2.3.4>
    368b:	0f 1f 44 00 00       	nopl   0x0(%rax,%rax,1)

0000000000003690 <memcpy@plt>:
    3690:	f3 0f 1e fa          	endbr64 
    3694:	f2 ff 25 b5 37 01 00 	bnd jmpq *0x137b5(%rip)        # 16e50 <memcpy@GLIBC_2.14>
    369b:	0f 1f 44 00 00       	nopl   0x0(%rax,%rax,1)

00000000000036a0 <_ZSt2wsIcSt11char_traitsIcEERSt13basic_istreamIT_T0_ES6_@plt>:
    36a0:	f3 0f 1e fa          	endbr64 
    36a4:	f2 ff 25 ad 37 01 00 	bnd jmpq *0x137ad(%rip)        # 16e58 <_ZSt2wsIcSt11char_traitsIcEERSt13basic_istreamIT_T0_ES6_@GLIBCXX_3.4>
    36ab:	0f 1f 44 00 00       	nopl   0x0(%rax,%rax,1)

00000000000036b0 <__cxa_atexit@plt>:
    36b0:	f3 0f 1e fa          	endbr64 
    36b4:	f2 ff 25 a5 37 01 00 	bnd jmpq *0x137a5(%rip)        # 16e60 <__cxa_atexit@GLIBC_2.2.5>
    36bb:	0f 1f 44 00 00       	nopl   0x0(%rax,%rax,1)

00000000000036c0 <_ZNSt13basic_filebufIcSt11char_traitsIcEE4openEPKcSt13_Ios_Openmode@plt>:
    36c0:	f3 0f 1e fa          	endbr64 
    36c4:	f2 ff 25 9d 37 01 00 	bnd jmpq *0x1379d(%rip)        # 16e68 <_ZNSt13basic_filebufIcSt11char_traitsIcEE4openEPKcSt13_Ios_Openmode@GLIBCXX_3.4>
    36cb:	0f 1f 44 00 00       	nopl   0x0(%rax,%rax,1)

00000000000036d0 <_ZdlPv@plt>:
    36d0:	f3 0f 1e fa          	endbr64 
    36d4:	f2 ff 25 95 37 01 00 	bnd jmpq *0x13795(%rip)        # 16e70 <_ZdlPv@GLIBCXX_3.4>
    36db:	0f 1f 44 00 00       	nopl   0x0(%rax,%rax,1)

00000000000036e0 <_ZNSo9_M_insertIlEERSoT_@plt>:
    36e0:	f3 0f 1e fa          	endbr64 
    36e4:	f2 ff 25 8d 37 01 00 	bnd jmpq *0x1378d(%rip)        # 16e78 <_ZNSo9_M_insertIlEERSoT_@GLIBCXX_3.4.9>
    36eb:	0f 1f 44 00 00       	nopl   0x0(%rax,%rax,1)

00000000000036f0 <_Znwm@plt>:
    36f0:	f3 0f 1e fa          	endbr64 
    36f4:	f2 ff 25 85 37 01 00 	bnd jmpq *0x13785(%rip)        # 16e80 <_Znwm@GLIBCXX_3.4>
    36fb:	0f 1f 44 00 00       	nopl   0x0(%rax,%rax,1)

0000000000003700 <_ZNSi10_M_extractIlEERSiRT_@plt>:
    3700:	f3 0f 1e fa          	endbr64 
    3704:	f2 ff 25 7d 37 01 00 	bnd jmpq *0x1377d(%rip)        # 16e88 <_ZNSi10_M_extractIlEERSiRT_@GLIBCXX_3.4.9>
    370b:	0f 1f 44 00 00       	nopl   0x0(%rax,%rax,1)

0000000000003710 <_ZNSt13basic_filebufIcSt11char_traitsIcEEC1Ev@plt>:
    3710:	f3 0f 1e fa          	endbr64 
    3714:	f2 ff 25 75 37 01 00 	bnd jmpq *0x13775(%rip)        # 16e90 <_ZNSt13basic_filebufIcSt11char_traitsIcEEC1Ev@GLIBCXX_3.4>
    371b:	0f 1f 44 00 00       	nopl   0x0(%rax,%rax,1)

0000000000003720 <__stack_chk_fail@plt>:
    3720:	f3 0f 1e fa          	endbr64 
    3724:	f2 ff 25 6d 37 01 00 	bnd jmpq *0x1376d(%rip)        # 16e98 <__stack_chk_fail@GLIBC_2.4>
    372b:	0f 1f 44 00 00       	nopl   0x0(%rax,%rax,1)

0000000000003730 <_ZSt16__ostream_insertIcSt11char_traitsIcEERSt13basic_ostreamIT_T0_ES6_PKS3_l@plt>:
    3730:	f3 0f 1e fa          	endbr64 
    3734:	f2 ff 25 65 37 01 00 	bnd jmpq *0x13765(%rip)        # 16ea0 <_ZSt16__ostream_insertIcSt11char_traitsIcEERSt13basic_ostreamIT_T0_ES6_PKS3_l@GLIBCXX_3.4.9>
    373b:	0f 1f 44 00 00       	nopl   0x0(%rax,%rax,1)

0000000000003740 <_ZNKSt5ctypeIcE13_M_widen_initEv@plt>:
    3740:	f3 0f 1e fa          	endbr64 
    3744:	f2 ff 25 5d 37 01 00 	bnd jmpq *0x1375d(%rip)        # 16ea8 <_ZNKSt5ctypeIcE13_M_widen_initEv@GLIBCXX_3.4.11>
    374b:	0f 1f 44 00 00       	nopl   0x0(%rax,%rax,1)

0000000000003750 <_ZNSt7__cxx1112basic_stringIcSt11char_traitsIcESaIcEE12_M_constructEmc@plt>:
    3750:	f3 0f 1e fa          	endbr64 
    3754:	f2 ff 25 55 37 01 00 	bnd jmpq *0x13755(%rip)        # 16eb0 <_ZNSt7__cxx1112basic_stringIcSt11char_traitsIcESaIcEE12_M_constructEmc@GLIBCXX_3.4.21>
    375b:	0f 1f 44 00 00       	nopl   0x0(%rax,%rax,1)

0000000000003760 <exit@plt>:
    3760:	f3 0f 1e fa          	endbr64 
    3764:	f2 ff 25 4d 37 01 00 	bnd jmpq *0x1374d(%rip)        # 16eb8 <exit@GLIBC_2.2.5>
    376b:	0f 1f 44 00 00       	nopl   0x0(%rax,%rax,1)

0000000000003770 <_ZNSi4readEPcl@plt>:
    3770:	f3 0f 1e fa          	endbr64 
    3774:	f2 ff 25 45 37 01 00 	bnd jmpq *0x13745(%rip)        # 16ec0 <_ZNSi4readEPcl@GLIBCXX_3.4>
    377b:	0f 1f 44 00 00       	nopl   0x0(%rax,%rax,1)

0000000000003780 <_ZSt16__throw_bad_castv@plt>:
    3780:	f3 0f 1e fa          	endbr64 
    3784:	f2 ff 25 3d 37 01 00 	bnd jmpq *0x1373d(%rip)        # 16ec8 <_ZSt16__throw_bad_castv@GLIBCXX_3.4>
    378b:	0f 1f 44 00 00       	nopl   0x0(%rax,%rax,1)

0000000000003790 <GOMP_loop_nonmonotonic_dynamic_next@plt>:
    3790:	f3 0f 1e fa          	endbr64 
    3794:	f2 ff 25 35 37 01 00 	bnd jmpq *0x13735(%rip)        # 16ed0 <GOMP_loop_nonmonotonic_dynamic_next@GOMP_4.5>
    379b:	0f 1f 44 00 00       	nopl   0x0(%rax,%rax,1)

00000000000037a0 <_ZStrsIcSt11char_traitsIcESaIcEERSt13basic_istreamIT_T0_ES7_RNSt7__cxx1112basic_stringIS4_S5_T1_EE@plt>:
    37a0:	f3 0f 1e fa          	endbr64 
    37a4:	f2 ff 25 2d 37 01 00 	bnd jmpq *0x1372d(%rip)        # 16ed8 <_ZStrsIcSt11char_traitsIcESaIcEERSt13basic_istreamIT_T0_ES7_RNSt7__cxx1112basic_stringIS4_S5_T1_EE@GLIBCXX_3.4.21>
    37ab:	0f 1f 44 00 00       	nopl   0x0(%rax,%rax,1)

00000000000037b0 <_ZdaPv@plt>:
    37b0:	f3 0f 1e fa          	endbr64 
    37b4:	f2 ff 25 25 37 01 00 	bnd jmpq *0x13725(%rip)        # 16ee0 <_ZdaPv@GLIBCXX_3.4>
    37bb:	0f 1f 44 00 00       	nopl   0x0(%rax,%rax,1)

00000000000037c0 <_ZNSt7__cxx1115basic_stringbufIcSt11char_traitsIcESaIcEE7_M_syncEPcmm@plt>:
    37c0:	f3 0f 1e fa          	endbr64 
    37c4:	f2 ff 25 1d 37 01 00 	bnd jmpq *0x1371d(%rip)        # 16ee8 <_ZNSt7__cxx1115basic_stringbufIcSt11char_traitsIcESaIcEE7_M_syncEPcmm@GLIBCXX_3.4.21>
    37cb:	0f 1f 44 00 00       	nopl   0x0(%rax,%rax,1)

00000000000037d0 <_ZStrsIcSt11char_traitsIcEERSt13basic_istreamIT_T0_ES6_RS3_@plt>:
    37d0:	f3 0f 1e fa          	endbr64 
    37d4:	f2 ff 25 15 37 01 00 	bnd jmpq *0x13715(%rip)        # 16ef0 <_ZStrsIcSt11char_traitsIcEERSt13basic_istreamIT_T0_ES6_RS3_@GLIBCXX_3.4>
    37db:	0f 1f 44 00 00       	nopl   0x0(%rax,%rax,1)

00000000000037e0 <_ZNSt9basic_iosIcSt11char_traitsIcEE4initEPSt15basic_streambufIcS1_E@plt>:
    37e0:	f3 0f 1e fa          	endbr64 
    37e4:	f2 ff 25 0d 37 01 00 	bnd jmpq *0x1370d(%rip)        # 16ef8 <_ZNSt9basic_iosIcSt11char_traitsIcEE4initEPSt15basic_streambufIcS1_E@GLIBCXX_3.4>
    37eb:	0f 1f 44 00 00       	nopl   0x0(%rax,%rax,1)

00000000000037f0 <strtol@plt>:
    37f0:	f3 0f 1e fa          	endbr64 
    37f4:	f2 ff 25 05 37 01 00 	bnd jmpq *0x13705(%rip)        # 16f00 <strtol@GLIBC_2.2.5>
    37fb:	0f 1f 44 00 00       	nopl   0x0(%rax,%rax,1)

0000000000003800 <_ZNSt6localeD1Ev@plt>:
    3800:	f3 0f 1e fa          	endbr64 
    3804:	f2 ff 25 fd 36 01 00 	bnd jmpq *0x136fd(%rip)        # 16f08 <_ZNSt6localeD1Ev@GLIBCXX_3.4>
    380b:	0f 1f 44 00 00       	nopl   0x0(%rax,%rax,1)

0000000000003810 <__cxa_throw_bad_array_new_length@plt>:
    3810:	f3 0f 1e fa          	endbr64 
    3814:	f2 ff 25 f5 36 01 00 	bnd jmpq *0x136f5(%rip)        # 16f10 <__cxa_throw_bad_array_new_length@CXXABI_1.3.8>
    381b:	0f 1f 44 00 00       	nopl   0x0(%rax,%rax,1)

0000000000003820 <_ZSt20__throw_out_of_rangePKc@plt>:
    3820:	f3 0f 1e fa          	endbr64 
    3824:	f2 ff 25 ed 36 01 00 	bnd jmpq *0x136ed(%rip)        # 16f18 <_ZSt20__throw_out_of_rangePKc@GLIBCXX_3.4>
    382b:	0f 1f 44 00 00       	nopl   0x0(%rax,%rax,1)

0000000000003830 <GOMP_parallel@plt>:
    3830:	f3 0f 1e fa          	endbr64 
    3834:	f2 ff 25 e5 36 01 00 	bnd jmpq *0x136e5(%rip)        # 16f20 <GOMP_parallel@GOMP_4.0>
    383b:	0f 1f 44 00 00       	nopl   0x0(%rax,%rax,1)

0000000000003840 <_ZSt24__throw_out_of_range_fmtPKcz@plt>:
    3840:	f3 0f 1e fa          	endbr64 
    3844:	f2 ff 25 dd 36 01 00 	bnd jmpq *0x136dd(%rip)        # 16f28 <_ZSt24__throw_out_of_range_fmtPKcz@GLIBCXX_3.4.20>
    384b:	0f 1f 44 00 00       	nopl   0x0(%rax,%rax,1)

0000000000003850 <_ZNSt8ios_base4InitC1Ev@plt>:
    3850:	f3 0f 1e fa          	endbr64 
    3854:	f2 ff 25 d5 36 01 00 	bnd jmpq *0x136d5(%rip)        # 16f30 <_ZNSt8ios_base4InitC1Ev@GLIBCXX_3.4>
    385b:	0f 1f 44 00 00       	nopl   0x0(%rax,%rax,1)

0000000000003860 <_ZNSt13basic_filebufIcSt11char_traitsIcEED1Ev@plt>:
    3860:	f3 0f 1e fa          	endbr64 
    3864:	f2 ff 25 cd 36 01 00 	bnd jmpq *0x136cd(%rip)        # 16f38 <_ZNSt13basic_filebufIcSt11char_traitsIcEED1Ev@GLIBCXX_3.4>
    386b:	0f 1f 44 00 00       	nopl   0x0(%rax,%rax,1)

0000000000003870 <_ZNSt7__cxx1112basic_stringIcSt11char_traitsIcESaIcEE7reserveEm@plt>:
    3870:	f3 0f 1e fa          	endbr64 
    3874:	f2 ff 25 c5 36 01 00 	bnd jmpq *0x136c5(%rip)        # 16f40 <_ZNSt7__cxx1112basic_stringIcSt11char_traitsIcESaIcEE7reserveEm@GLIBCXX_3.4.21>
    387b:	0f 1f 44 00 00       	nopl   0x0(%rax,%rax,1)

0000000000003880 <omp_get_thread_num@plt>:
    3880:	f3 0f 1e fa          	endbr64 
    3884:	f2 ff 25 bd 36 01 00 	bnd jmpq *0x136bd(%rip)        # 16f48 <omp_get_thread_num@OMP_1.0>
    388b:	0f 1f 44 00 00       	nopl   0x0(%rax,%rax,1)

0000000000003890 <_ZNSo9_M_insertIdEERSoT_@plt>:
    3890:	f3 0f 1e fa          	endbr64 
    3894:	f2 ff 25 b5 36 01 00 	bnd jmpq *0x136b5(%rip)        # 16f50 <_ZNSo9_M_insertIdEERSoT_@GLIBCXX_3.4.9>
    389b:	0f 1f 44 00 00       	nopl   0x0(%rax,%rax,1)

00000000000038a0 <memmove@plt>:
    38a0:	f3 0f 1e fa          	endbr64 
    38a4:	f2 ff 25 ad 36 01 00 	bnd jmpq *0x136ad(%rip)        # 16f58 <memmove@GLIBC_2.2.5>
    38ab:	0f 1f 44 00 00       	nopl   0x0(%rax,%rax,1)

00000000000038b0 <__cxa_end_catch@plt>:
    38b0:	f3 0f 1e fa          	endbr64 
    38b4:	f2 ff 25 a5 36 01 00 	bnd jmpq *0x136a5(%rip)        # 16f60 <__cxa_end_catch@CXXABI_1.3>
    38bb:	0f 1f 44 00 00       	nopl   0x0(%rax,%rax,1)

00000000000038c0 <realloc@plt>:
    38c0:	f3 0f 1e fa          	endbr64 
    38c4:	f2 ff 25 9d 36 01 00 	bnd jmpq *0x1369d(%rip)        # 16f68 <realloc@GLIBC_2.2.5>
    38cb:	0f 1f 44 00 00       	nopl   0x0(%rax,%rax,1)

00000000000038d0 <GOMP_loop_nonmonotonic_dynamic_start@plt>:
    38d0:	f3 0f 1e fa          	endbr64 
    38d4:	f2 ff 25 95 36 01 00 	bnd jmpq *0x13695(%rip)        # 16f70 <GOMP_loop_nonmonotonic_dynamic_start@GOMP_4.5>
    38db:	0f 1f 44 00 00       	nopl   0x0(%rax,%rax,1)

00000000000038e0 <_ZNSt9basic_iosIcSt11char_traitsIcEE5clearESt12_Ios_Iostate@plt>:
    38e0:	f3 0f 1e fa          	endbr64 
    38e4:	f2 ff 25 8d 36 01 00 	bnd jmpq *0x1368d(%rip)        # 16f78 <_ZNSt9basic_iosIcSt11char_traitsIcEE5clearESt12_Ios_Iostate@GLIBCXX_3.4>
    38eb:	0f 1f 44 00 00       	nopl   0x0(%rax,%rax,1)

00000000000038f0 <_ZNSolsEi@plt>:
    38f0:	f3 0f 1e fa          	endbr64 
    38f4:	f2 ff 25 85 36 01 00 	bnd jmpq *0x13685(%rip)        # 16f80 <_ZNSolsEi@GLIBCXX_3.4>
    38fb:	0f 1f 44 00 00       	nopl   0x0(%rax,%rax,1)

0000000000003900 <_Unwind_Resume@plt>:
    3900:	f3 0f 1e fa          	endbr64 
    3904:	f2 ff 25 7d 36 01 00 	bnd jmpq *0x1367d(%rip)        # 16f88 <_Unwind_Resume@GCC_3.0>
    390b:	0f 1f 44 00 00       	nopl   0x0(%rax,%rax,1)

0000000000003910 <_ZNSt7__cxx1112basic_stringIcSt11char_traitsIcESaIcEE9_M_createERmm@plt>:
    3910:	f3 0f 1e fa          	endbr64 
    3914:	f2 ff 25 75 36 01 00 	bnd jmpq *0x13675(%rip)        # 16f90 <_ZNSt7__cxx1112basic_stringIcSt11char_traitsIcESaIcEE9_M_createERmm@GLIBCXX_3.4.21>
    391b:	0f 1f 44 00 00       	nopl   0x0(%rax,%rax,1)

0000000000003920 <GOMP_barrier@plt>:
    3920:	f3 0f 1e fa          	endbr64 
    3924:	f2 ff 25 6d 36 01 00 	bnd jmpq *0x1366d(%rip)        # 16f98 <GOMP_barrier@GOMP_1.0>
    392b:	0f 1f 44 00 00       	nopl   0x0(%rax,%rax,1)

0000000000003930 <_ZSt7getlineIcSt11char_traitsIcESaIcEERSt13basic_istreamIT_T0_ES7_RNSt7__cxx1112basic_stringIS4_S5_T1_EES4_@plt>:
    3930:	f3 0f 1e fa          	endbr64 
    3934:	f2 ff 25 65 36 01 00 	bnd jmpq *0x13665(%rip)        # 16fa0 <_ZSt7getlineIcSt11char_traitsIcESaIcEERSt13basic_istreamIT_T0_ES7_RNSt7__cxx1112basic_stringIS4_S5_T1_EES4_@GLIBCXX_3.4.21>
    393b:	0f 1f 44 00 00       	nopl   0x0(%rax,%rax,1)

0000000000003940 <_ZNSt12__basic_fileIcED1Ev@plt>:
    3940:	f3 0f 1e fa          	endbr64 
    3944:	f2 ff 25 5d 36 01 00 	bnd jmpq *0x1365d(%rip)        # 16fa8 <_ZNSt12__basic_fileIcED1Ev@GLIBCXX_3.4>
    394b:	0f 1f 44 00 00       	nopl   0x0(%rax,%rax,1)

0000000000003950 <omp_get_num_threads@plt>:
    3950:	f3 0f 1e fa          	endbr64 
    3954:	f2 ff 25 55 36 01 00 	bnd jmpq *0x13655(%rip)        # 16fb0 <omp_get_num_threads@OMP_1.0>
    395b:	0f 1f 44 00 00       	nopl   0x0(%rax,%rax,1)

0000000000003960 <_ZNKSt7__cxx1112basic_stringIcSt11char_traitsIcESaIcEE5rfindEcm@plt>:
    3960:	f3 0f 1e fa          	endbr64 
    3964:	f2 ff 25 4d 36 01 00 	bnd jmpq *0x1364d(%rip)        # 16fb8 <_ZNKSt7__cxx1112basic_stringIcSt11char_traitsIcESaIcEE5rfindEcm@GLIBCXX_3.4.21>
    396b:	0f 1f 44 00 00       	nopl   0x0(%rax,%rax,1)

0000000000003970 <_ZNSt6localeC1Ev@plt>:
    3970:	f3 0f 1e fa          	endbr64 
    3974:	f2 ff 25 45 36 01 00 	bnd jmpq *0x13645(%rip)        # 16fc0 <_ZNSt6localeC1Ev@GLIBCXX_3.4>
    397b:	0f 1f 44 00 00       	nopl   0x0(%rax,%rax,1)

Disassembly of section .text:

0000000000003980 <_Z10PrintLabelRKNSt7__cxx1112basic_stringIcSt11char_traitsIcESaIcEEES6_.cold>:
_ZNKSt7__cxx1112basic_stringIcSt11char_traitsIcESaIcEE7_M_dataEv():
/usr/include/c++/10/bits/basic_string.h:195 (discriminator 1)
      _M_length(size_type __length)
      { _M_string_length = __length; }

      pointer
      _M_data() const
      { return _M_dataplus._M_p; }
    3980:	    48 8b 7c 24 10       	mov    0x10(%rsp),%rdi
_ZNSt7__cxx1112basic_stringIcSt11char_traitsIcESaIcEE10_M_disposeEv():
/usr/include/c++/10/bits/basic_string.h:239 (discriminator 1)
      _M_create(size_type&, size_type);

      void
      _M_dispose()
      {
	if (!_M_is_local())
    3985:	    48 39 df             	cmp    %rbx,%rdi
    3988:	/-- 74 05                	je     398f <_Z10PrintLabelRKNSt7__cxx1112basic_stringIcSt11char_traitsIcESaIcEEES6_.cold+0xf>
_ZN9__gnu_cxx13new_allocatorIcE10deallocateEPcm():
/usr/include/c++/10/ext/new_allocator.h:139
# endif
			      std::align_val_t(alignof(_Tp)));
	    return;
	  }
#endif
	::operator delete(__p
    398a:	|   e8 41 fd ff ff       	callq  36d0 <_ZdlPv@plt>
_ZN9__gnu_cxx13new_allocatorIcED4Ev():
/usr/include/c++/10/ext/new_allocator.h:89
      ~new_allocator() _GLIBCXX_USE_NOEXCEPT { }
    398f:	\-> 48 89 ef             	mov    %rbp,%rdi
    3992:	    e8 69 ff ff ff       	callq  3900 <_Unwind_Resume@plt>

0000000000003997 <_Z9PrintTimeRKNSt7__cxx1112basic_stringIcSt11char_traitsIcESaIcEEEd.cold>:
_ZNKSt7__cxx1112basic_stringIcSt11char_traitsIcESaIcEE7_M_dataEv():
/usr/include/c++/10/bits/basic_string.h:195 (discriminator 1)
      { return _M_dataplus._M_p; }
    3997:	    48 8b 7c 24 10       	mov    0x10(%rsp),%rdi
_ZNSt7__cxx1112basic_stringIcSt11char_traitsIcESaIcEE10_M_disposeEv():
/usr/include/c++/10/bits/basic_string.h:239 (discriminator 1)
	if (!_M_is_local())
    399c:	    48 39 df             	cmp    %rbx,%rdi
    399f:	/-- 74 05                	je     39a6 <_Z9PrintTimeRKNSt7__cxx1112basic_stringIcSt11char_traitsIcESaIcEEEd.cold+0xf>
_ZN9__gnu_cxx13new_allocatorIcE10deallocateEPcm():
/usr/include/c++/10/ext/new_allocator.h:139
	::operator delete(__p
    39a1:	|   e8 2a fd ff ff       	callq  36d0 <_ZdlPv@plt>
_ZN9__gnu_cxx13new_allocatorIcED4Ev():
/usr/include/c++/10/ext/new_allocator.h:89
      ~new_allocator() _GLIBCXX_USE_NOEXCEPT { }
    39a6:	\-> 48 89 ef             	mov    %rbp,%rdi
    39a9:	    e8 52 ff ff ff       	callq  3900 <_Unwind_Resume@plt>

00000000000039ae <_Z9PrintStepRKNSt7__cxx1112basic_stringIcSt11char_traitsIcESaIcEEEl.cold>:
_ZNKSt7__cxx1112basic_stringIcSt11char_traitsIcESaIcEE7_M_dataEv():
/usr/include/c++/10/bits/basic_string.h:195 (discriminator 1)
      { return _M_dataplus._M_p; }
    39ae:	    48 8b 7c 24 10       	mov    0x10(%rsp),%rdi
_ZNSt7__cxx1112basic_stringIcSt11char_traitsIcESaIcEE10_M_disposeEv():
/usr/include/c++/10/bits/basic_string.h:239 (discriminator 1)
	if (!_M_is_local())
    39b3:	    48 39 df             	cmp    %rbx,%rdi
    39b6:	/-- 74 05                	je     39bd <_Z9PrintStepRKNSt7__cxx1112basic_stringIcSt11char_traitsIcESaIcEEEl.cold+0xf>
_ZN9__gnu_cxx13new_allocatorIcE10deallocateEPcm():
/usr/include/c++/10/ext/new_allocator.h:139
	::operator delete(__p
    39b8:	|   e8 13 fd ff ff       	callq  36d0 <_ZdlPv@plt>
_ZN9__gnu_cxx13new_allocatorIcED4Ev():
/usr/include/c++/10/ext/new_allocator.h:89
      ~new_allocator() _GLIBCXX_USE_NOEXCEPT { }
    39bd:	\-> 48 89 ef             	mov    %rbp,%rdi
    39c0:	    e8 3b ff ff ff       	callq  3900 <_Unwind_Resume@plt>

00000000000039c5 <_Z9PrintStepidl.cold>:
_ZNKSt7__cxx1112basic_stringIcSt11char_traitsIcESaIcEE7_M_dataEv():
/usr/include/c++/10/bits/basic_string.h:195 (discriminator 1)
      { return _M_dataplus._M_p; }
    39c5:	    48 8b 7c 24 10       	mov    0x10(%rsp),%rdi
_ZNSt7__cxx1112basic_stringIcSt11char_traitsIcESaIcEE10_M_disposeEv():
/usr/include/c++/10/bits/basic_string.h:239 (discriminator 1)
	if (!_M_is_local())
    39ca:	    48 39 ef             	cmp    %rbp,%rdi
    39cd:	/-- 74 05                	je     39d4 <_Z9PrintStepidl.cold+0xf>
_ZN9__gnu_cxx13new_allocatorIcE10deallocateEPcm():
/usr/include/c++/10/ext/new_allocator.h:139
	::operator delete(__p
    39cf:	|   e8 fc fc ff ff       	callq  36d0 <_ZdlPv@plt>
_ZN9__gnu_cxx13new_allocatorIcED4Ev():
/usr/include/c++/10/ext/new_allocator.h:89
      ~new_allocator() _GLIBCXX_USE_NOEXCEPT { }
    39d4:	\-> 4c 89 e7             	mov    %r12,%rdi
    39d7:	    e8 24 ff ff ff       	callq  3900 <_Unwind_Resume@plt>

00000000000039dc <_Z14PageRankPullGSRK8CSRGraphIiiLb1EEidb.cold>:
_ZN7pvectorIfEC4Em():
/home/aliha951/forked_gapbs/gapbs/src/pvector.h:30
  typedef T_* iterator;

  pvector() : start_(nullptr), end_size_(nullptr), end_capacity_(nullptr) {}

  explicit pvector(size_t num_elements) {
    start_ = new T_[num_elements];
    39dc:	       e8 2f fe ff ff       	callq  3810 <__cxa_throw_bad_array_new_length@plt>
_ZNKSt7__cxx1112basic_stringIcSt11char_traitsIcESaIcEE7_M_dataEv():
/usr/include/c++/10/bits/basic_string.h:195
      { return _M_dataplus._M_p; }
    39e1:	       48 8b bc 24 a0 00 00 	mov    0xa0(%rsp),%rdi
    39e8:	00 
_ZNSt7__cxx1112basic_stringIcSt11char_traitsIcESaIcEE10_M_disposeEv():
/usr/include/c++/10/bits/basic_string.h:239
	if (!_M_is_local())
    39e9:	       48 3b 7c 24 38       	cmp    0x38(%rsp),%rdi
    39ee:	   /-- 74 05                	je     39f5 <_Z14PageRankPullGSRK8CSRGraphIiiLb1EEidb.cold+0x19>
_ZN9__gnu_cxx13new_allocatorIcE10deallocateEPcm():
/usr/include/c++/10/ext/new_allocator.h:139
	::operator delete(__p
    39f0:	   |   e8 db fc ff ff       	callq  36d0 <_ZdlPv@plt>
_ZN7pvectorIfE16ReleaseResourcesEv():
/home/aliha951/forked_gapbs/gapbs/src/pvector.h:73
    }
    return *this;
  }

  void ReleaseResources(){
    if (start_ != nullptr) {
    39f5:	   \-> 48 8b 7c 24 50       	mov    0x50(%rsp),%rdi
    39fa:	       48 85 ff             	test   %rdi,%rdi
    39fd:	/----- 74 05                	je     3a04 <_Z14PageRankPullGSRK8CSRGraphIiiLb1EEidb.cold+0x28>
/home/aliha951/forked_gapbs/gapbs/src/pvector.h:74
      delete[] start_;
    39ff:	|      e8 ac fd ff ff       	callq  37b0 <_ZdaPv@plt>
/home/aliha951/forked_gapbs/gapbs/src/pvector.h:73
    if (start_ != nullptr) {
    3a04:	>----> 48 8b 44 24 48       	mov    0x48(%rsp),%rax
    3a09:	|      48 8b 38             	mov    (%rax),%rdi
    3a0c:	|      48 85 ff             	test   %rdi,%rdi
    3a0f:	|  /-- 74 05                	je     3a16 <_Z14PageRankPullGSRK8CSRGraphIiiLb1EEidb.cold+0x3a>
/home/aliha951/forked_gapbs/gapbs/src/pvector.h:74
      delete[] start_;
    3a11:	|  |   e8 9a fd ff ff       	callq  37b0 <_ZdaPv@plt>
    3a16:	|  \-> 48 89 ef             	mov    %rbp,%rdi
    3a19:	|      e8 e2 fe ff ff       	callq  3900 <_Unwind_Resume@plt>
_ZN7pvectorIfEC4Em():
/home/aliha951/forked_gapbs/gapbs/src/pvector.h:30
    start_ = new T_[num_elements];
    3a1e:	|      e8 ed fd ff ff       	callq  3810 <__cxa_throw_bad_array_new_length@plt>
    3a23:	|      f3 0f 1e fa          	endbr64 
_ZN7pvectorIfE16ReleaseResourcesEv():
/home/aliha951/forked_gapbs/gapbs/src/pvector.h:73
    if (start_ != nullptr) {
    3a27:	|      48 89 c5             	mov    %rax,%rbp
    3a2a:	\----- eb d8                	jmp    3a04 <_Z14PageRankPullGSRK8CSRGraphIiiLb1EEidb.cold+0x28>

0000000000003a2c <_Z10PRVerifierRK8CSRGraphIiiLb1EERK7pvectorIfEd.cold>:
_ZN7pvectorIfEC4Em():
/home/aliha951/forked_gapbs/gapbs/src/pvector.h:30
    start_ = new T_[num_elements];
    3a2c:	    e8 df fd ff ff       	callq  3810 <__cxa_throw_bad_array_new_length@plt>
_ZNKSt7__cxx1112basic_stringIcSt11char_traitsIcESaIcEE7_M_dataEv():
/usr/include/c++/10/bits/basic_string.h:195 (discriminator 3)
      { return _M_dataplus._M_p; }
    3a31:	    48 8b 7c 24 40       	mov    0x40(%rsp),%rdi
_ZNSt7__cxx1112basic_stringIcSt11char_traitsIcESaIcEE10_M_disposeEv():
/usr/include/c++/10/bits/basic_string.h:239 (discriminator 3)
	if (!_M_is_local())
    3a36:	    48 39 df             	cmp    %rbx,%rdi
    3a39:	/-- 74 05                	je     3a40 <_Z10PRVerifierRK8CSRGraphIiiLb1EERK7pvectorIfEd.cold+0x14>
_ZN9__gnu_cxx13new_allocatorIcE10deallocateEPcm():
/usr/include/c++/10/ext/new_allocator.h:139
    3a3b:	|   e8 90 fc ff ff       	callq  36d0 <_ZdlPv@plt>
_ZN7pvectorIfE16ReleaseResourcesEv():
/home/aliha951/forked_gapbs/gapbs/src/pvector.h:73
    if (start_ != nullptr) {
    3a40:	\-> 48 8b 7c 24 20       	mov    0x20(%rsp),%rdi
    3a45:	    48 85 ff             	test   %rdi,%rdi
    3a48:	/-- 74 05                	je     3a4f <_Z10PRVerifierRK8CSRGraphIiiLb1EERK7pvectorIfEd.cold+0x23>
/home/aliha951/forked_gapbs/gapbs/src/pvector.h:74
      delete[] start_;
    3a4a:	|   e8 61 fd ff ff       	callq  37b0 <_ZdaPv@plt>
    3a4f:	\-> 48 89 ef             	mov    %rbp,%rdi
    3a52:	    e8 a9 fe ff ff       	callq  3900 <_Unwind_Resume@plt>

0000000000003a57 <_Z14PrintTopScoresRK8CSRGraphIiiLb1EERK7pvectorIfE.cold>:
_ZNSt6vectorISt4pairIfiESaIS1_EED4Ev():
/usr/include/c++/10/bits/stl_vector.h:680
       *  not touched in any way.  Managing the pointer is the user's
       *  responsibility.
       */
      ~vector() _GLIBCXX_NOEXCEPT
      {
	std::_Destroy(this->_M_impl._M_start, this->_M_impl._M_finish,
    3a57:	    48 8b 7c 24 20       	mov    0x20(%rsp),%rdi
_ZNSt12_Vector_baseISt4pairIfiESaIS1_EE13_M_deallocateEPS1_m():
/usr/include/c++/10/bits/stl_vector.h:353
	if (__p)
    3a5c:	    48 85 ff             	test   %rdi,%rdi
    3a5f:	/-- 74 05                	je     3a66 <_Z14PrintTopScoresRK8CSRGraphIiiLb1EERK7pvectorIfE.cold+0xf>
_ZN9__gnu_cxx13new_allocatorISt4pairIfiEE10deallocateEPS2_m():
/usr/include/c++/10/ext/new_allocator.h:139
    3a61:	|   e8 6a fc ff ff       	callq  36d0 <_ZdlPv@plt>
_ZNSt6vectorISt4pairIifESaIS1_EED4Ev():
/usr/include/c++/10/bits/stl_vector.h:680
	std::_Destroy(this->_M_impl._M_start, this->_M_impl._M_finish,
    3a66:	\-> 48 8b 3c 24          	mov    (%rsp),%rdi
_ZNSt12_Vector_baseISt4pairIifESaIS1_EE13_M_deallocateEPS1_m():
/usr/include/c++/10/bits/stl_vector.h:353
	if (__p)
    3a6a:	    48 85 ff             	test   %rdi,%rdi
    3a6d:	/-- 74 05                	je     3a74 <_Z14PrintTopScoresRK8CSRGraphIiiLb1EERK7pvectorIfE.cold+0x1d>
_ZN9__gnu_cxx13new_allocatorISt4pairIifEE10deallocateEPS2_m():
/usr/include/c++/10/ext/new_allocator.h:139
    3a6f:	|   e8 5c fc ff ff       	callq  36d0 <_ZdlPv@plt>
_ZN9__gnu_cxx13new_allocatorISt4pairIifEED4Ev():
/usr/include/c++/10/ext/new_allocator.h:89
      ~new_allocator() _GLIBCXX_USE_NOEXCEPT { }
    3a74:	\-> 48 89 ef             	mov    %rbp,%rdi
    3a77:	    e8 84 fe ff ff       	callq  3900 <_Unwind_Resume@plt>

0000000000003a7c <main.cold>:
_ZNKSt7__cxx1112basic_stringIcSt11char_traitsIcESaIcEE7_M_dataEv():
/usr/include/c++/10/bits/basic_string.h:195
      { return _M_dataplus._M_p; }
    3a7c:	          48 8b bc 24 d0 00 00 	mov    0xd0(%rsp),%rdi
    3a83:	00 
_ZNSt7__cxx1112basic_stringIcSt11char_traitsIcESaIcEE10_M_disposeEv():
/usr/include/c++/10/bits/basic_string.h:239
	if (!_M_is_local())
    3a84:	          48 39 df             	cmp    %rbx,%rdi
    3a87:	      /-- 74 05                	je     3a8e <main.cold+0x12>
_ZN9__gnu_cxx13new_allocatorIcE10deallocateEPcm():
/usr/include/c++/10/ext/new_allocator.h:139
	::operator delete(__p
    3a89:	      |   e8 42 fc ff ff       	callq  36d0 <_ZdlPv@plt>
_ZN9__gnu_cxx13new_allocatorIcED4Ev():
/usr/include/c++/10/ext/new_allocator.h:89
      ~new_allocator() _GLIBCXX_USE_NOEXCEPT { }
    3a8e:	      \-> 48 89 eb             	mov    %rbp,%rbx
_ZN8CSRGraphIiiLb1EED4Ev():
/home/aliha951/forked_gapbs/gapbs/src/graph.h:166
      other.in_index_ = nullptr;
      other.in_neighbors_ = nullptr;
  }

  ~CSRGraph() {
    ReleaseResources();
    3a91:	/-------> 4c 89 f7             	mov    %r14,%rdi
    3a94:	|         49 89 dc             	mov    %rbx,%r12
    3a97:	|         e8 14 4c 00 00       	callq  86b0 <_ZN8CSRGraphIiiLb1EE16ReleaseResourcesEv>
_ZN5CLAppD4Ev():
/home/aliha951/forked_gapbs/gapbs/src/command_line.h:114
  bool in_place() const { return in_place_; }
};



class CLApp : public CLBase {
    3a9c:	|  /----> 48 8b 7c 24 18       	mov    0x18(%rsp),%rdi
    3aa1:	|  |      48 8d 05 a8 2d 01 00 	lea    0x12da8(%rip),%rax        # 16850 <_ZTV5CLApp+0x10>
    3aa8:	|  |      48 89 84 24 f0 00 00 	mov    %rax,0xf0(%rsp)
    3aaf:	00 
    3ab0:	|  |      e8 4b 4b 00 00       	callq  8600 <_ZN6CLBaseD1Ev>
    3ab5:	|  |      4c 89 e7             	mov    %r12,%rdi
    3ab8:	|  |      e8 43 fe ff ff       	callq  3900 <_Unwind_Resume@plt>
_ZZN9__gnu_cxx6__stoaIddcJEEET0_PFT_PKT1_PPS3_DpT2_EPKcS5_PmS9_EN11_Save_errnoD4Ev():
/usr/include/c++/10/ext/string_conversions.h:64

      _CharT* __endptr;

      struct _Save_errno {
	_Save_errno() : _M_errno(errno) { errno = 0; }
	~_Save_errno() { if (errno == 0) errno = _M_errno; }
    3abd:	|  |      83 7d 00 00          	cmpl   $0x0,0x0(%rbp)
    3ac1:	|  |  /-- 75 06                	jne    3ac9 <main.cold+0x4d>
    3ac3:	|  |  |   8b 04 24             	mov    (%rsp),%eax
    3ac6:	|  |  |   89 45 00             	mov    %eax,0x0(%rbp)
_ZNKSt7__cxx1112basic_stringIcSt11char_traitsIcESaIcEE7_M_dataEv():
/usr/include/c++/10/bits/basic_string.h:195
      { return _M_dataplus._M_p; }
    3ac9:	|  |  \-> 48 8b bc 24 d0 00 00 	mov    0xd0(%rsp),%rdi
    3ad0:	00 
_ZNSt7__cxx1112basic_stringIcSt11char_traitsIcESaIcEE10_M_disposeEv():
/usr/include/c++/10/bits/basic_string.h:239
	if (!_M_is_local())
    3ad1:	|  |      48 39 df             	cmp    %rbx,%rdi
    3ad4:	|  +----- 74 c6                	je     3a9c <main.cold+0x20>
_ZN9__gnu_cxx13new_allocatorIcE10deallocateEPcm():
/usr/include/c++/10/ext/new_allocator.h:139
	::operator delete(__p
    3ad6:	|  |      e8 f5 fb ff ff       	callq  36d0 <_ZdlPv@plt>
_ZNSt7__cxx1112basic_stringIcSt11char_traitsIcESaIcEE10_M_destroyEm():
/usr/include/c++/10/bits/basic_string.h:245
	  _M_destroy(_M_allocated_capacity);
      }

      void
      _M_destroy(size_type __size) throw()
      { _Alloc_traits::deallocate(_M_get_allocator(), _M_data(), __size + 1); }
    3adb:	|  \----- eb bf                	jmp    3a9c <main.cold+0x20>
_ZNKSt7__cxx1112basic_stringIcSt11char_traitsIcESaIcEE7_M_dataEv():
/usr/include/c++/10/bits/basic_string.h:195
      { return _M_dataplus._M_p; }
    3add:	|         48 8b bc 24 d0 00 00 	mov    0xd0(%rsp),%rdi
    3ae4:	00 
_ZNSt7__cxx1112basic_stringIcSt11char_traitsIcESaIcEE10_M_disposeEv():
/usr/include/c++/10/bits/basic_string.h:239
	if (!_M_is_local())
    3ae5:	|         48 8d 84 24 e0 00 00 	lea    0xe0(%rsp),%rax
    3aec:	00 
    3aed:	|         48 39 c7             	cmp    %rax,%rdi
    3af0:	|     /-- 74 05                	je     3af7 <main.cold+0x7b>
_ZN9__gnu_cxx13new_allocatorIcE10deallocateEPcm():
/usr/include/c++/10/ext/new_allocator.h:139
    3af2:	|     |   e8 d9 fb ff ff       	callq  36d0 <_ZdlPv@plt>
_ZN9__gnu_cxx13new_allocatorIcED4Ev():
/usr/include/c++/10/ext/new_allocator.h:89
      ~new_allocator() _GLIBCXX_USE_NOEXCEPT { }
    3af7:	|     \-> 48 89 ef             	mov    %rbp,%rdi
    3afa:	|         e8 01 fe ff ff       	callq  3900 <_Unwind_Resume@plt>
_ZNKSt7__cxx1112basic_stringIcSt11char_traitsIcESaIcEE7_M_dataEv():
/usr/include/c++/10/bits/basic_string.h:195
      { return _M_dataplus._M_p; }
    3aff:	|         48 8b bc 24 d0 00 00 	mov    0xd0(%rsp),%rdi
    3b06:	00 
_ZNSt7__cxx1112basic_stringIcSt11char_traitsIcESaIcEE10_M_disposeEv():
/usr/include/c++/10/bits/basic_string.h:239
	if (!_M_is_local())
    3b07:	|         48 39 df             	cmp    %rbx,%rdi
    3b0a:	|     /-- 74 05                	je     3b11 <main.cold+0x95>
_ZN9__gnu_cxx13new_allocatorIcE10deallocateEPcm():
/usr/include/c++/10/ext/new_allocator.h:139
	::operator delete(__p
    3b0c:	|     |   e8 bf fb ff ff       	callq  36d0 <_ZdlPv@plt>
_ZNKSt7__cxx1112basic_stringIcSt11char_traitsIcESaIcEE7_M_dataEv():
/usr/include/c++/10/bits/basic_string.h:195
      { return _M_dataplus._M_p; }
    3b11:	|     \-> 48 8b bc 24 b0 00 00 	mov    0xb0(%rsp),%rdi
    3b18:	00 
_ZNSt7__cxx1112basic_stringIcSt11char_traitsIcESaIcEE10_M_disposeEv():
/usr/include/c++/10/bits/basic_string.h:239
	if (!_M_is_local())
    3b19:	|         48 39 ef             	cmp    %rbp,%rdi
    3b1c:	|     /-- 74 05                	je     3b23 <main.cold+0xa7>
_ZN9__gnu_cxx13new_allocatorIcE10deallocateEPcm():
/usr/include/c++/10/ext/new_allocator.h:139
    3b1e:	|     |   e8 ad fb ff ff       	callq  36d0 <_ZdlPv@plt>
_ZN9__gnu_cxx13new_allocatorIcED4Ev():
/usr/include/c++/10/ext/new_allocator.h:89
      ~new_allocator() _GLIBCXX_USE_NOEXCEPT { }
    3b23:	|     \-> 4c 89 e5             	mov    %r12,%rbp
_ZN7pvectorIfE16ReleaseResourcesEv():
/home/aliha951/forked_gapbs/gapbs/src/pvector.h:73
    if (start_ != nullptr) {
    3b26:	|  /----> 48 8b 7c 24 50       	mov    0x50(%rsp),%rdi
    3b2b:	|  |      48 85 ff             	test   %rdi,%rdi
    3b2e:	|  |  /-- 74 05                	je     3b35 <main.cold+0xb9>
/home/aliha951/forked_gapbs/gapbs/src/pvector.h:74
      delete[] start_;
    3b30:	|  |  |   e8 7b fc ff ff       	callq  37b0 <_ZdaPv@plt>
    3b35:	|  |  \-> 48 89 eb             	mov    %rbp,%rbx
    3b38:	\--|----- e9 54 ff ff ff       	jmpq   3a91 <main.cold+0x15>
_ZNKSt7__cxx1112basic_stringIcSt11char_traitsIcESaIcEE7_M_dataEv():
/usr/include/c++/10/bits/basic_string.h:195
      { return _M_dataplus._M_p; }
    3b3d:	   |      48 8b bc 24 d0 00 00 	mov    0xd0(%rsp),%rdi
    3b44:	00 
_ZNSt7__cxx1112basic_stringIcSt11char_traitsIcESaIcEE10_M_disposeEv():
/usr/include/c++/10/bits/basic_string.h:239
	if (!_M_is_local())
    3b45:	   |      48 39 df             	cmp    %rbx,%rdi
    3b48:	   +----- 74 dc                	je     3b26 <main.cold+0xaa>
_ZN9__gnu_cxx13new_allocatorIcE10deallocateEPcm():
/usr/include/c++/10/ext/new_allocator.h:139
	::operator delete(__p
    3b4a:	   |      e8 81 fb ff ff       	callq  36d0 <_ZdlPv@plt>
_ZNSt7__cxx1112basic_stringIcSt11char_traitsIcESaIcEE10_M_destroyEm():
/usr/include/c++/10/bits/basic_string.h:245
      { _Alloc_traits::deallocate(_M_get_allocator(), _M_data(), __size + 1); }
    3b4f:	   +----- eb d5                	jmp    3b26 <main.cold+0xaa>
_ZNKSt7__cxx1112basic_stringIcSt11char_traitsIcESaIcEE7_M_dataEv():
/usr/include/c++/10/bits/basic_string.h:195
      { return _M_dataplus._M_p; }
    3b51:	   |      48 8b bc 24 d0 00 00 	mov    0xd0(%rsp),%rdi
    3b58:	00 
_ZNSt7__cxx1112basic_stringIcSt11char_traitsIcESaIcEE10_M_disposeEv():
/usr/include/c++/10/bits/basic_string.h:239
	if (!_M_is_local())
    3b59:	   |      48 39 df             	cmp    %rbx,%rdi
    3b5c:	   +----- 74 c8                	je     3b26 <main.cold+0xaa>
_ZN9__gnu_cxx13new_allocatorIcE10deallocateEPcm():
/usr/include/c++/10/ext/new_allocator.h:139
    3b5e:	   |      e8 6d fb ff ff       	callq  36d0 <_ZdlPv@plt>
_ZNSt7__cxx1112basic_stringIcSt11char_traitsIcESaIcEE10_M_destroyEm():
/usr/include/c++/10/bits/basic_string.h:245
      { _Alloc_traits::deallocate(_M_get_allocator(), _M_data(), __size + 1); }
    3b63:	   \----- eb c1                	jmp    3b26 <main.cold+0xaa>
main.cold():
    3b65:	          66 2e 0f 1f 84 00 00 	nopw   %cs:0x0(%rax,%rax,1)
    3b6c:	00 00 00 
    3b6f:	          90                   	nop

0000000000003b70 <main>:
main():
/home/aliha951/forked_gapbs/gapbs/src/pr.cc:97
  PrintTime("Total Error", error);
  return error < target_error;
}


int main(int argc, char* argv[]) {
    3b70:	                                                                            f3 0f 1e fa          	endbr64 
    3b74:	                                                                            41 57                	push   %r15
    3b76:	                                                                            41 56                	push   %r14
    3b78:	                                                                            41 55                	push   %r13
    3b7a:	                                                                            41 54                	push   %r12
    3b7c:	                                                                            49 89 f4             	mov    %rsi,%r12
/home/aliha951/forked_gapbs/gapbs/src/pr.cc:98
  CLPageRank cli(argc, argv, "pagerank", 1e-4, 20);
    3b7f:	                                                                            48 8d 35 a1 f5 00 00 	lea    0xf5a1(%rip),%rsi        # 13127 <_IO_stdin_used+0x127>
/home/aliha951/forked_gapbs/gapbs/src/pr.cc:97
int main(int argc, char* argv[]) {
    3b86:	                                                                            55                   	push   %rbp
    3b87:	                                                                            89 fd                	mov    %edi,%ebp
    3b89:	                                                                            53                   	push   %rbx
    3b8a:	                                                                            48 81 ec b8 01 00 00 	sub    $0x1b8,%rsp
    3b91:	                                                                            64 48 8b 04 25 28 00 	mov    %fs:0x28,%rax
    3b98:	00 00 
    3b9a:	                                                                            48 89 84 24 a8 01 00 	mov    %rax,0x1a8(%rsp)
    3ba1:	00 
    3ba2:	                                                                            31 c0                	xor    %eax,%eax
/home/aliha951/forked_gapbs/gapbs/src/pr.cc:98
  CLPageRank cli(argc, argv, "pagerank", 1e-4, 20);
    3ba4:	                                                                            4c 8d ac 24 d0 00 00 	lea    0xd0(%rsp),%r13
    3bab:	00 
    3bac:	                                                                            4c 89 ef             	mov    %r13,%rdi
    3baf:	                                                                            e8 1c 17 00 00       	callq  52d0 <_ZNSt7__cxx1112basic_stringIcSt11char_traitsIcESaIcEEC2EPKcRKS3_.constprop.0>
    3bb4:	                                                                            41 b8 14 00 00 00    	mov    $0x14,%r8d
    3bba:	                                                                            4c 89 e9             	mov    %r13,%rcx
    3bbd:	                                                                            89 ee                	mov    %ebp,%esi
    3bbf:	                                                                            48 8d 84 24 f0 00 00 	lea    0xf0(%rsp),%rax
    3bc6:	00 
    3bc7:	                                                                            f2 0f 10 05 91 fd 00 	movsd  0xfd91(%rip),%xmm0        # 13960 <_ZZNSt8__detail18__to_chars_10_implIjEEvPcjT_E8__digits+0x260>
    3bce:	00 
    3bcf:	                                                                            4c 89 e2             	mov    %r12,%rdx
    3bd2:	                                                                            48 89 c7             	mov    %rax,%rdi
    3bd5:	                                                                            48 89 44 24 18       	mov    %rax,0x18(%rsp)
    3bda:	                                                                            e8 71 69 00 00       	callq  a550 <_ZN10CLPageRankC1EiPPcNSt7__cxx1112basic_stringIcSt11char_traitsIcESaIcEEEdi>
_ZNKSt7__cxx1112basic_stringIcSt11char_traitsIcESaIcEE7_M_dataEv():
/usr/include/c++/10/bits/basic_string.h:195
      { return _M_dataplus._M_p; }
    3bdf:	                                                                            48 8b bc 24 d0 00 00 	mov    0xd0(%rsp),%rdi
    3be6:	00 
_ZNSt7__cxx1112basic_stringIcSt11char_traitsIcESaIcEE10_M_disposeEv():
/usr/include/c++/10/bits/basic_string.h:239
	if (!_M_is_local())
    3be7:	                                                                            48 8d 9c 24 e0 00 00 	lea    0xe0(%rsp),%rbx
    3bee:	00 
    3bef:	                                                                            48 39 df             	cmp    %rbx,%rdi
    3bf2:	                                                                        /-- 74 05                	je     3bf9 <main+0x89>
_ZN9__gnu_cxx13new_allocatorIcE10deallocateEPcm():
/usr/include/c++/10/ext/new_allocator.h:139
    3bf4:	                                                                        |   e8 d7 fa ff ff       	callq  36d0 <_ZdlPv@plt>
_ZNSt7__cxx1112basic_stringIcSt11char_traitsIcESaIcEEaSEOS4_():
/usr/include/c++/10/bits/basic_string.h:745
	    || _M_get_allocator() == __str._M_get_allocator())
	  {
	    // Just move the allocated pointer, our allocator can free it.
	    pointer __data = nullptr;
	    size_type __capacity;
	    if (!_M_is_local())
    3bf9:	                                                                        \-> 48 8d 84 24 78 01 00 	lea    0x178(%rsp),%rax
    3c00:	00 
_ZNSt7__cxx1112basic_stringIcSt11char_traitsIcESaIcEE12_M_constructIPKcEEvT_S8_St20forward_iterator_tag():
/usr/include/c++/10/bits/basic_string.tcc:219

	size_type __dnew = static_cast<size_type>(std::distance(__beg, __end));

	if (__dnew > size_type(_S_local_capacity))
	  {
	    _M_data(_M_create(__dnew, size_type(0)));
    3c01:	                                                                            4c 8d 64 24 70       	lea    0x70(%rsp),%r12
_ZNSt7__cxx1112basic_stringIcSt11char_traitsIcESaIcEEaSEOS4_():
/usr/include/c++/10/bits/basic_string.h:745
    3c06:	                                                                            48 89 44 24 08       	mov    %rax,0x8(%rsp)
_ZN5CLApp9HandleArgEaPc():
/home/aliha951/forked_gapbs/gapbs/src/command_line.h:132
    AddHelpLine('v', "", "verify the output of each run", "false");
    AddHelpLine('l', "", "log performance within each trial", "false");
  }

  void HandleArg(signed char opt, char* opt_arg) override {
    switch (opt) {
    3c0b:	                                                                            4c 8d 3d 22 fa 00 00 	lea    0xfa22(%rip),%r15        # 13634 <_IO_stdin_used+0x634>
    3c12:	                                                                            66 0f 1f 44 00 00    	nopw   0x0(%rax,%rax,1)
_ZN6CLBase9ParseArgsEv():
/home/aliha951/forked_gapbs/gapbs/src/command_line.h:72
    while ((c_opt = getopt(argc_, argv_, get_args_.c_str())) != -1) {
    3c18:	         /----------------------------------------------------------------> 48 8b 94 24 28 01 00 	mov    0x128(%rsp),%rdx
    3c1f:	00 
    3c20:	         |                                                                  48 8b b4 24 00 01 00 	mov    0x100(%rsp),%rsi
    3c27:	00 
    3c28:	         |                                                                  8b bc 24 f8 00 00 00 	mov    0xf8(%rsp),%edi
    3c2f:	         |                                                                  e8 0c f9 ff ff       	callq  3540 <getopt@plt>
    3c34:	         |                                                                  3c ff                	cmp    $0xff,%al
    3c36:	         |                                                        /-------- 0f 84 04 01 00 00    	je     3d40 <main+0x1d0>
/home/aliha951/forked_gapbs/gapbs/src/command_line.h:73
      HandleArg(c_opt, optarg);
    3c3c:	         |                                                        |         48 8b 2d fd 33 01 00 	mov    0x133fd(%rip),%rbp        # 17040 <optarg@@GLIBC_2.2.5>
_ZN10CLPageRank9HandleArgEaPc():
/home/aliha951/forked_gapbs/gapbs/src/command_line.h:188
                std::to_string(max_iters_));
    AddHelpLine('t', "t", "use tolerance t", std::to_string(tolerance_));
  }

  void HandleArg(signed char opt, char* opt_arg) override {
    switch (opt) {
    3c43:	         |                                                        |         3c 69                	cmp    $0x69,%al
    3c45:	         |                                                        |     /-- 74 21                	je     3c68 <main+0xf8>
    3c47:	         |                                                        |     |   3c 74                	cmp    $0x74,%al
    3c49:	         |                                                        |  /--|-- 74 35                	je     3c80 <main+0x110>
_ZN5CLApp9HandleArgEaPc():
/home/aliha951/forked_gapbs/gapbs/src/command_line.h:132
    switch (opt) {
    3c4b:	         |                                                        |  |  |   8d 50 9f             	lea    -0x61(%rax),%edx
    3c4e:	         |                                                        |  |  |   80 fa 15             	cmp    $0x15,%dl
    3c51:	         |                          /-----------------------------|--|--|-- 0f 87 7b 03 00 00    	ja     3fd2 <main+0x462>
    3c57:	         |                          |                             |  |  |   0f b6 d2             	movzbl %dl,%edx
    3c5a:	         |                          |                             |  |  |   49 63 14 97          	movslq (%r15,%rdx,4),%rdx
    3c5e:	         |                          |                             |  |  |   4c 01 fa             	add    %r15,%rdx
    3c61:	         |                          |                             |  |  |   3e ff e2             	notrack jmpq *%rdx
    3c64:	         |                          |                             |  |  |   0f 1f 40 00          	nopl   0x0(%rax)
main():
/usr/include/stdlib.h:363

#ifdef __USE_EXTERN_INLINES
__extern_inline int
__NTH (atoi (const char *__nptr))
{
  return (int) strtol (__nptr, (char **) NULL, 10);
    3c68:	         |                          |                             |  |  \-> ba 0a 00 00 00       	mov    $0xa,%edx
atoi():
/usr/include/stdlib.h:363
    3c6d:	         |                          |                             |  |      31 f6                	xor    %esi,%esi
    3c6f:	         |                          |                             |  |      48 89 ef             	mov    %rbp,%rdi
    3c72:	         |                          |                             |  |      e8 79 fb ff ff       	callq  37f0 <strtol@plt>
    3c77:	         |                          |                             |  |      89 84 24 9c 01 00 00 	mov    %eax,0x19c(%rsp)
_ZN10CLPageRank9HandleArgEaPc():
/home/aliha951/forked_gapbs/gapbs/src/command_line.h:189
      case 'i': max_iters_ = atoi(opt_arg);            break;
    3c7e:	         +--------------------------|-----------------------------|--|----- eb 98                	jmp    3c18 <main+0xa8>
_ZNSt7__cxx1112basic_stringIcSt11char_traitsIcESaIcEE12_Alloc_hiderC4EPcRKS3_():
/usr/include/c++/10/bits/basic_string.h:165
	: allocator_type(__a), _M_p(__dat) { }
    3c80:	         |                          |                             |  \----> 48 89 9c 24 d0 00 00 	mov    %rbx,0xd0(%rsp)
    3c87:	00 
_ZNSt7__cxx1112basic_stringIcSt11char_traitsIcESaIcEEC4EPKcRKS3_():
/usr/include/c++/10/bits/basic_string.h:536
	const _CharT* __end = __s ? __s + traits_type::length(__s)
    3c88:	         |                          |                             |         48 85 ed             	test   %rbp,%rbp
    3c8b:	/--------|--------------------------|-----------------------------|-------- 0f 84 55 08 00 00    	je     44e6 <main+0x976>
_ZNSt11char_traitsIcE6lengthEPKc():
/usr/include/c++/10/bits/char_traits.h:399
      {
#if __cplusplus >= 201703L
	if (__constant_string_p(__s))
	  return __gnu_cxx::char_traits<char_type>::length(__s);
#endif
	return __builtin_strlen(__s);
    3c91:	|        |                          |                             |         48 89 ef             	mov    %rbp,%rdi
    3c94:	|        |                          |                             |         e8 37 f9 ff ff       	callq  35d0 <strlen@plt>
_ZNSt7__cxx1112basic_stringIcSt11char_traitsIcESaIcEE12_M_constructIPKcEEvT_S8_St20forward_iterator_tag():
/usr/include/c++/10/bits/basic_string.tcc:215
	size_type __dnew = static_cast<size_type>(std::distance(__beg, __end));
    3c99:	|        |                          |                             |         48 89 44 24 70       	mov    %rax,0x70(%rsp)
_ZNSt11char_traitsIcE6lengthEPKc():
/usr/include/c++/10/bits/char_traits.h:399
    3c9e:	|        |                          |                             |         49 89 c6             	mov    %rax,%r14
_ZNSt7__cxx1112basic_stringIcSt11char_traitsIcESaIcEE12_M_constructIPKcEEvT_S8_St20forward_iterator_tag():
/usr/include/c++/10/bits/basic_string.tcc:217
	if (__dnew > size_type(_S_local_capacity))
    3ca1:	|        |                          |                             |         48 83 f8 0f          	cmp    $0xf,%rax
    3ca5:	|        |                          |           /-----------------|-------- 0f 87 e5 02 00 00    	ja     3f90 <main+0x420>
_ZNSt7__cxx1112basic_stringIcSt11char_traitsIcESaIcEE7_S_copyEPcPKcm():
/usr/include/c++/10/bits/basic_string.h:356
	if (__n == 1)
    3cab:	|        |                          |           |                 |         48 83 f8 01          	cmp    $0x1,%rax
    3caf:	|        |                          |           |  /--------------|-------- 0f 85 c3 02 00 00    	jne    3f78 <main+0x408>
_ZNSt11char_traitsIcE6assignERcRKc():
/usr/include/c++/10/bits/char_traits.h:357
      { __c1 = __c2; }
    3cb5:	|        |                          |           |  |              |         0f b6 55 00          	movzbl 0x0(%rbp),%edx
    3cb9:	|        |                          |           |  |              |         88 94 24 e0 00 00 00 	mov    %dl,0xe0(%rsp)
    3cc0:	|        |                          |           |  |              |         48 89 da             	mov    %rbx,%rdx
_ZNSt7__cxx1112basic_stringIcSt11char_traitsIcESaIcEE9_M_lengthEm():
/usr/include/c++/10/bits/basic_string.h:191
      { _M_string_length = __length; }
    3cc3:	|        |                          |        /--|--|--------------|-------> 48 89 84 24 d8 00 00 	mov    %rax,0xd8(%rsp)
    3cca:	00 
_ZNSt11char_traitsIcE6assignERcRKc():
/usr/include/c++/10/bits/char_traits.h:357
    3ccb:	|        |                          |        |  |  |              |         c6 04 02 00          	movb   $0x0,(%rdx,%rax,1)
_ZNKSt7__cxx1112basic_stringIcSt11char_traitsIcESaIcEE7_M_dataEv():
/usr/include/c++/10/bits/basic_string.h:195
      { return _M_dataplus._M_p; }
    3ccf:	|        |                          |        |  |  |              |         4c 8b b4 24 d0 00 00 	mov    0xd0(%rsp),%r14
    3cd6:	00 
_ZZN9__gnu_cxx6__stoaIddcJEEET0_PFT_PKT1_PPS3_DpT2_EPKcS5_PmS9_EN11_Save_errnoC4Ev():
/usr/include/c++/10/ext/string_conversions.h:63
	_Save_errno() : _M_errno(errno) { errno = 0; }
    3cd7:	|        |                          |        |  |  |              |         e8 34 f8 ff ff       	callq  3510 <__errno_location@plt>
_ZN9__gnu_cxx6__stoaIddcJEEET0_PFT_PKT1_PPS3_DpT2_EPKcS5_PmS9_():
/usr/include/c++/10/ext/string_conversions.h:80
	    return __val < _TRet(__numeric_traits<int>::__min)
	      || __val > _TRet(__numeric_traits<int>::__max);
	  }
      };

      const _TRet __tmp = __convf(__str, &__endptr, __base...);
    3cdc:	|        |                          |        |  |  |              |         4c 89 e6             	mov    %r12,%rsi
    3cdf:	|        |                          |        |  |  |              |         4c 89 f7             	mov    %r14,%rdi
_ZZN9__gnu_cxx6__stoaIddcJEEET0_PFT_PKT1_PPS3_DpT2_EPKcS5_PmS9_EN11_Save_errnoC4Ev():
/usr/include/c++/10/ext/string_conversions.h:63
	_Save_errno() : _M_errno(errno) { errno = 0; }
    3ce2:	|        |                          |        |  |  |              |         48 89 c5             	mov    %rax,%rbp
    3ce5:	|        |                          |        |  |  |              |         8b 00                	mov    (%rax),%eax
    3ce7:	|        |                          |        |  |  |              |         c7 45 00 00 00 00 00 	movl   $0x0,0x0(%rbp)
    3cee:	|        |                          |        |  |  |              |         89 04 24             	mov    %eax,(%rsp)
_ZN9__gnu_cxx6__stoaIddcJEEET0_PFT_PKT1_PPS3_DpT2_EPKcS5_PmS9_():
/usr/include/c++/10/ext/string_conversions.h:80
      const _TRet __tmp = __convf(__str, &__endptr, __base...);
    3cf1:	|        |                          |        |  |  |              |         e8 7a f9 ff ff       	callq  3670 <strtod@plt>
/usr/include/c++/10/ext/string_conversions.h:82

      if (__endptr == __str)
    3cf6:	|        |                          |        |  |  |              |         4c 3b 74 24 70       	cmp    0x70(%rsp),%r14
    3cfb:	|  /-----|--------------------------|--------|--|--|--------------|-------- 0f 84 cc 07 00 00    	je     44cd <main+0x95d>
/usr/include/c++/10/ext/string_conversions.h:84
	std::__throw_invalid_argument(__name);
      else if (errno == ERANGE
    3d01:	|  |     |                          |        |  |  |              |         8b 45 00             	mov    0x0(%rbp),%eax
/usr/include/c++/10/ext/string_conversions.h:85
	  || _Range_chk::_S_chk(__tmp, std::is_same<_Ret, int>{}))
    3d04:	|  |     |                          |        |  |  |              |         83 f8 22             	cmp    $0x22,%eax
    3d07:	|  |  /--|--------------------------|--------|--|--|--------------|-------- 0f 84 b4 07 00 00    	je     44c1 <main+0x951>
_ZZN9__gnu_cxx6__stoaIddcJEEET0_PFT_PKT1_PPS3_DpT2_EPKcS5_PmS9_EN11_Save_errnoD4Ev():
/usr/include/c++/10/ext/string_conversions.h:64
	~_Save_errno() { if (errno == 0) errno = _M_errno; }
    3d0d:	|  |  |  |                          |        |  |  |              |         85 c0                	test   %eax,%eax
    3d0f:	|  |  |  |                          |        |  |  |              |     /-- 75 06                	jne    3d17 <main+0x1a7>
    3d11:	|  |  |  |                          |        |  |  |              |     |   8b 04 24             	mov    (%rsp),%eax
    3d14:	|  |  |  |                          |        |  |  |              |     |   89 45 00             	mov    %eax,0x0(%rbp)
_ZNKSt7__cxx1112basic_stringIcSt11char_traitsIcESaIcEE7_M_dataEv():
/usr/include/c++/10/bits/basic_string.h:195
    3d17:	|  |  |  |                          |        |  |  |              |     \-> 48 8b bc 24 d0 00 00 	mov    0xd0(%rsp),%rdi
    3d1e:	00 
_ZN10CLPageRank9HandleArgEaPc():
/home/aliha951/forked_gapbs/gapbs/src/command_line.h:190
      case 't': tolerance_ = std::stod(opt_arg);            break;
    3d1f:	|  |  |  |                          |        |  |  |              |         f2 0f 11 84 24 a0 01 	movsd  %xmm0,0x1a0(%rsp)
    3d26:	00 00 
_ZNSt7__cxx1112basic_stringIcSt11char_traitsIcESaIcEE10_M_disposeEv():
/usr/include/c++/10/bits/basic_string.h:239
	if (!_M_is_local())
    3d28:	|  |  |  |                          |        |  |  |              |         48 39 df             	cmp    %rbx,%rdi
    3d2b:	|  |  |  +--------------------------|--------|--|--|--------------|-------- 0f 84 e7 fe ff ff    	je     3c18 <main+0xa8>
_ZN9__gnu_cxx13new_allocatorIcE10deallocateEPcm():
/usr/include/c++/10/ext/new_allocator.h:139
    3d31:	|  |  |  |  /-----------------------|--------|--|--|--------------|-------> e8 9a f9 ff ff       	callq  36d0 <_ZdlPv@plt>
_ZN6CLBase9HandleArgEaPc():
/home/aliha951/forked_gapbs/gapbs/src/command_line.h:94
  }
    3d36:	|  |  |  +--|-----------------------|--------|--|--|--------------|-------- e9 dd fe ff ff       	jmpq   3c18 <main+0xa8>
    3d3b:	|  |  |  |  |                       |        |  |  |              |         0f 1f 44 00 00       	nopl   0x0(%rax,%rax,1)
_ZSteqIcSt11char_traitsIcESaIcEEbRKNSt7__cxx1112basic_stringIT_T0_T1_EEPKS5_():
/usr/include/c++/10/bits/basic_string.h:6199
   */
  template<typename _CharT, typename _Traits, typename _Alloc>
    inline bool
    operator==(const basic_string<_CharT, _Traits, _Alloc>& __lhs,
	       const _CharT* __rhs)
    { return __lhs.compare(__rhs) == 0; }
    3d40:	|  |  |  |  |                       |        |  |  |              \-------> 48 8d bc 24 68 01 00 	lea    0x168(%rsp),%rdi
    3d47:	00 
    3d48:	|  |  |  |  |                       |        |  |  |                        48 8d 35 9d f3 00 00 	lea    0xf39d(%rip),%rsi        # 130ec <_IO_stdin_used+0xec>
    3d4f:	|  |  |  |  |                       |        |  |  |                        e8 1c f8 ff ff       	callq  3570 <_ZNKSt7__cxx1112basic_stringIcSt11char_traitsIcESaIcEE7compareEPKc@plt>
_ZN6CLBase9ParseArgsEv():
/home/aliha951/forked_gapbs/gapbs/src/command_line.h:75
    if ((filename_ == "") && (scale_ == -1)) {
    3d54:	|  |  |  |  |                       |        |  |  |                        85 c0                	test   %eax,%eax
    3d56:	|  |  |  |  |                       |        |  |  |        /-------------- 0f 84 95 02 00 00    	je     3ff1 <main+0x481>
/home/aliha951/forked_gapbs/gapbs/src/command_line.h:79
    if (scale_ != -1)
    3d5c:	|  |  |  |  |                       |        |  |  |        |               83 bc 24 60 01 00 00 	cmpl   $0xffffffff,0x160(%rsp)
    3d63:	ff 
    3d64:	|  |  |  |  |                       |        |  |  |     /--|-------------- 0f 85 99 02 00 00    	jne    4003 <main+0x493>
_ZN11BuilderBaseIiiiLb1EEC4ERK6CLBase():
/home/aliha951/forked_gapbs/gapbs/src/builder.h:50
  bool needs_weights_;
  bool in_place_ = false;
  int64_t num_nodes_ = -1;

 public:
  explicit BuilderBase(const CLBase &cli) : cli_(cli) {
    3d6a:	|  |  |  |  |                       |        |  |  |  /--|--|-------------> 48 8b 44 24 18       	mov    0x18(%rsp),%rax
main():
/home/aliha951/forked_gapbs/gapbs/src/pr.cc:102
  if (!cli.ParseArgs())
    return -1;
  Builder b(cli);
  Graph g = b.MakeGraph();
    3d6f:	|  |  |  |  |                       |        |  |  |  |  |  |               4c 8d 74 24 70       	lea    0x70(%rsp),%r14
    3d74:	|  |  |  |  |                       |        |  |  |  |  |  |               48 8d 74 24 30       	lea    0x30(%rsp),%rsi
_ZN11BuilderBaseIiiiLb1EEC4ERK6CLBase():
/home/aliha951/forked_gapbs/gapbs/src/builder.h:50
    3d79:	|  |  |  |  |                       |        |  |  |  |  |  |               48 c7 44 24 40 ff ff 	movq   $0xffffffffffffffff,0x40(%rsp)
    3d80:	ff ff 
main():
/home/aliha951/forked_gapbs/gapbs/src/pr.cc:102
    3d82:	|  |  |  |  |                       |        |  |  |  |  |  |               4c 89 f7             	mov    %r14,%rdi
_ZN11BuilderBaseIiiiLb1EEC4ERK6CLBase():
/home/aliha951/forked_gapbs/gapbs/src/builder.h:52
    symmetrize_ = cli_.symmetrize();
    needs_weights_ = !std::is_same<NodeID_, DestID_>::value;
    3d85:	|  |  |  |  |                       |        |  |  |  |  |  |               c6 44 24 39 00       	movb   $0x0,0x39(%rsp)
/home/aliha951/forked_gapbs/gapbs/src/builder.h:50
  explicit BuilderBase(const CLBase &cli) : cli_(cli) {
    3d8a:	|  |  |  |  |                       |        |  |  |  |  |  |               48 89 44 24 30       	mov    %rax,0x30(%rsp)
/home/aliha951/forked_gapbs/gapbs/src/builder.h:51
    symmetrize_ = cli_.symmetrize();
    3d8f:	|  |  |  |  |                       |        |  |  |  |  |  |               0f b6 84 24 88 01 00 	movzbl 0x188(%rsp),%eax
    3d96:	00 
    3d97:	|  |  |  |  |                       |        |  |  |  |  |  |               88 44 24 38          	mov    %al,0x38(%rsp)
/home/aliha951/forked_gapbs/gapbs/src/builder.h:53
    in_place_ = cli_.in_place();
    3d9b:	|  |  |  |  |                       |        |  |  |  |  |  |               0f b6 84 24 8a 01 00 	movzbl 0x18a(%rsp),%eax
    3da2:	00 
    3da3:	|  |  |  |  |                       |        |  |  |  |  |  |               88 44 24 3a          	mov    %al,0x3a(%rsp)
main():
/home/aliha951/forked_gapbs/gapbs/src/pr.cc:102
    3da7:	|  |  |  |  |                       |        |  |  |  |  |  |               e8 b4 c7 00 00       	callq  10560 <_ZN11BuilderBaseIiiiLb1EE9MakeGraphEv>
/home/aliha951/forked_gapbs/gapbs/src/benchmark.h:103
template<typename GraphT_, typename GraphFunc, typename AnalysisFunc,
         typename VerifierFunc>
void BenchmarkKernel(const CLApp &cli, const GraphT_ &g,
                     GraphFunc kernel, AnalysisFunc stats,
                     VerifierFunc verify) {
  g.PrintStats();
    3dac:	|  |  |  |  |                       |        |  |  |  |  |  |               4c 89 f7             	mov    %r14,%rdi
BenchmarkKernel<CSRGraph<int>, main(int, char**)::<lambda(const Graph&)>, void (*)(const CSRGraph<int>&, const pvector<float>&), main(int, char**)::<lambda(const Graph&, const pvector<float>&)> >():
/home/aliha951/forked_gapbs/gapbs/src/benchmark.h:103
    3daf:	|  |  |  |  |                       |        |  |  |  |  |  |               e8 5c 49 00 00       	callq  8710 <_ZNK8CSRGraphIiiLb1EE10PrintStatsEv>
_ZNK5CLApp10num_trialsEv():
/home/aliha951/forked_gapbs/gapbs/src/command_line.h:143
  int num_trials() const { return num_trials_; }
    3db4:	|  |  |  |  |                       |        |  |  |  |  |  |               8b 84 24 8c 01 00 00 	mov    0x18c(%rsp),%eax
BenchmarkKernel<CSRGraph<int>, main(int, char**)::<lambda(const Graph&)>, void (*)(const CSRGraph<int>&, const pvector<float>&), main(int, char**)::<lambda(const Graph&, const pvector<float>&)> >():
/home/aliha951/forked_gapbs/gapbs/src/benchmark.h:106
  double total_seconds = 0;
  Timer trial_timer;
  for (int iter=0; iter < cli.num_trials(); iter++) {
    3dbb:	|  |  |  |  |                       |        |  |  |  |  |  |               85 c0                	test   %eax,%eax
    3dbd:	|  |  |  |  |     /-----------------|--------|--|--|--|--|--|-------------- 0f 8e 8e 05 00 00    	jle    4351 <main+0x7e1>
_ZNSt7__cxx1112basic_stringIcSt11char_traitsIcESaIcEE12_Alloc_hiderC4EPcRKS3_():
/usr/include/c++/10/bits/basic_string.h:165
	: allocator_type(__a), _M_p(__dat) { }
    3dc3:	|  |  |  |  |     |                 |        |  |  |  |  |  |               48 8d 84 24 b0 00 00 	lea    0xb0(%rsp),%rax
    3dca:	00 
BenchmarkKernel<CSRGraph<int>, main(int, char**)::<lambda(const Graph&)>, void (*)(const CSRGraph<int>&, const pvector<float>&), main(int, char**)::<lambda(const Graph&, const pvector<float>&)> >():
/home/aliha951/forked_gapbs/gapbs/src/benchmark.h:104
  double total_seconds = 0;
    3dcb:	|  |  |  |  |     |                 |        |  |  |  |  |  |               66 0f ef e4          	pxor   %xmm4,%xmm4
/home/aliha951/forked_gapbs/gapbs/src/benchmark.h:106
  for (int iter=0; iter < cli.num_trials(); iter++) {
    3dcf:	|  |  |  |  |     |                 |        |  |  |  |  |  |               45 31 e4             	xor    %r12d,%r12d
_ZNSt7__cxx1112basic_stringIcSt11char_traitsIcESaIcEE12_Alloc_hiderC4EPcRKS3_():
/usr/include/c++/10/bits/basic_string.h:165
    3dd2:	|  |  |  |  |     |                 |        |  |  |  |  |  |               48 89 44 24 10       	mov    %rax,0x10(%rsp)
    3dd7:	|  |  |  |  |     |                 |        |  |  |  |  |  |               4c 8d 7c 24 50       	lea    0x50(%rsp),%r15
BenchmarkKernel<CSRGraph<int>, main(int, char**)::<lambda(const Graph&)>, void (*)(const CSRGraph<int>&, const pvector<float>&), main(int, char**)::<lambda(const Graph&, const pvector<float>&)> >():
/home/aliha951/forked_gapbs/gapbs/src/benchmark.h:104
  double total_seconds = 0;
    3ddc:	|  |  |  |  |     |                 |        |  |  |  |  |  |               f2 0f 11 24 24       	movsd  %xmm4,(%rsp)
    3de1:	|  |  |  |  |     |                 |        |  |  |  |  |  |               0f 1f 80 00 00 00 00 	nopl   0x0(%rax)
_ZN5Timer5StartEv():
/home/aliha951/forked_gapbs/gapbs/src/timer.h:23
class Timer {
 public:
  Timer() {}

  void Start() {
    elapsed_time_ = start_time_ = std::chrono::high_resolution_clock::now();
    3de8:	|  |  |  |  |     |                 |        |  |  |  |  |  |  /----------> e8 33 f7 ff ff       	callq  3520 <_ZNSt6chrono3_V212system_clock3nowEv@plt>
main():
/home/aliha951/forked_gapbs/gapbs/src/pr.cc:104
  auto PRBound = [&cli] (const Graph &g) {
    return PageRankPullGS(g, cli.max_iters(), cli.tolerance(), cli.logging_en());
    3ded:	|  |  |  |  |     |                 |        |  |  |  |  |  |  |            0f b6 8c 24 99 01 00 	movzbl 0x199(%rsp),%ecx
    3df4:	00 
operator()():
/home/aliha951/forked_gapbs/gapbs/src/pr.cc:104
    3df5:	|  |  |  |  |     |                 |        |  |  |  |  |  |  |            4c 89 f6             	mov    %r14,%rsi
    3df8:	|  |  |  |  |     |                 |        |  |  |  |  |  |  |            4c 89 ff             	mov    %r15,%rdi
    3dfb:	|  |  |  |  |     |                 |        |  |  |  |  |  |  |            f2 0f 10 84 24 a0 01 	movsd  0x1a0(%rsp),%xmm0
    3e02:	00 00 
    3e04:	|  |  |  |  |     |                 |        |  |  |  |  |  |  |            8b 94 24 9c 01 00 00 	mov    0x19c(%rsp),%edx
_ZN5Timer5StartEv():
/home/aliha951/forked_gapbs/gapbs/src/timer.h:23
    3e0b:	|  |  |  |  |     |                 |        |  |  |  |  |  |  |            48 89 c5             	mov    %rax,%rbp
operator()():
/home/aliha951/forked_gapbs/gapbs/src/pr.cc:104
    3e0e:	|  |  |  |  |     |                 |        |  |  |  |  |  |  |            e8 cd 1e 00 00       	callq  5ce0 <_Z14PageRankPullGSRK8CSRGraphIiiLb1EEidb>
_ZN5Timer4StopEv():
/home/aliha951/forked_gapbs/gapbs/src/timer.h:27
  }

  void Stop() {
    elapsed_time_ = std::chrono::high_resolution_clock::now();
    3e13:	|  |  |  |  |     |                 |        |  |  |  |  |  |  |            e8 08 f7 ff ff       	callq  3520 <_ZNSt6chrono3_V212system_clock3nowEv@plt>
_ZNSt6chrono20__duration_cast_implINS_8durationIdSt5ratioILl1ELl1EEEES2_ILl1ELl1000000000EEdLb1ELb0EE6__castIlS5_EES4_RKNS1_IT_T0_EE():
/usr/include/c++/10/chrono:214
	  static constexpr _ToDur
	  __cast(const duration<_Rep, _Period>& __d)
	  {
	    typedef typename _ToDur::rep			__to_rep;
	    return _ToDur(static_cast<__to_rep>(
	      static_cast<_CR>(__d.count()) / static_cast<_CR>(_CF::den)));
    3e18:	|  |  |  |  |     |                 |        |  |  |  |  |  |  |            66 0f ef c0          	pxor   %xmm0,%xmm0
_ZNSt7__cxx1112basic_stringIcSt11char_traitsIcESaIcEE12_Alloc_hiderC4EPcRKS3_():
/usr/include/c++/10/bits/basic_string.h:165
    3e1c:	|  |  |  |  |     |                 |        |  |  |  |  |  |  |            48 89 9c 24 d0 00 00 	mov    %rbx,0xd0(%rsp)
    3e23:	00 
BenchmarkKernel<CSRGraph<int>, main(int, char**)::<lambda(const Graph&)>, void (*)(const CSRGraph<int>&, const pvector<float>&), main(int, char**)::<lambda(const Graph&, const pvector<float>&)> >():
/home/aliha951/forked_gapbs/gapbs/src/benchmark.h:110
    trial_timer.Start();
    auto result = kernel(g);
    trial_timer.Stop();
    PrintTime("Trial Time", trial_timer.Seconds());
    3e24:	|  |  |  |  |     |                 |        |  |  |  |  |  |  |            4c 89 ef             	mov    %r13,%rdi
_ZNSt6chronomiIlSt5ratioILl1ELl1000000000EElS2_EENSt11common_typeIJNS_8durationIT_T0_EENS4_IT1_T2_EEEE4typeERKS7_RKSA_():
/usr/include/c++/10/chrono:614
		const duration<_Rep2, _Period2>& __rhs)
      {
	typedef duration<_Rep1, _Period1>			__dur1;
	typedef duration<_Rep2, _Period2>			__dur2;
	typedef typename common_type<__dur1,__dur2>::type	__cd;
	return __cd(__cd(__lhs).count() - __cd(__rhs).count());
    3e27:	|  |  |  |  |     |                 |        |  |  |  |  |  |  |            48 29 e8             	sub    %rbp,%rax
_ZNSt6chrono20__duration_cast_implINS_8durationIdSt5ratioILl1ELl1EEEES2_ILl1ELl1000000000EEdLb1ELb0EE6__castIlS5_EES4_RKNS1_IT_T0_EE():
/usr/include/c++/10/chrono:214
	      static_cast<_CR>(__d.count()) / static_cast<_CR>(_CF::den)));
    3e2a:	|  |  |  |  |     |                 |        |  |  |  |  |  |  |            f2 48 0f 2a c0       	cvtsi2sd %rax,%xmm0
    3e2f:	|  |  |  |  |     |                 |        |  |  |  |  |  |  |            f2 0f 5e 05 21 fb 00 	divsd  0xfb21(%rip),%xmm0        # 13958 <_ZZNSt8__detail18__to_chars_10_implIjEEvPcjT_E8__digits+0x258>
    3e36:	00 
_ZNSt11char_traitsIcE4copyEPcPKcm():
/usr/include/c++/10/bits/char_traits.h:437
	  return __s1;
#ifdef __cpp_lib_is_constant_evaluated
	if (std::is_constant_evaluated())
	  return __gnu_cxx::char_traits<char_type>::copy(__s1, __s2, __n);
#endif
	return static_cast<char_type*>(__builtin_memcpy(__s1, __s2, __n));
    3e37:	|  |  |  |  |     |                 |        |  |  |  |  |  |  |            48 b8 54 72 69 61 6c 	movabs $0x6954206c61697254,%rax
    3e3e:	20 54 69 
_ZNSt6chrono20__duration_cast_implINS_8durationIdSt5ratioILl1ELl1EEEES2_ILl1ELl1000000000EEdLb1ELb0EE6__castIlS5_EES4_RKNS1_IT_T0_EE():
/usr/include/c++/10/chrono:214
    3e41:	|  |  |  |  |     |                 |        |  |  |  |  |  |  |            f2 0f 11 44 24 08    	movsd  %xmm0,0x8(%rsp)
_ZNSt11char_traitsIcE4copyEPcPKcm():
/usr/include/c++/10/bits/char_traits.h:437
    3e47:	|  |  |  |  |     |                 |        |  |  |  |  |  |  |            48 89 03             	mov    %rax,(%rbx)
    3e4a:	|  |  |  |  |     |                 |        |  |  |  |  |  |  |            b8 6d 65 00 00       	mov    $0x656d,%eax
    3e4f:	|  |  |  |  |     |                 |        |  |  |  |  |  |  |            66 89 43 08          	mov    %ax,0x8(%rbx)
_ZNSt7__cxx1112basic_stringIcSt11char_traitsIcESaIcEE9_M_lengthEm():
/usr/include/c++/10/bits/basic_string.h:191
      { _M_string_length = __length; }
    3e53:	|  |  |  |  |     |                 |        |  |  |  |  |  |  |            48 c7 84 24 d8 00 00 	movq   $0xa,0xd8(%rsp)
    3e5a:	00 0a 00 00 00 
_ZNSt11char_traitsIcE6assignERcRKc():
/usr/include/c++/10/bits/char_traits.h:357
      { __c1 = __c2; }
    3e5f:	|  |  |  |  |     |                 |        |  |  |  |  |  |  |            c6 84 24 ea 00 00 00 	movb   $0x0,0xea(%rsp)
    3e66:	00 
BenchmarkKernel<CSRGraph<int>, main(int, char**)::<lambda(const Graph&)>, void (*)(const CSRGraph<int>&, const pvector<float>&), main(int, char**)::<lambda(const Graph&, const pvector<float>&)> >():
/home/aliha951/forked_gapbs/gapbs/src/benchmark.h:110
    3e67:	|  |  |  |  |     |                 |        |  |  |  |  |  |  |            e8 44 17 00 00       	callq  55b0 <_Z9PrintTimeRKNSt7__cxx1112basic_stringIcSt11char_traitsIcESaIcEEEd>
_ZNKSt7__cxx1112basic_stringIcSt11char_traitsIcESaIcEE7_M_dataEv():
/usr/include/c++/10/bits/basic_string.h:195
      { return _M_dataplus._M_p; }
    3e6c:	|  |  |  |  |     |                 |        |  |  |  |  |  |  |            48 8b bc 24 d0 00 00 	mov    0xd0(%rsp),%rdi
    3e73:	00 
_ZNSt7__cxx1112basic_stringIcSt11char_traitsIcESaIcEE10_M_disposeEv():
/usr/include/c++/10/bits/basic_string.h:239
	if (!_M_is_local())
    3e74:	|  |  |  |  |     |                 |        |  |  |  |  |  |  |            48 39 df             	cmp    %rbx,%rdi
    3e77:	|  |  |  |  |     |                 |        |  |  |  |  |  |  |        /-- 74 05                	je     3e7e <main+0x30e>
_ZN9__gnu_cxx13new_allocatorIcE10deallocateEPcm():
/usr/include/c++/10/ext/new_allocator.h:139
    3e79:	|  |  |  |  |     |                 |        |  |  |  |  |  |  |        |   e8 52 f8 ff ff       	callq  36d0 <_ZdlPv@plt>
BenchmarkKernel<CSRGraph<int>, main(int, char**)::<lambda(const Graph&)>, void (*)(const CSRGraph<int>&, const pvector<float>&), main(int, char**)::<lambda(const Graph&, const pvector<float>&)> >():
/home/aliha951/forked_gapbs/gapbs/src/benchmark.h:111
    total_seconds += trial_timer.Seconds();
    3e7e:	|  |  |  |  |     |                 |        |  |  |  |  |  |  |        \-> f2 0f 10 0c 24       	movsd  (%rsp),%xmm1
    3e83:	|  |  |  |  |     |                 |        |  |  |  |  |  |  |            f2 0f 58 4c 24 08    	addsd  0x8(%rsp),%xmm1
/home/aliha951/forked_gapbs/gapbs/src/benchmark.h:112
    if (cli.do_analysis() && (iter == (cli.num_trials()-1)))
    3e89:	|  |  |  |  |     |                 |        |  |  |  |  |  |  |            80 bc 24 8b 01 00 00 	cmpb   $0x0,0x18b(%rsp)
    3e90:	00 
/home/aliha951/forked_gapbs/gapbs/src/benchmark.h:111
    total_seconds += trial_timer.Seconds();
    3e91:	|  |  |  |  |     |                 |        |  |  |  |  |  |  |            f2 0f 11 0c 24       	movsd  %xmm1,(%rsp)
/home/aliha951/forked_gapbs/gapbs/src/benchmark.h:112
    if (cli.do_analysis() && (iter == (cli.num_trials()-1)))
    3e96:	|  |  |  |  |     |              /--|--------|--|--|--|--|--|--|----------- 74 13                	je     3eab <main+0x33b>
    3e98:	|  |  |  |  |     |              |  |        |  |  |  |  |  |  |            8b 84 24 8c 01 00 00 	mov    0x18c(%rsp),%eax
    3e9f:	|  |  |  |  |     |              |  |        |  |  |  |  |  |  |            83 e8 01             	sub    $0x1,%eax
    3ea2:	|  |  |  |  |     |              |  |        |  |  |  |  |  |  |            44 39 e0             	cmp    %r12d,%eax
    3ea5:	|  |  |  |  |     |              |  |  /-----|--|--|--|--|--|--|----------- 0f 84 45 03 00 00    	je     41f0 <main+0x680>
/home/aliha951/forked_gapbs/gapbs/src/benchmark.h:114
      stats(g, result);
    if (cli.do_verify()) {
    3eab:	|  |  |  |  |     |              >--|--|-----|--|--|--|--|--|--|----------> 80 bc 24 98 01 00 00 	cmpb   $0x0,0x198(%rsp)
    3eb2:	00 
    3eb3:	|  |  |  |  |     |              |  |  |     |  |  |  |  |  |  |  /-------- 0f 85 d7 01 00 00    	jne    4090 <main+0x520>
_ZN7pvectorIfE16ReleaseResourcesEv():
/home/aliha951/forked_gapbs/gapbs/src/pvector.h:73
    if (start_ != nullptr) {
    3eb9:	|  |  |  |  |     |              |  |  |  /--|--|--|--|--|--|--|--|-------> 48 8b 7c 24 50       	mov    0x50(%rsp),%rdi
    3ebe:	|  |  |  |  |     |              |  |  |  |  |  |  |  |  |  |  |  |         48 85 ff             	test   %rdi,%rdi
    3ec1:	|  |  |  |  |     |              |  |  |  |  |  |  |  |  |  |  |  |  /----- 0f 84 a9 01 00 00    	je     4070 <main+0x500>
/home/aliha951/forked_gapbs/gapbs/src/pvector.h:74
      delete[] start_;
    3ec7:	|  |  |  |  |     |              |  |  |  |  |  |  |  |  |  |  |  |  |      e8 e4 f8 ff ff       	callq  37b0 <_ZdaPv@plt>
_ZNK5CLApp10num_trialsEv():
/home/aliha951/forked_gapbs/gapbs/src/command_line.h:143
    3ecc:	|  |  |  |  |     |              |  |  |  |  |  |  |  |  |  |  |  |  |      8b 84 24 8c 01 00 00 	mov    0x18c(%rsp),%eax
BenchmarkKernel<CSRGraph<int>, main(int, char**)::<lambda(const Graph&)>, void (*)(const CSRGraph<int>&, const pvector<float>&), main(int, char**)::<lambda(const Graph&, const pvector<float>&)> >():
/home/aliha951/forked_gapbs/gapbs/src/benchmark.h:106
  for (int iter=0; iter < cli.num_trials(); iter++) {
    3ed3:	|  |  |  |  |     |              |  |  |  |  |  |  |  |  |  |  |  |  |      41 83 c4 01          	add    $0x1,%r12d
    3ed7:	|  |  |  |  |     |              |  |  |  |  |  |  |  |  |  |  |  |  |      44 39 e0             	cmp    %r12d,%eax
    3eda:	|  |  |  |  |     |              |  |  |  |  |  |  |  |  |  |  +--|--|----- 0f 8f 08 ff ff ff    	jg     3de8 <main+0x278>
/home/aliha951/forked_gapbs/gapbs/src/benchmark.h:122
                 verify(std::ref(g), std::ref(result)) ? "PASS" : "FAIL");
      trial_timer.Stop();
      PrintTime("Verification Time", trial_timer.Seconds());
    }
  }
  PrintTime("Average Time", total_seconds / cli.num_trials());
    3ee0:	|  |  |  |  |     |           /--|--|--|--|--|--|--|--|--|--|--|--|--|----> 66 0f ef c0          	pxor   %xmm0,%xmm0
    3ee4:	|  |  |  |  |     |           |  |  |  |  |  |  |  |  |  |  |  |  |  |      f2 0f 10 1c 24       	movsd  (%rsp),%xmm3
    3ee9:	|  |  |  |  |     |           |  |  |  |  |  |  |  |  |  |  |  |  |  |      48 8d 35 40 f2 00 00 	lea    0xf240(%rip),%rsi        # 13130 <_IO_stdin_used+0x130>
    3ef0:	|  |  |  |  |     |           |  |  |  |  |  |  |  |  |  |  |  |  |  |      4c 89 ef             	mov    %r13,%rdi
    3ef3:	|  |  |  |  |     |           |  |  |  |  |  |  |  |  |  |  |  |  |  |      f2 0f 2a c0          	cvtsi2sd %eax,%xmm0
    3ef7:	|  |  |  |  |     |           |  |  |  |  |  |  |  |  |  |  |  |  |  |      f2 0f 5e d8          	divsd  %xmm0,%xmm3
    3efb:	|  |  |  |  |     |           |  |  |  |  |  |  |  |  |  |  |  |  |  |      66 48 0f 7e dd       	movq   %xmm3,%rbp
    3f00:	|  |  |  |  |     |           |  |  |  |  |  |  |  |  |  |  |  |  |  |      e8 cb 13 00 00       	callq  52d0 <_ZNSt7__cxx1112basic_stringIcSt11char_traitsIcESaIcEEC2EPKcRKS3_.constprop.0>
    3f05:	|  |  |  |  |     |           |  |  |  |  |  |  |  |  |  |  |  |  |  |      66 48 0f 6e c5       	movq   %rbp,%xmm0
    3f0a:	|  |  |  |  |     |           |  |  |  |  |  |  |  |  |  |  |  |  |  |      4c 89 ef             	mov    %r13,%rdi
    3f0d:	|  |  |  |  |     |           |  |  |  |  |  |  |  |  |  |  |  |  |  |      e8 9e 16 00 00       	callq  55b0 <_Z9PrintTimeRKNSt7__cxx1112basic_stringIcSt11char_traitsIcESaIcEEEd>
_ZNKSt7__cxx1112basic_stringIcSt11char_traitsIcESaIcEE7_M_dataEv():
/usr/include/c++/10/bits/basic_string.h:195
      { return _M_dataplus._M_p; }
    3f12:	|  |  |  |  |     |           |  |  |  |  |  |  |  |  |  |  |  |  |  |      48 8b bc 24 d0 00 00 	mov    0xd0(%rsp),%rdi
    3f19:	00 
_ZNSt7__cxx1112basic_stringIcSt11char_traitsIcESaIcEE10_M_disposeEv():
/usr/include/c++/10/bits/basic_string.h:239
	if (!_M_is_local())
    3f1a:	|  |  |  |  |     |           |  |  |  |  |  |  |  |  |  |  |  |  |  |      48 39 df             	cmp    %rbx,%rdi
    3f1d:	|  |  |  |  |     |           |  |  |  |  |  |  |  |  |  |  |  |  |  |  /-- 74 05                	je     3f24 <main+0x3b4>
_ZN9__gnu_cxx13new_allocatorIcE10deallocateEPcm():
/usr/include/c++/10/ext/new_allocator.h:139
    3f1f:	|  |  |  |  |     |           |  |  |  |  |  |  |  |  |  |  |  |  |  |  |   e8 ac f7 ff ff       	callq  36d0 <_ZdlPv@plt>
_ZN8CSRGraphIiiLb1EED4Ev():
/home/aliha951/forked_gapbs/gapbs/src/graph.h:166
    3f24:	|  |  |  |  |     |           |  |  |  |  |  |  |  |  |  |  |  |  |  |  \-> 4c 89 f7             	mov    %r14,%rdi
main():
/home/aliha951/forked_gapbs/gapbs/src/pr.cc:110
  };
  auto VerifierBound = [&cli] (const Graph &g, const pvector<ScoreT> &scores) {
    return PRVerifier(g, scores, cli.tolerance());
  };
  BenchmarkKernel(cli, g, PRBound, PrintTopScores, VerifierBound);
  return 0;
    3f27:	|  |  |  |  |     |           |  |  |  |  |  |  |  |  |  |  |  |  |  |      45 31 e4             	xor    %r12d,%r12d
_ZN8CSRGraphIiiLb1EED4Ev():
/home/aliha951/forked_gapbs/gapbs/src/graph.h:166
    3f2a:	|  |  |  |  |     |           |  |  |  |  |  |  |  |  |  |  |  |  |  |      e8 81 47 00 00       	callq  86b0 <_ZN8CSRGraphIiiLb1EE16ReleaseResourcesEv>
_ZN5CLAppD4Ev():
/home/aliha951/forked_gapbs/gapbs/src/command_line.h:114
class CLApp : public CLBase {
    3f2f:	|  |  |  |  |     |        /--|--|--|--|--|--|--|--|--|--|--|--|--|--|----> 48 8b 7c 24 18       	mov    0x18(%rsp),%rdi
    3f34:	|  |  |  |  |     |        |  |  |  |  |  |  |  |  |  |  |  |  |  |  |      48 8d 05 15 29 01 00 	lea    0x12915(%rip),%rax        # 16850 <_ZTV5CLApp+0x10>
    3f3b:	|  |  |  |  |     |        |  |  |  |  |  |  |  |  |  |  |  |  |  |  |      48 89 84 24 f0 00 00 	mov    %rax,0xf0(%rsp)
    3f42:	00 
    3f43:	|  |  |  |  |     |        |  |  |  |  |  |  |  |  |  |  |  |  |  |  |      e8 b8 46 00 00       	callq  8600 <_ZN6CLBaseD1Ev>
main():
/home/aliha951/forked_gapbs/gapbs/src/pr.cc:111
}
    3f48:	|  |  |  |  |     |        |  |  |  |  |  |  |  |  |  |  |  |  |  |  |      48 8b 84 24 a8 01 00 	mov    0x1a8(%rsp),%rax
    3f4f:	00 
    3f50:	|  |  |  |  |     |        |  |  |  |  |  |  |  |  |  |  |  |  |  |  |      64 48 2b 04 25 28 00 	sub    %fs:0x28,%rax
    3f57:	00 00 
    3f59:	|  |  |  |  |  /--|--------|--|--|--|--|--|--|--|--|--|--|--|--|--|--|----- 0f 85 93 05 00 00    	jne    44f2 <main+0x982>
    3f5f:	|  |  |  |  |  |  |        |  |  |  |  |  |  |  |  |  |  |  |  |  |  |      48 81 c4 b8 01 00 00 	add    $0x1b8,%rsp
    3f66:	|  |  |  |  |  |  |        |  |  |  |  |  |  |  |  |  |  |  |  |  |  |      44 89 e0             	mov    %r12d,%eax
    3f69:	|  |  |  |  |  |  |        |  |  |  |  |  |  |  |  |  |  |  |  |  |  |      5b                   	pop    %rbx
    3f6a:	|  |  |  |  |  |  |        |  |  |  |  |  |  |  |  |  |  |  |  |  |  |      5d                   	pop    %rbp
    3f6b:	|  |  |  |  |  |  |        |  |  |  |  |  |  |  |  |  |  |  |  |  |  |      41 5c                	pop    %r12
    3f6d:	|  |  |  |  |  |  |        |  |  |  |  |  |  |  |  |  |  |  |  |  |  |      41 5d                	pop    %r13
    3f6f:	|  |  |  |  |  |  |        |  |  |  |  |  |  |  |  |  |  |  |  |  |  |      41 5e                	pop    %r14
    3f71:	|  |  |  |  |  |  |        |  |  |  |  |  |  |  |  |  |  |  |  |  |  |      41 5f                	pop    %r15
    3f73:	|  |  |  |  |  |  |        |  |  |  |  |  |  |  |  |  |  |  |  |  |  |      c3                   	retq   
    3f74:	|  |  |  |  |  |  |        |  |  |  |  |  |  |  |  |  |  |  |  |  |  |      0f 1f 40 00          	nopl   0x0(%rax)
_ZNSt11char_traitsIcE4copyEPcPKcm():
/usr/include/c++/10/bits/char_traits.h:431
	if (__n == 0)
    3f78:	|  |  |  |  |  |  |        |  |  |  |  |  |  |  |  \--|--|--|--|--|--|----> 48 85 c0             	test   %rax,%rax
    3f7b:	|  |  |  |  |  |  |  /-----|--|--|--|--|--|--|--|-----|--|--|--|--|--|----- 0f 85 5d 05 00 00    	jne    44de <main+0x96e>
    3f81:	|  |  |  |  |  |  |  |     |  |  |  |  |  |  |  |     |  |  |  |  |  |      48 89 da             	mov    %rbx,%rdx
    3f84:	|  |  |  |  |  |  |  |     |  |  |  |  |  |  +--|-----|--|--|--|--|--|----- e9 3a fd ff ff       	jmpq   3cc3 <main+0x153>
    3f89:	|  |  |  |  |  |  |  |     |  |  |  |  |  |  |  |     |  |  |  |  |  |      0f 1f 80 00 00 00 00 	nopl   0x0(%rax)
_ZNSt7__cxx1112basic_stringIcSt11char_traitsIcESaIcEE12_M_constructIPKcEEvT_S8_St20forward_iterator_tag():
/usr/include/c++/10/bits/basic_string.tcc:219
	    _M_data(_M_create(__dnew, size_type(0)));
    3f90:	|  |  |  |  |  |  |  |     |  |  |  |  |  |  |  \-----|--|--|--|--|--|----> 31 d2                	xor    %edx,%edx
    3f92:	|  |  |  |  |  |  |  |     |  |  |  |  |  |  |        |  |  |  |  |  |      4c 89 e6             	mov    %r12,%rsi
    3f95:	|  |  |  |  |  |  |  |     |  |  |  |  |  |  |        |  |  |  |  |  |      4c 89 ef             	mov    %r13,%rdi
    3f98:	|  |  |  |  |  |  |  |     |  |  |  |  |  |  |        |  |  |  |  |  |      e8 73 f9 ff ff       	callq  3910 <_ZNSt7__cxx1112basic_stringIcSt11char_traitsIcESaIcEE9_M_createERmm@plt>
_ZNSt7__cxx1112basic_stringIcSt11char_traitsIcESaIcEE7_M_dataEPc():
/usr/include/c++/10/bits/basic_string.h:187
      { _M_dataplus._M_p = __p; }
    3f9d:	|  |  |  |  |  |  |  |     |  |  |  |  |  |  |        |  |  |  |  |  |      48 89 84 24 d0 00 00 	mov    %rax,0xd0(%rsp)
    3fa4:	00 
_ZNSt7__cxx1112basic_stringIcSt11char_traitsIcESaIcEE12_M_constructIPKcEEvT_S8_St20forward_iterator_tag():
/usr/include/c++/10/bits/basic_string.tcc:219
    3fa5:	|  |  |  |  |  |  |  |     |  |  |  |  |  |  |        |  |  |  |  |  |      48 89 c7             	mov    %rax,%rdi
_ZNSt7__cxx1112basic_stringIcSt11char_traitsIcESaIcEE11_M_capacityEm():
/usr/include/c++/10/bits/basic_string.h:219
      { _M_allocated_capacity = __capacity; }
    3fa8:	|  |  |  |  |  |  |  |     |  |  |  |  |  |  |        |  |  |  |  |  |      48 8b 44 24 70       	mov    0x70(%rsp),%rax
    3fad:	|  |  |  |  |  |  |  |     |  |  |  |  |  |  |        |  |  |  |  |  |      48 89 84 24 e0 00 00 	mov    %rax,0xe0(%rsp)
    3fb4:	00 
_ZNSt11char_traitsIcE4copyEPcPKcm():
/usr/include/c++/10/bits/char_traits.h:437
	return static_cast<char_type*>(__builtin_memcpy(__s1, __s2, __n));
    3fb5:	|  |  |  |  |  |  |  |  /--|--|--|--|--|--|--|--------|--|--|--|--|--|----> 4c 89 f2             	mov    %r14,%rdx
    3fb8:	|  |  |  |  |  |  |  |  |  |  |  |  |  |  |  |        |  |  |  |  |  |      48 89 ee             	mov    %rbp,%rsi
    3fbb:	|  |  |  |  |  |  |  |  |  |  |  |  |  |  |  |        |  |  |  |  |  |      e8 d0 f6 ff ff       	callq  3690 <memcpy@plt>
_ZNSt7__cxx1112basic_stringIcSt11char_traitsIcESaIcEE12_M_constructIPKcEEvT_S8_St20forward_iterator_tag():
/usr/include/c++/10/bits/basic_string.tcc:232
	  {
	    _M_dispose();
	    __throw_exception_again;
	  }

	_M_set_length(__dnew);
    3fc0:	|  |  |  |  |  |  |  |  |  |  |  |  |  |  |  |        |  |  |  |  |  |      48 8b 44 24 70       	mov    0x70(%rsp),%rax
_ZNKSt7__cxx1112basic_stringIcSt11char_traitsIcESaIcEE7_M_dataEv():
/usr/include/c++/10/bits/basic_string.h:195
      { return _M_dataplus._M_p; }
    3fc5:	|  |  |  |  |  |  |  |  |  |  |  |  |  |  |  |        |  |  |  |  |  |      48 8b 94 24 d0 00 00 	mov    0xd0(%rsp),%rdx
    3fcc:	00 
_ZNSt11char_traitsIcE4copyEPcPKcm():
/usr/include/c++/10/bits/char_traits.h:437
    3fcd:	|  |  |  |  |  |  |  |  |  |  |  |  |  |  |  \--------|--|--|--|--|--|----- e9 f1 fc ff ff       	jmpq   3cc3 <main+0x153>
_ZN6CLBase9HandleArgEaPc():
/home/aliha951/forked_gapbs/gapbs/src/command_line.h:85
    switch (opt) {
    3fd2:	|  |  |  |  |  |  |  |  |  |  |  |  \--|--|-----------|--|--|--|--|--|----> 83 e8 66             	sub    $0x66,%eax
    3fd5:	|  |  |  |  |  |  |  |  |  |  |  |     |  |           |  |  |  |  |  |      3c 0f                	cmp    $0xf,%al
    3fd7:	|  |  |  +--|--|--|--|--|--|--|--|-----|--|-----------|--|--|--|--|--|----- 0f 87 3b fc ff ff    	ja     3c18 <main+0xa8>
    3fdd:	|  |  |  |  |  |  |  |  |  |  |  |     |  |           |  |  |  |  |  |      48 8d 0d a8 f6 00 00 	lea    0xf6a8(%rip),%rcx        # 1368c <_IO_stdin_used+0x68c>
    3fe4:	|  |  |  |  |  |  |  |  |  |  |  |     |  |           |  |  |  |  |  |      0f b6 c0             	movzbl %al,%eax
    3fe7:	|  |  |  |  |  |  |  |  |  |  |  |     |  |           |  |  |  |  |  |      48 63 04 81          	movslq (%rcx,%rax,4),%rax
    3feb:	|  |  |  |  |  |  |  |  |  |  |  |     |  |           |  |  |  |  |  |      48 01 c8             	add    %rcx,%rax
    3fee:	|  |  |  |  |  |  |  |  |  |  |  |     |  |           |  |  |  |  |  |      3e ff e0             	notrack jmpq *%rax
_ZN6CLBase9ParseArgsEv():
/home/aliha951/forked_gapbs/gapbs/src/command_line.h:75
    if ((filename_ == "") && (scale_ == -1)) {
    3ff1:	|  |  |  |  |  |  |  |  |  |  |  |     |  |           |  |  \--|--|--|----> 44 8b a4 24 60 01 00 	mov    0x160(%rsp),%r12d
    3ff8:	00 
    3ff9:	|  |  |  |  |  |  |  |  |  |  |  |     |  |           |  |     |  |  |      41 83 fc ff          	cmp    $0xffffffff,%r12d
    3ffd:	|  |  |  |  |  |  |  |  |  |  |  |  /--|--|-----------|--|-----|--|--|----- 0f 84 5c 03 00 00    	je     435f <main+0x7ef>
/home/aliha951/forked_gapbs/gapbs/src/command_line.h:80
      symmetrize_ = true;
    4003:	|  |  |  |  |  |  |  |  |  |  |  |  |  |  |           |  \-----|--|--|----> c6 84 24 88 01 00 00 	movb   $0x1,0x188(%rsp)
    400a:	01 
/home/aliha951/forked_gapbs/gapbs/src/command_line.h:77
      return false;
    400b:	|  |  |  |  |  |  |  |  |  |  |  |  |  |  |           \--------|--|--|----- e9 5a fd ff ff       	jmpq   3d6a <main+0x1fa>
_ZN5CLApp9HandleArgEaPc():
/home/aliha951/forked_gapbs/gapbs/src/command_line.h:136
      case 'v': do_verify_ = true;                      break;
    4010:	|  |  |  |  |  |  |  |  |  |  |  |  |  |  |                    |  |  |      c6 84 24 98 01 00 00 	movb   $0x1,0x198(%rsp)
    4017:	01 
    4018:	|  |  |  +--|--|--|--|--|--|--|--|--|--|--|--------------------|--|--|----- e9 fb fb ff ff       	jmpq   3c18 <main+0xa8>
main():
/usr/include/stdlib.h:368
}
__extern_inline long int
__NTH (atol (const char *__nptr))
{
  return strtol (__nptr, (char **) NULL, 10);
    401d:	|  |  |  |  |  |  |  |  |  |  |  |  |  |  |                    |  |  |      ba 0a 00 00 00       	mov    $0xa,%edx
atol():
/usr/include/stdlib.h:368
    4022:	|  |  |  |  |  |  |  |  |  |  |  |  |  |  |                    |  |  |      31 f6                	xor    %esi,%esi
    4024:	|  |  |  |  |  |  |  |  |  |  |  |  |  |  |                    |  |  |      48 89 ef             	mov    %rbp,%rdi
    4027:	|  |  |  |  |  |  |  |  |  |  |  |  |  |  |                    |  |  |      e8 c4 f7 ff ff       	callq  37f0 <strtol@plt>
_ZN5CLApp9HandleArgEaPc():
/home/aliha951/forked_gapbs/gapbs/src/command_line.h:135
      case 'r': start_vertex_ = atol(opt_arg);          break;
    402c:	|  |  |  |  |  |  |  |  |  |  |  |  |  |  |                    |  |  |      48 89 84 24 90 01 00 	mov    %rax,0x190(%rsp)
    4033:	00 
    4034:	|  |  |  +--|--|--|--|--|--|--|--|--|--|--|--------------------|--|--|----- e9 df fb ff ff       	jmpq   3c18 <main+0xa8>
main():
/usr/include/stdlib.h:363
  return (int) strtol (__nptr, (char **) NULL, 10);
    4039:	|  |  |  |  |  |  |  |  |  |  |  |  |  |  |                    |  |  |      ba 0a 00 00 00       	mov    $0xa,%edx
atoi():
/usr/include/stdlib.h:363
    403e:	|  |  |  |  |  |  |  |  |  |  |  |  |  |  |                    |  |  |      31 f6                	xor    %esi,%esi
    4040:	|  |  |  |  |  |  |  |  |  |  |  |  |  |  |                    |  |  |      48 89 ef             	mov    %rbp,%rdi
    4043:	|  |  |  |  |  |  |  |  |  |  |  |  |  |  |                    |  |  |      e8 a8 f7 ff ff       	callq  37f0 <strtol@plt>
    4048:	|  |  |  |  |  |  |  |  |  |  |  |  |  |  |                    |  |  |      89 84 24 8c 01 00 00 	mov    %eax,0x18c(%rsp)
_ZN5CLApp9HandleArgEaPc():
/home/aliha951/forked_gapbs/gapbs/src/command_line.h:134
      case 'n': num_trials_ = atoi(opt_arg);            break;
    404f:	|  |  |  +--|--|--|--|--|--|--|--|--|--|--|--------------------|--|--|----- e9 c4 fb ff ff       	jmpq   3c18 <main+0xa8>
/home/aliha951/forked_gapbs/gapbs/src/command_line.h:137
      case 'l': enable_logging_ = true;                 break;
    4054:	|  |  |  |  |  |  |  |  |  |  |  |  |  |  |                    |  |  |      c6 84 24 99 01 00 00 	movb   $0x1,0x199(%rsp)
    405b:	01 
    405c:	|  |  |  +--|--|--|--|--|--|--|--|--|--|--|--------------------|--|--|----- e9 b7 fb ff ff       	jmpq   3c18 <main+0xa8>
/home/aliha951/forked_gapbs/gapbs/src/command_line.h:133
      case 'a': do_analysis_ = true;                    break;
    4061:	|  |  |  |  |  |  |  |  |  |  |  |  |  |  |                    |  |  |      c6 84 24 8b 01 00 00 	movb   $0x1,0x18b(%rsp)
    4068:	01 
    4069:	|  |  |  +--|--|--|--|--|--|--|--|--|--|--|--------------------|--|--|----- e9 aa fb ff ff       	jmpq   3c18 <main+0xa8>
    406e:	|  |  |  |  |  |  |  |  |  |  |  |  |  |  |                    |  |  |      66 90                	xchg   %ax,%ax
_ZNK5CLApp10num_trialsEv():
/home/aliha951/forked_gapbs/gapbs/src/command_line.h:143
  int num_trials() const { return num_trials_; }
    4070:	|  |  |  |  |  |  |  |  |  |  |  |  |  |  |                    |  |  \----> 8b 84 24 8c 01 00 00 	mov    0x18c(%rsp),%eax
BenchmarkKernel<CSRGraph<int>, main(int, char**)::<lambda(const Graph&)>, void (*)(const CSRGraph<int>&, const pvector<float>&), main(int, char**)::<lambda(const Graph&, const pvector<float>&)> >():
/home/aliha951/forked_gapbs/gapbs/src/benchmark.h:106
  for (int iter=0; iter < cli.num_trials(); iter++) {
    4077:	|  |  |  |  |  |  |  |  |  |  |  |  |  |  |                    |  |         41 83 c4 01          	add    $0x1,%r12d
    407b:	|  |  |  |  |  |  |  |  |  |  |  |  |  |  |                    |  |         44 39 e0             	cmp    %r12d,%eax
    407e:	|  |  |  |  |  |  |  |  |  |  |  |  |  |  |                    \--|-------- 0f 8f 64 fd ff ff    	jg     3de8 <main+0x278>
    4084:	|  |  |  |  |  |  |  |  |  |  +--|--|--|--|-----------------------|-------- e9 57 fe ff ff       	jmpq   3ee0 <main+0x370>
    4089:	|  |  |  |  |  |  |  |  |  |  |  |  |  |  |                       |         0f 1f 80 00 00 00 00 	nopl   0x0(%rax)
_ZN5Timer5StartEv():
/home/aliha951/forked_gapbs/gapbs/src/timer.h:23
    elapsed_time_ = start_time_ = std::chrono::high_resolution_clock::now();
    4090:	|  |  |  |  |  |  |  |  |  |  |  |  |  |  |                       \-------> e8 8b f4 ff ff       	callq  3520 <_ZNSt6chrono3_V212system_clock3nowEv@plt>
main():
/home/aliha951/forked_gapbs/gapbs/src/pr.cc:107
    return PRVerifier(g, scores, cli.tolerance());
    4095:	|  |  |  |  |  |  |  |  |  |  |  |  |  |  |                                 4c 89 fe             	mov    %r15,%rsi
operator()():
/home/aliha951/forked_gapbs/gapbs/src/pr.cc:107
    4098:	|  |  |  |  |  |  |  |  |  |  |  |  |  |  |                                 4c 89 f7             	mov    %r14,%rdi
    409b:	|  |  |  |  |  |  |  |  |  |  |  |  |  |  |                                 f2 0f 10 84 24 a0 01 	movsd  0x1a0(%rsp),%xmm0
    40a2:	00 00 
_ZN5Timer5StartEv():
/home/aliha951/forked_gapbs/gapbs/src/timer.h:23
    40a4:	|  |  |  |  |  |  |  |  |  |  |  |  |  |  |                                 48 89 44 24 08       	mov    %rax,0x8(%rsp)
operator()():
/home/aliha951/forked_gapbs/gapbs/src/pr.cc:107
    40a9:	|  |  |  |  |  |  |  |  |  |  |  |  |  |  |                                 e8 62 20 00 00       	callq  6110 <_Z10PRVerifierRK8CSRGraphIiiLb1EERK7pvectorIfEd>
BenchmarkKernel<CSRGraph<int>, main(int, char**)::<lambda(const Graph&)>, void (*)(const CSRGraph<int>&, const pvector<float>&), main(int, char**)::<lambda(const Graph&, const pvector<float>&)> >():
/home/aliha951/forked_gapbs/gapbs/src/benchmark.h:116
      PrintLabel("Verification",
    40ae:	|  |  |  |  |  |  |  |  |  |  |  |  |  |  |                                 3c 01                	cmp    $0x1,%al
    40b0:	|  |  |  |  |  |  |  |  |  |  |  |  |  |  |                                 48 8b 74 24 10       	mov    0x10(%rsp),%rsi
    40b5:	|  |  |  |  |  |  |  |  |  |  |  |  |  |  |                                 4c 89 ef             	mov    %r13,%rdi
_ZNSt7__cxx1112basic_stringIcSt11char_traitsIcESaIcEE12_Alloc_hiderC4EPcRKS3_():
/usr/include/c++/10/bits/basic_string.h:165
	: allocator_type(__a), _M_p(__dat) { }
    40b8:	|  |  |  |  |  |  |  |  |  |  |  |  |  |  |                                 48 89 9c 24 d0 00 00 	mov    %rbx,0xd0(%rsp)
    40bf:	00 
BenchmarkKernel<CSRGraph<int>, main(int, char**)::<lambda(const Graph&)>, void (*)(const CSRGraph<int>&, const pvector<float>&), main(int, char**)::<lambda(const Graph&, const pvector<float>&)> >():
/home/aliha951/forked_gapbs/gapbs/src/benchmark.h:116
    40c0:	|  |  |  |  |  |  |  |  |  |  |  |  |  |  |                                 19 c0                	sbb    %eax,%eax
_ZNSt11char_traitsIcE4copyEPcPKcm():
/usr/include/c++/10/bits/char_traits.h:437
    40c2:	|  |  |  |  |  |  |  |  |  |  |  |  |  |  |                                 c7 43 08 74 69 6f 6e 	movl   $0x6e6f6974,0x8(%rbx)
_ZNSt7__cxx1112basic_stringIcSt11char_traitsIcESaIcEE12_Alloc_hiderC4EPcRKS3_():
/usr/include/c++/10/bits/basic_string.h:165
    40c9:	|  |  |  |  |  |  |  |  |  |  |  |  |  |  |                                 48 8d ac 24 c0 00 00 	lea    0xc0(%rsp),%rbp
    40d0:	00 
BenchmarkKernel<CSRGraph<int>, main(int, char**)::<lambda(const Graph&)>, void (*)(const CSRGraph<int>&, const pvector<float>&), main(int, char**)::<lambda(const Graph&, const pvector<float>&)> >():
/home/aliha951/forked_gapbs/gapbs/src/benchmark.h:116
    40d1:	|  |  |  |  |  |  |  |  |  |  |  |  |  |  |                                 25 f6 ff f5 f8       	and    $0xf8f5fff6,%eax
_ZNSt7__cxx1112basic_stringIcSt11char_traitsIcESaIcEE12_Alloc_hiderC4EPcRKS3_():
/usr/include/c++/10/bits/basic_string.h:165
    40d6:	|  |  |  |  |  |  |  |  |  |  |  |  |  |  |                                 48 89 ac 24 b0 00 00 	mov    %rbp,0xb0(%rsp)
    40dd:	00 
BenchmarkKernel<CSRGraph<int>, main(int, char**)::<lambda(const Graph&)>, void (*)(const CSRGraph<int>&, const pvector<float>&), main(int, char**)::<lambda(const Graph&, const pvector<float>&)> >():
/home/aliha951/forked_gapbs/gapbs/src/benchmark.h:116
    40de:	|  |  |  |  |  |  |  |  |  |  |  |  |  |  |                                 05 50 41 53 53       	add    $0x53534150,%eax
_ZNSt11char_traitsIcE6assignERcRKc():
/usr/include/c++/10/bits/char_traits.h:357
      { __c1 = __c2; }
    40e3:	|  |  |  |  |  |  |  |  |  |  |  |  |  |  |                                 c6 84 24 c4 00 00 00 	movb   $0x0,0xc4(%rsp)
    40ea:	00 
_ZNSt11char_traitsIcE4copyEPcPKcm():
/usr/include/c++/10/bits/char_traits.h:437
	return static_cast<char_type*>(__builtin_memcpy(__s1, __s2, __n));
    40eb:	|  |  |  |  |  |  |  |  |  |  |  |  |  |  |                                 89 84 24 c0 00 00 00 	mov    %eax,0xc0(%rsp)
    40f2:	|  |  |  |  |  |  |  |  |  |  |  |  |  |  |                                 48 b8 56 65 72 69 66 	movabs $0x6163696669726556,%rax
    40f9:	69 63 61 
    40fc:	|  |  |  |  |  |  |  |  |  |  |  |  |  |  |                                 48 89 03             	mov    %rax,(%rbx)
_ZNSt7__cxx1112basic_stringIcSt11char_traitsIcESaIcEE9_M_lengthEm():
/usr/include/c++/10/bits/basic_string.h:191
      { _M_string_length = __length; }
    40ff:	|  |  |  |  |  |  |  |  |  |  |  |  |  |  |                                 48 c7 84 24 b8 00 00 	movq   $0x4,0xb8(%rsp)
    4106:	00 04 00 00 00 
    410b:	|  |  |  |  |  |  |  |  |  |  |  |  |  |  |                                 48 c7 84 24 d8 00 00 	movq   $0xc,0xd8(%rsp)
    4112:	00 0c 00 00 00 
_ZNSt11char_traitsIcE6assignERcRKc():
/usr/include/c++/10/bits/char_traits.h:357
      { __c1 = __c2; }
    4117:	|  |  |  |  |  |  |  |  |  |  |  |  |  |  |                                 c6 84 24 ec 00 00 00 	movb   $0x0,0xec(%rsp)
    411e:	00 
BenchmarkKernel<CSRGraph<int>, main(int, char**)::<lambda(const Graph&)>, void (*)(const CSRGraph<int>&, const pvector<float>&), main(int, char**)::<lambda(const Graph&, const pvector<float>&)> >():
/home/aliha951/forked_gapbs/gapbs/src/benchmark.h:116
    411f:	|  |  |  |  |  |  |  |  |  |  |  |  |  |  |                                 e8 1c 13 00 00       	callq  5440 <_Z10PrintLabelRKNSt7__cxx1112basic_stringIcSt11char_traitsIcESaIcEEES6_>
_ZNKSt7__cxx1112basic_stringIcSt11char_traitsIcESaIcEE7_M_dataEv():
/usr/include/c++/10/bits/basic_string.h:195
      { return _M_dataplus._M_p; }
    4124:	|  |  |  |  |  |  |  |  |  |  |  |  |  |  |                                 48 8b bc 24 d0 00 00 	mov    0xd0(%rsp),%rdi
    412b:	00 
_ZNSt7__cxx1112basic_stringIcSt11char_traitsIcESaIcEE10_M_disposeEv():
/usr/include/c++/10/bits/basic_string.h:239
	if (!_M_is_local())
    412c:	|  |  |  |  |  |  |  |  |  |  |  |  |  |  |                                 48 39 df             	cmp    %rbx,%rdi
    412f:	|  |  |  |  |  |  |  |  |  |  |  |  |  |  |                             /-- 74 05                	je     4136 <main+0x5c6>
_ZN9__gnu_cxx13new_allocatorIcE10deallocateEPcm():
/usr/include/c++/10/ext/new_allocator.h:139
    4131:	|  |  |  |  |  |  |  |  |  |  |  |  |  |  |                             |   e8 9a f5 ff ff       	callq  36d0 <_ZdlPv@plt>
_ZNKSt7__cxx1112basic_stringIcSt11char_traitsIcESaIcEE7_M_dataEv():
/usr/include/c++/10/bits/basic_string.h:195
      { return _M_dataplus._M_p; }
    4136:	|  |  |  |  |  |  |  |  |  |  |  |  |  |  |                             \-> 48 8b bc 24 b0 00 00 	mov    0xb0(%rsp),%rdi
    413d:	00 
_ZNSt7__cxx1112basic_stringIcSt11char_traitsIcESaIcEE10_M_disposeEv():
/usr/include/c++/10/bits/basic_string.h:239
	if (!_M_is_local())
    413e:	|  |  |  |  |  |  |  |  |  |  |  |  |  |  |                                 48 39 ef             	cmp    %rbp,%rdi
    4141:	|  |  |  |  |  |  |  |  |  |  |  |  |  |  |                             /-- 74 05                	je     4148 <main+0x5d8>
_ZN9__gnu_cxx13new_allocatorIcE10deallocateEPcm():
/usr/include/c++/10/ext/new_allocator.h:139
    4143:	|  |  |  |  |  |  |  |  |  |  |  |  |  |  |                             |   e8 88 f5 ff ff       	callq  36d0 <_ZdlPv@plt>
_ZN5Timer4StopEv():
/home/aliha951/forked_gapbs/gapbs/src/timer.h:27
    elapsed_time_ = std::chrono::high_resolution_clock::now();
    4148:	|  |  |  |  |  |  |  |  |  |  |  |  |  |  |                             \-> e8 d3 f3 ff ff       	callq  3520 <_ZNSt6chrono3_V212system_clock3nowEv@plt>
_ZNSt6chrono20__duration_cast_implINS_8durationIdSt5ratioILl1ELl1EEEES2_ILl1ELl1000000000EEdLb1ELb0EE6__castIlS5_EES4_RKNS1_IT_T0_EE():
/usr/include/c++/10/chrono:214
    414d:	|  |  |  |  |  |  |  |  |  |  |  |  |  |  |                                 66 0f ef c0          	pxor   %xmm0,%xmm0
_ZNSt6chronomiIlSt5ratioILl1ELl1000000000EElS2_EENSt11common_typeIJNS_8durationIT_T0_EENS4_IT1_T2_EEEE4typeERKS7_RKSA_():
/usr/include/c++/10/chrono:614
	return __cd(__cd(__lhs).count() - __cd(__rhs).count());
    4151:	|  |  |  |  |  |  |  |  |  |  |  |  |  |  |                                 48 2b 44 24 08       	sub    0x8(%rsp),%rax
_ZNSt7__cxx1112basic_stringIcSt11char_traitsIcESaIcEE12_M_constructIPKcEEvT_S8_St20forward_iterator_tag():
/usr/include/c++/10/bits/basic_string.tcc:219
	    _M_data(_M_create(__dnew, size_type(0)));
    4156:	|  |  |  |  |  |  |  |  |  |  |  |  |  |  |                                 31 d2                	xor    %edx,%edx
    4158:	|  |  |  |  |  |  |  |  |  |  |  |  |  |  |                                 48 8d 74 24 28       	lea    0x28(%rsp),%rsi
    415d:	|  |  |  |  |  |  |  |  |  |  |  |  |  |  |                                 4c 89 ef             	mov    %r13,%rdi
_ZNSt7__cxx1112basic_stringIcSt11char_traitsIcESaIcEE12_Alloc_hiderC4EPcRKS3_():
/usr/include/c++/10/bits/basic_string.h:165
	: allocator_type(__a), _M_p(__dat) { }
    4160:	|  |  |  |  |  |  |  |  |  |  |  |  |  |  |                                 48 89 9c 24 d0 00 00 	mov    %rbx,0xd0(%rsp)
    4167:	00 
_ZNSt7__cxx1112basic_stringIcSt11char_traitsIcESaIcEE12_M_constructIPKcEEvT_S8_St20forward_iterator_tag():
/usr/include/c++/10/bits/basic_string.tcc:215
	size_type __dnew = static_cast<size_type>(std::distance(__beg, __end));
    4168:	|  |  |  |  |  |  |  |  |  |  |  |  |  |  |                                 48 c7 44 24 28 11 00 	movq   $0x11,0x28(%rsp)
    416f:	00 00 
_ZNSt6chrono20__duration_cast_implINS_8durationIdSt5ratioILl1ELl1EEEES2_ILl1ELl1000000000EEdLb1ELb0EE6__castIlS5_EES4_RKNS1_IT_T0_EE():
/usr/include/c++/10/chrono:214
	      static_cast<_CR>(__d.count()) / static_cast<_CR>(_CF::den)));
    4171:	|  |  |  |  |  |  |  |  |  |  |  |  |  |  |                                 f2 48 0f 2a c0       	cvtsi2sd %rax,%xmm0
    4176:	|  |  |  |  |  |  |  |  |  |  |  |  |  |  |                                 f2 0f 5e 05 da f7 00 	divsd  0xf7da(%rip),%xmm0        # 13958 <_ZZNSt8__detail18__to_chars_10_implIjEEvPcjT_E8__digits+0x258>
    417d:	00 
    417e:	|  |  |  |  |  |  |  |  |  |  |  |  |  |  |                                 66 48 0f 7e c5       	movq   %xmm0,%rbp
_ZNSt7__cxx1112basic_stringIcSt11char_traitsIcESaIcEE12_M_constructIPKcEEvT_S8_St20forward_iterator_tag():
/usr/include/c++/10/bits/basic_string.tcc:219
	    _M_data(_M_create(__dnew, size_type(0)));
    4183:	|  |  |  |  |  |  |  |  |  |  |  |  |  |  |                                 e8 88 f7 ff ff       	callq  3910 <_ZNSt7__cxx1112basic_stringIcSt11char_traitsIcESaIcEE9_M_createERmm@plt>
_ZNSt7__cxx1112basic_stringIcSt11char_traitsIcESaIcEE11_M_capacityEm():
/usr/include/c++/10/bits/basic_string.h:219
      { _M_allocated_capacity = __capacity; }
    4188:	|  |  |  |  |  |  |  |  |  |  |  |  |  |  |                                 48 8b 54 24 28       	mov    0x28(%rsp),%rdx
_ZNSt11char_traitsIcE4copyEPcPKcm():
/usr/include/c++/10/bits/char_traits.h:437
	return static_cast<char_type*>(__builtin_memcpy(__s1, __s2, __n));
    418d:	|  |  |  |  |  |  |  |  |  |  |  |  |  |  |                                 66 0f 6f 05 9b f7 00 	movdqa 0xf79b(%rip),%xmm0        # 13930 <_ZZNSt8__detail18__to_chars_10_implIjEEvPcjT_E8__digits+0x230>
    4194:	00 
_ZNSt7__cxx1112basic_stringIcSt11char_traitsIcESaIcEE7_M_dataEPc():
/usr/include/c++/10/bits/basic_string.h:187
      { _M_dataplus._M_p = __p; }
    4195:	|  |  |  |  |  |  |  |  |  |  |  |  |  |  |                                 48 89 84 24 d0 00 00 	mov    %rax,0xd0(%rsp)
    419c:	00 
BenchmarkKernel<CSRGraph<int>, main(int, char**)::<lambda(const Graph&)>, void (*)(const CSRGraph<int>&, const pvector<float>&), main(int, char**)::<lambda(const Graph&, const pvector<float>&)> >():
/home/aliha951/forked_gapbs/gapbs/src/benchmark.h:119
      PrintTime("Verification Time", trial_timer.Seconds());
    419d:	|  |  |  |  |  |  |  |  |  |  |  |  |  |  |                                 4c 89 ef             	mov    %r13,%rdi
_ZNSt7__cxx1112basic_stringIcSt11char_traitsIcESaIcEE11_M_capacityEm():
/usr/include/c++/10/bits/basic_string.h:219
      { _M_allocated_capacity = __capacity; }
    41a0:	|  |  |  |  |  |  |  |  |  |  |  |  |  |  |                                 48 89 94 24 e0 00 00 	mov    %rdx,0xe0(%rsp)
    41a7:	00 
_ZNSt11char_traitsIcE4copyEPcPKcm():
/usr/include/c++/10/bits/char_traits.h:437
    41a8:	|  |  |  |  |  |  |  |  |  |  |  |  |  |  |                                 0f 11 00             	movups %xmm0,(%rax)
BenchmarkKernel<CSRGraph<int>, main(int, char**)::<lambda(const Graph&)>, void (*)(const CSRGraph<int>&, const pvector<float>&), main(int, char**)::<lambda(const Graph&, const pvector<float>&)> >():
/home/aliha951/forked_gapbs/gapbs/src/benchmark.h:119
    41ab:	|  |  |  |  |  |  |  |  |  |  |  |  |  |  |                                 66 48 0f 6e c5       	movq   %rbp,%xmm0
_ZNSt11char_traitsIcE4copyEPcPKcm():
/usr/include/c++/10/bits/char_traits.h:437
    41b0:	|  |  |  |  |  |  |  |  |  |  |  |  |  |  |                                 c6 40 10 65          	movb   $0x65,0x10(%rax)
_ZNSt7__cxx1112basic_stringIcSt11char_traitsIcESaIcEE12_M_constructIPKcEEvT_S8_St20forward_iterator_tag():
/usr/include/c++/10/bits/basic_string.tcc:232
	_M_set_length(__dnew);
    41b4:	|  |  |  |  |  |  |  |  |  |  |  |  |  |  |                                 48 8b 44 24 28       	mov    0x28(%rsp),%rax
_ZNSt11char_traitsIcE6assignERcRKc():
/usr/include/c++/10/bits/char_traits.h:357
      { __c1 = __c2; }
    41b9:	|  |  |  |  |  |  |  |  |  |  |  |  |  |  |                                 48 8b 94 24 d0 00 00 	mov    0xd0(%rsp),%rdx
    41c0:	00 
_ZNSt7__cxx1112basic_stringIcSt11char_traitsIcESaIcEE9_M_lengthEm():
/usr/include/c++/10/bits/basic_string.h:191
      { _M_string_length = __length; }
    41c1:	|  |  |  |  |  |  |  |  |  |  |  |  |  |  |                                 48 89 84 24 d8 00 00 	mov    %rax,0xd8(%rsp)
    41c8:	00 
_ZNSt11char_traitsIcE6assignERcRKc():
/usr/include/c++/10/bits/char_traits.h:357
    41c9:	|  |  |  |  |  |  |  |  |  |  |  |  |  |  |                                 c6 04 02 00          	movb   $0x0,(%rdx,%rax,1)
BenchmarkKernel<CSRGraph<int>, main(int, char**)::<lambda(const Graph&)>, void (*)(const CSRGraph<int>&, const pvector<float>&), main(int, char**)::<lambda(const Graph&, const pvector<float>&)> >():
/home/aliha951/forked_gapbs/gapbs/src/benchmark.h:119
    41cd:	|  |  |  |  |  |  |  |  |  |  |  |  |  |  |                                 e8 de 13 00 00       	callq  55b0 <_Z9PrintTimeRKNSt7__cxx1112basic_stringIcSt11char_traitsIcESaIcEEEd>
_ZNKSt7__cxx1112basic_stringIcSt11char_traitsIcESaIcEE7_M_dataEv():
/usr/include/c++/10/bits/basic_string.h:195
      { return _M_dataplus._M_p; }
    41d2:	|  |  |  |  |  |  |  |  |  |  |  |  |  |  |                                 48 8b bc 24 d0 00 00 	mov    0xd0(%rsp),%rdi
    41d9:	00 
_ZNSt7__cxx1112basic_stringIcSt11char_traitsIcESaIcEE10_M_disposeEv():
/usr/include/c++/10/bits/basic_string.h:239
	if (!_M_is_local())
    41da:	|  |  |  |  |  |  |  |  |  |  |  |  |  |  |                                 48 39 df             	cmp    %rbx,%rdi
    41dd:	|  |  |  |  |  |  |  |  |  |  |  |  |  |  +-------------------------------- 0f 84 d6 fc ff ff    	je     3eb9 <main+0x349>
_ZN9__gnu_cxx13new_allocatorIcE10deallocateEPcm():
/usr/include/c++/10/ext/new_allocator.h:139
    41e3:	|  |  |  |  |  |  |  |  |  |  |  |  |  |  |                                 e8 e8 f4 ff ff       	callq  36d0 <_ZdlPv@plt>
_ZNSt7__cxx1112basic_stringIcSt11char_traitsIcESaIcEE10_M_destroyEm():
/usr/include/c++/10/bits/basic_string.h:245
      { _Alloc_traits::deallocate(_M_get_allocator(), _M_data(), __size + 1); }
    41e8:	|  |  |  |  |  |  |  |  |  |  |  |  |  |  \-------------------------------- e9 cc fc ff ff       	jmpq   3eb9 <main+0x349>
    41ed:	|  |  |  |  |  |  |  |  |  |  |  |  |  |                                    0f 1f 00             	nopl   (%rax)
BenchmarkKernel<CSRGraph<int>, main(int, char**)::<lambda(const Graph&)>, void (*)(const CSRGraph<int>&, const pvector<float>&), main(int, char**)::<lambda(const Graph&, const pvector<float>&)> >():
/home/aliha951/forked_gapbs/gapbs/src/benchmark.h:113
      stats(g, result);
    41f0:	|  |  |  |  |  |  |  |  |  |  |  |  |  \----------------------------------> 4c 89 fe             	mov    %r15,%rsi
    41f3:	|  |  |  |  |  |  |  |  |  |  |  |  |                                       4c 89 f7             	mov    %r14,%rdi
    41f6:	|  |  |  |  |  |  |  |  |  |  |  |  |                                       e8 55 21 00 00       	callq  6350 <_Z14PrintTopScoresRK8CSRGraphIiiLb1EERK7pvectorIfE>
    41fb:	|  |  |  |  |  |  |  |  |  |  |  \--|-------------------------------------- e9 ab fc ff ff       	jmpq   3eab <main+0x33b>
_ZN6CLBase9HandleArgEaPc():
/home/aliha951/forked_gapbs/gapbs/src/command_line.h:91
      case 'u': uniform_ = true; scale_ = atoi(opt_arg);    break;
    4200:	|  |  |  |  |  |  |  |  |  |  |     |                                       c6 84 24 89 01 00 00 	movb   $0x1,0x189(%rsp)
    4207:	01 
main():
/usr/include/stdlib.h:363
    4208:	|  |  |  |  |  |  |  |  |  |  |     |                                       ba 0a 00 00 00       	mov    $0xa,%edx
atoi():
/usr/include/stdlib.h:363
    420d:	|  |  |  |  |  |  |  |  |  |  |     |                                       31 f6                	xor    %esi,%esi
    420f:	|  |  |  |  |  |  |  |  |  |  |     |                                       48 89 ef             	mov    %rbp,%rdi
    4212:	|  |  |  |  |  |  |  |  |  |  |     |                                       e8 d9 f5 ff ff       	callq  37f0 <strtol@plt>
    4217:	|  |  |  |  |  |  |  |  |  |  |     |                                       89 84 24 60 01 00 00 	mov    %eax,0x160(%rsp)
_ZN6CLBase9HandleArgEaPc():
/home/aliha951/forked_gapbs/gapbs/src/command_line.h:91
    421e:	|  |  |  +--|--|--|--|--|--|--|-----|-------------------------------------- e9 f5 f9 ff ff       	jmpq   3c18 <main+0xa8>
_ZNSt7__cxx1112basic_stringIcSt11char_traitsIcESaIcEE12_Alloc_hiderC4EPcRKS3_():
/usr/include/c++/10/bits/basic_string.h:165
	: allocator_type(__a), _M_p(__dat) { }
    4223:	|  |  |  |  |  |  |  |  |  |  |     |                                       48 89 9c 24 d0 00 00 	mov    %rbx,0xd0(%rsp)
    422a:	00 
_ZNSt7__cxx1112basic_stringIcSt11char_traitsIcESaIcEEC4EPKcRKS3_():
/usr/include/c++/10/bits/basic_string.h:536
	const _CharT* __end = __s ? __s + traits_type::length(__s)
    422b:	|  |  |  |  |  |  |  |  |  |  |     |                                       48 85 ed             	test   %rbp,%rbp
    422e:	|  |  |  |  |  |  |  |  |  |  |     |     /-------------------------------- 0f 84 f8 01 00 00    	je     442c <main+0x8bc>
_ZNSt11char_traitsIcE6lengthEPKc():
/usr/include/c++/10/bits/char_traits.h:399
	return __builtin_strlen(__s);
    4234:	|  |  |  |  |  |  |  |  |  |  |     |     |                                 48 89 ef             	mov    %rbp,%rdi
    4237:	|  |  |  |  |  |  |  |  |  |  |     |     |                                 e8 94 f3 ff ff       	callq  35d0 <strlen@plt>
_ZNSt7__cxx1112basic_stringIcSt11char_traitsIcESaIcEE12_M_constructIPKcEEvT_S8_St20forward_iterator_tag():
/usr/include/c++/10/bits/basic_string.tcc:215
	size_type __dnew = static_cast<size_type>(std::distance(__beg, __end));
    423c:	|  |  |  |  |  |  |  |  |  |  |     |     |                                 48 89 44 24 70       	mov    %rax,0x70(%rsp)
_ZNSt11char_traitsIcE6lengthEPKc():
/usr/include/c++/10/bits/char_traits.h:399
    4241:	|  |  |  |  |  |  |  |  |  |  |     |     |                                 49 89 c6             	mov    %rax,%r14
_ZNSt7__cxx1112basic_stringIcSt11char_traitsIcESaIcEE12_M_constructIPKcEEvT_S8_St20forward_iterator_tag():
/usr/include/c++/10/bits/basic_string.tcc:217
	if (__dnew > size_type(_S_local_capacity))
    4244:	|  |  |  |  |  |  |  |  |  |  |     |     |                                 48 83 f8 0f          	cmp    $0xf,%rax
    4248:	|  |  |  |  |  |  |  |  |  |  |     |     |                    /----------- 0f 87 a9 01 00 00    	ja     43f7 <main+0x887>
_ZNSt7__cxx1112basic_stringIcSt11char_traitsIcESaIcEE7_S_copyEPcPKcm():
/usr/include/c++/10/bits/basic_string.h:356
	if (__n == 1)
    424e:	|  |  |  |  |  |  |  |  |  |  |     |     |                    |            48 83 f8 01          	cmp    $0x1,%rax
    4252:	|  |  |  |  |  |  |  |  |  |  |     |     |  /-----------------|----------- 0f 85 e0 01 00 00    	jne    4438 <main+0x8c8>
_ZNSt11char_traitsIcE6assignERcRKc():
/usr/include/c++/10/bits/char_traits.h:357
      { __c1 = __c2; }
    4258:	|  |  |  |  |  |  |  |  |  |  |     |     |  |                 |            0f b6 45 00          	movzbl 0x0(%rbp),%eax
    425c:	|  |  |  |  |  |  |  |  |  |  |     |     |  |                 |            88 84 24 e0 00 00 00 	mov    %al,0xe0(%rsp)
_ZNSt7__cxx1112basic_stringIcSt11char_traitsIcESaIcEE12_M_constructIPKcEEvT_S8_St20forward_iterator_tag():
/usr/include/c++/10/bits/basic_string.tcc:232
	_M_set_length(__dnew);
    4263:	|  |  |  |  |  |  |  |  |  |  |     |     |  |  /--------------|----------> 48 8b 44 24 70       	mov    0x70(%rsp),%rax
_ZNSt11char_traitsIcE6assignERcRKc():
/usr/include/c++/10/bits/char_traits.h:357
    4268:	|  |  |  |  |  |  |  |  |  |  |     |     |  |  |              |            48 8b 94 24 d0 00 00 	mov    0xd0(%rsp),%rdx
    426f:	00 
_ZNSt7__cxx1112basic_stringIcSt11char_traitsIcESaIcEE9_M_lengthEm():
/usr/include/c++/10/bits/basic_string.h:191
      { _M_string_length = __length; }
    4270:	|  |  |  |  |  |  |  |  |  |  |     |     |  |  |              |            48 89 84 24 d8 00 00 	mov    %rax,0xd8(%rsp)
    4277:	00 
_ZNSt11char_traitsIcE6assignERcRKc():
/usr/include/c++/10/bits/char_traits.h:357
    4278:	|  |  |  |  |  |  |  |  |  |  |     |     |  |  |              |            c6 04 02 00          	movb   $0x0,(%rdx,%rax,1)
_ZNKSt7__cxx1112basic_stringIcSt11char_traitsIcESaIcEE7_M_dataEv():
/usr/include/c++/10/bits/basic_string.h:195
      { return _M_dataplus._M_p; }
    427c:	|  |  |  |  |  |  |  |  |  |  |     |     |  |  |              |            48 8b 84 24 d0 00 00 	mov    0xd0(%rsp),%rax
    4283:	00 
    4284:	|  |  |  |  |  |  |  |  |  |  |     |     |  |  |              |            48 8b bc 24 68 01 00 	mov    0x168(%rsp),%rdi
    428b:	00 
_ZNKSt7__cxx1112basic_stringIcSt11char_traitsIcESaIcEE4sizeEv():
/usr/include/c++/10/bits/basic_string.h:915
      { return _M_string_length; }
    428c:	|  |  |  |  |  |  |  |  |  |  |     |     |  |  |              |            48 8b 94 24 d8 00 00 	mov    0xd8(%rsp),%rdx
    4293:	00 
_ZNSt7__cxx1112basic_stringIcSt11char_traitsIcESaIcEEaSEOS4_():
/usr/include/c++/10/bits/basic_string.h:731
	if (__str._M_is_local())
    4294:	|  |  |  |  |  |  |  |  |  |  |     |     |  |  |              |            48 39 d8             	cmp    %rbx,%rax
    4297:	|  |  |  |  |  |  |  |  |  |  |     |     |  |  |           /--|----------- 0f 84 a9 01 00 00    	je     4446 <main+0x8d6>
/usr/include/c++/10/bits/basic_string.h:759
	    _M_capacity(__str._M_allocated_capacity);
    429d:	|  |  |  |  |  |  |  |  |  |  |     |     |  |  |           |  |            48 8b 8c 24 e0 00 00 	mov    0xe0(%rsp),%rcx
    42a4:	00 
/usr/include/c++/10/bits/basic_string.h:745
	    if (!_M_is_local())
    42a5:	|  |  |  |  |  |  |  |  |  |  |     |     |  |  |           |  |            48 3b 7c 24 08       	cmp    0x8(%rsp),%rdi
    42aa:	|  |  |  |  |  |  |  |  |  |  |     |     |  |  |  /--------|--|----------- 0f 84 ca 01 00 00    	je     447a <main+0x90a>
_ZNSt7__cxx1112basic_stringIcSt11char_traitsIcESaIcEE9_M_lengthEm():
/usr/include/c++/10/bits/basic_string.h:191
      { _M_string_length = __length; }
    42b0:	|  |  |  |  |  |  |  |  |  |  |     |     |  |  |  |        |  |            66 48 0f 6e c2       	movq   %rdx,%xmm0
    42b5:	|  |  |  |  |  |  |  |  |  |  |     |     |  |  |  |        |  |            66 48 0f 6e f1       	movq   %rcx,%xmm6
_ZNSt7__cxx1112basic_stringIcSt11char_traitsIcESaIcEEaSEOS4_():
/usr/include/c++/10/bits/basic_string.h:751
		    __capacity = _M_allocated_capacity;
    42ba:	|  |  |  |  |  |  |  |  |  |  |     |     |  |  |  |        |  |            48 8b b4 24 78 01 00 	mov    0x178(%rsp),%rsi
    42c1:	00 
_ZNSt7__cxx1112basic_stringIcSt11char_traitsIcESaIcEE7_M_dataEPc():
/usr/include/c++/10/bits/basic_string.h:187
      { _M_dataplus._M_p = __p; }
    42c2:	|  |  |  |  |  |  |  |  |  |  |     |     |  |  |  |        |  |            48 89 84 24 68 01 00 	mov    %rax,0x168(%rsp)
    42c9:	00 
_ZNSt7__cxx1112basic_stringIcSt11char_traitsIcESaIcEE9_M_lengthEm():
/usr/include/c++/10/bits/basic_string.h:191
      { _M_string_length = __length; }
    42ca:	|  |  |  |  |  |  |  |  |  |  |     |     |  |  |  |        |  |            66 0f 6c c6          	punpcklqdq %xmm6,%xmm0
    42ce:	|  |  |  |  |  |  |  |  |  |  |     |     |  |  |  |        |  |            0f 29 84 24 70 01 00 	movaps %xmm0,0x170(%rsp)
    42d5:	00 
_ZNSt7__cxx1112basic_stringIcSt11char_traitsIcESaIcEEaSEOS4_():
/usr/include/c++/10/bits/basic_string.h:760
	    if (__data)
    42d6:	|  |  |  |  |  |  |  |  |  |  |     |     |  |  |  |        |  |            48 85 ff             	test   %rdi,%rdi
    42d9:	|  |  |  |  |  |  |  |  |  |  |     |     |  |  |  |  /-----|--|----------- 0f 84 b9 01 00 00    	je     4498 <main+0x928>
_ZNSt7__cxx1112basic_stringIcSt11char_traitsIcESaIcEE7_M_dataEPc():
/usr/include/c++/10/bits/basic_string.h:187
      { _M_dataplus._M_p = __p; }
    42df:	|  |  |  |  |  |  |  |  |  |  |     |     |  |  |  |  |     |  |            48 89 bc 24 d0 00 00 	mov    %rdi,0xd0(%rsp)
    42e6:	00 
_ZNSt7__cxx1112basic_stringIcSt11char_traitsIcESaIcEE11_M_capacityEm():
/usr/include/c++/10/bits/basic_string.h:219
      { _M_allocated_capacity = __capacity; }
    42e7:	|  |  |  |  |  |  |  |  |  |  |     |     |  |  |  |  |     |  |            48 89 b4 24 e0 00 00 	mov    %rsi,0xe0(%rsp)
    42ee:	00 
_ZNKSt7__cxx1112basic_stringIcSt11char_traitsIcESaIcEE7_M_dataEv():
/usr/include/c++/10/bits/basic_string.h:195
      { return _M_dataplus._M_p; }
    42ef:	|  |  |  |  |  |  |  |  |  |  |     |     |  |  |  |  |  /--|--|----------> 48 8b 84 24 d0 00 00 	mov    0xd0(%rsp),%rax
    42f6:	00 
_ZNSt7__cxx1112basic_stringIcSt11char_traitsIcESaIcEE9_M_lengthEm():
/usr/include/c++/10/bits/basic_string.h:191
      { _M_string_length = __length; }
    42f7:	|  |  |  |  |  |  |  |  |  |  |     |     |  |  |  |  |  |  |  |            48 c7 84 24 d8 00 00 	movq   $0x0,0xd8(%rsp)
    42fe:	00 00 00 00 00 
_ZNSt11char_traitsIcE6assignERcRKc():
/usr/include/c++/10/bits/char_traits.h:357
    4303:	|  |  |  |  |  |  |  |  |  |  |     |     |  |  |  |  |  |  |  |            c6 00 00             	movb   $0x0,(%rax)
_ZNKSt7__cxx1112basic_stringIcSt11char_traitsIcESaIcEE7_M_dataEv():
/usr/include/c++/10/bits/basic_string.h:195
      { return _M_dataplus._M_p; }
    4306:	|  |  |  |  |  |  |  |  |  |  |     |     |  |  |  |  |  |  |  |            48 8b bc 24 d0 00 00 	mov    0xd0(%rsp),%rdi
    430d:	00 
_ZNSt7__cxx1112basic_stringIcSt11char_traitsIcESaIcEE10_M_disposeEv():
/usr/include/c++/10/bits/basic_string.h:239
	if (!_M_is_local())
    430e:	|  |  |  |  |  |  |  |  |  |  |     |     |  |  |  |  |  |  |  |            48 39 df             	cmp    %rbx,%rdi
    4311:	|  |  |  |  \--|--|--|--|--|--|-----|-----|--|--|--|--|--|--|--|----------- 0f 85 1a fa ff ff    	jne    3d31 <main+0x1c1>
    4317:	|  |  |  +-----|--|--|--|--|--|-----|-----|--|--|--|--|--|--|--|----------- e9 fc f8 ff ff       	jmpq   3c18 <main+0xa8>
_ZN6CLBase9HandleArgEaPc():
/home/aliha951/forked_gapbs/gapbs/src/command_line.h:90
      case 's': symmetrize_ = true;                         break;
    431c:	|  |  |  |     |  |  |  |  |  |     |     |  |  |  |  |  |  |  |            c6 84 24 88 01 00 00 	movb   $0x1,0x188(%rsp)
    4323:	01 
    4324:	|  |  |  +-----|--|--|--|--|--|-----|-----|--|--|--|--|--|--|--|----------- e9 ef f8 ff ff       	jmpq   3c18 <main+0xa8>
/home/aliha951/forked_gapbs/gapbs/src/command_line.h:92
      case 'm': in_place_ = true;                           break;
    4329:	|  |  |  |     |  |  |  |  |  |     |     |  |  |  |  |  |  |  |            c6 84 24 8a 01 00 00 	movb   $0x1,0x18a(%rsp)
    4330:	01 
    4331:	|  |  |  +-----|--|--|--|--|--|-----|-----|--|--|--|--|--|--|--|----------- e9 e2 f8 ff ff       	jmpq   3c18 <main+0xa8>
main():
/usr/include/stdlib.h:363
    4336:	|  |  |  |     |  |  |  |  |  |     |     |  |  |  |  |  |  |  |            ba 0a 00 00 00       	mov    $0xa,%edx
atoi():
/usr/include/stdlib.h:363
    433b:	|  |  |  |     |  |  |  |  |  |     |     |  |  |  |  |  |  |  |            31 f6                	xor    %esi,%esi
    433d:	|  |  |  |     |  |  |  |  |  |     |     |  |  |  |  |  |  |  |            48 89 ef             	mov    %rbp,%rdi
    4340:	|  |  |  |     |  |  |  |  |  |     |     |  |  |  |  |  |  |  |            e8 ab f4 ff ff       	callq  37f0 <strtol@plt>
    4345:	|  |  |  |     |  |  |  |  |  |     |     |  |  |  |  |  |  |  |            89 84 24 64 01 00 00 	mov    %eax,0x164(%rsp)
_ZN6CLBase9HandleArgEaPc():
/home/aliha951/forked_gapbs/gapbs/src/command_line.h:89
      case 'k': degree_ = atoi(opt_arg);                    break;
    434c:	|  |  |  \-----|--|--|--|--|--|-----|-----|--|--|--|--|--|--|--|----------- e9 c7 f8 ff ff       	jmpq   3c18 <main+0xa8>
BenchmarkKernel<CSRGraph<int>, main(int, char**)::<lambda(const Graph&)>, void (*)(const CSRGraph<int>&, const pvector<float>&), main(int, char**)::<lambda(const Graph&, const pvector<float>&)> >():
/home/aliha951/forked_gapbs/gapbs/src/benchmark.h:104
  double total_seconds = 0;
    4351:	|  |  |        |  \--|--|--|--|-----|-----|--|--|--|--|--|--|--|----------> 66 0f ef ed          	pxor   %xmm5,%xmm5
    4355:	|  |  |        |     |  |  |  |     |     |  |  |  |  |  |  |  |            f2 0f 11 2c 24       	movsd  %xmm5,(%rsp)
    435a:	|  |  |        |     |  |  |  \-----|-----|--|--|--|--|--|--|--|----------- e9 81 fb ff ff       	jmpq   3ee0 <main+0x370>
_ZStlsISt11char_traitsIcEERSt13basic_ostreamIcT_ES5_PKc():
/usr/include/c++/10/ostream:611
    operator<<(basic_ostream<char, _Traits>& __out, const char* __s)
    {
      if (!__s)
	__out.setstate(ios_base::badbit);
      else
	__ostream_insert(__out, __s,
    435f:	|  |  |        |     |  |  |        \-----|--|--|--|--|--|--|--|----------> ba 2b 00 00 00       	mov    $0x2b,%edx
    4364:	|  |  |        |     |  |  |              |  |  |  |  |  |  |  |            48 8d 35 05 ed 00 00 	lea    0xed05(%rip),%rsi        # 13070 <_IO_stdin_used+0x70>
    436b:	|  |  |        |     |  |  |              |  |  |  |  |  |  |  |            48 8d 3d 0e 2d 01 00 	lea    0x12d0e(%rip),%rdi        # 17080 <_ZSt4cout@@GLIBCXX_3.4>
    4372:	|  |  |        |     |  |  |              |  |  |  |  |  |  |  |            e8 b9 f3 ff ff       	callq  3730 <_ZSt16__ostream_insertIcSt11char_traitsIcEERSt13basic_ostreamIT_T0_ES6_PKS3_l@plt>
_ZSt4endlIcSt11char_traitsIcEERSt13basic_ostreamIT_T0_ES6_():
/usr/include/c++/10/ostream:682
   *  for more on this subject.
  */
  template<typename _CharT, typename _Traits>
    inline basic_ostream<_CharT, _Traits>&
    endl(basic_ostream<_CharT, _Traits>& __os)
    { return flush(__os.put(__os.widen('\n'))); }
    4377:	|  |  |        |     |  |  |              |  |  |  |  |  |  |  |            48 8b 05 02 2d 01 00 	mov    0x12d02(%rip),%rax        # 17080 <_ZSt4cout@@GLIBCXX_3.4>
    437e:	|  |  |        |     |  |  |              |  |  |  |  |  |  |  |            48 8d 15 fb 2c 01 00 	lea    0x12cfb(%rip),%rdx        # 17080 <_ZSt4cout@@GLIBCXX_3.4>
    4385:	|  |  |        |     |  |  |              |  |  |  |  |  |  |  |            48 8b 40 e8          	mov    -0x18(%rax),%rax
    4389:	|  |  |        |     |  |  |              |  |  |  |  |  |  |  |            48 8b ac 02 f0 00 00 	mov    0xf0(%rdx,%rax,1),%rbp
    4390:	00 
_ZSt13__check_facetISt5ctypeIcEERKT_PS3_():
/usr/include/c++/10/bits/basic_ios.h:49

  template<typename _Facet>
    inline const _Facet&
    __check_facet(const _Facet* __f)
    {
      if (!__f)
    4391:	|  |  |        |     |  |  |              |  |  |  |  |  |  |  |            48 85 ed             	test   %rbp,%rbp
    4394:	|  |  |        |     |  |  |              |  |  |  |  |  |  |  |  /-------- 0f 84 3f 01 00 00    	je     44d9 <main+0x969>
_ZNKSt5ctypeIcE5widenEc():
/usr/include/c++/10/bits/locale_facets.h:874
       *  @return  The converted character.
      */
      char_type
      widen(char __c) const
      {
	if (_M_widen_ok)
    439a:	|  |  |        |     |  |  |              |  |  |  |  |  |  |  |  |         80 7d 38 00          	cmpb   $0x0,0x38(%rbp)
    439e:	|  |  |        |     |  |  |              |  |  |  |  |  |  |  |  |     /-- 74 20                	je     43c0 <main+0x850>
/usr/include/c++/10/bits/locale_facets.h:875
	  return _M_widen[static_cast<unsigned char>(__c)];
    43a0:	|  |  |        |     |  |  |              |  |  |  |  |  |  |  |  |     |   0f b6 45 43          	movzbl 0x43(%rbp),%eax
_ZSt4endlIcSt11char_traitsIcEERSt13basic_ostreamIT_T0_ES6_():
/usr/include/c++/10/ostream:682
    43a4:	|  |  |        |     |  |  |              |  |  |  |  |  |  |  |  |  /--|-> 0f be f0             	movsbl %al,%esi
    43a7:	|  |  |        |     |  |  |              |  |  |  |  |  |  |  |  |  |  |   48 8d 3d d2 2c 01 00 	lea    0x12cd2(%rip),%rdi        # 17080 <_ZSt4cout@@GLIBCXX_3.4>
    43ae:	|  |  |        |     |  |  |              |  |  |  |  |  |  |  |  |  |  |   e8 4d f1 ff ff       	callq  3500 <_ZNSo3putEc@plt>
    43b3:	|  |  |        |     |  |  |              |  |  |  |  |  |  |  |  |  |  |   48 89 c7             	mov    %rax,%rdi
_ZSt5flushIcSt11char_traitsIcEERSt13basic_ostreamIT_T0_ES6_():
/usr/include/c++/10/ostream:704
   *  This manipulator simply calls the stream's @c flush() member function.
  */
  template<typename _CharT, typename _Traits>
    inline basic_ostream<_CharT, _Traits>&
    flush(basic_ostream<_CharT, _Traits>& __os)
    { return __os.flush(); }
    43b6:	|  |  |        |     |  |  |              |  |  |  |  |  |  |  |  |  |  |   e8 95 f2 ff ff       	callq  3650 <_ZNSo5flushEv@plt>
    43bb:	|  |  |        |     |  |  \--------------|--|--|--|--|--|--|--|--|--|--|-- e9 6f fb ff ff       	jmpq   3f2f <main+0x3bf>
_ZNKSt5ctypeIcE5widenEc():
/usr/include/c++/10/bits/locale_facets.h:876
	this->_M_widen_init();
    43c0:	|  |  |        |     |  |                 |  |  |  |  |  |  |  |  |  |  \-> 48 89 ef             	mov    %rbp,%rdi
    43c3:	|  |  |        |     |  |                 |  |  |  |  |  |  |  |  |  |      e8 78 f3 ff ff       	callq  3740 <_ZNKSt5ctypeIcE13_M_widen_initEv@plt>
/usr/include/c++/10/bits/locale_facets.h:877
	return this->do_widen(__c);
    43c8:	|  |  |        |     |  |                 |  |  |  |  |  |  |  |  |  |      48 8b 45 00          	mov    0x0(%rbp),%rax
    43cc:	|  |  |        |     |  |                 |  |  |  |  |  |  |  |  |  |      48 8d 0d ad 21 00 00 	lea    0x21ad(%rip),%rcx        # 6580 <_ZNKSt5ctypeIcE8do_widenEc>
    43d3:	|  |  |        |     |  |                 |  |  |  |  |  |  |  |  |  |      48 8b 50 30          	mov    0x30(%rax),%rdx
    43d7:	|  |  |        |     |  |                 |  |  |  |  |  |  |  |  |  |      b8 0a 00 00 00       	mov    $0xa,%eax
    43dc:	|  |  |        |     |  |                 |  |  |  |  |  |  |  |  |  |      48 39 ca             	cmp    %rcx,%rdx
    43df:	|  |  |        |     |  |                 |  |  |  |  |  |  |  |  |  +----- 74 c3                	je     43a4 <main+0x834>
    43e1:	|  |  |        |     |  |                 |  |  |  |  |  |  |  |  |  |      be 0a 00 00 00       	mov    $0xa,%esi
    43e6:	|  |  |        |     |  |                 |  |  |  |  |  |  |  |  |  |      48 89 ef             	mov    %rbp,%rdi
    43e9:	|  |  |        |     |  |                 |  |  |  |  |  |  |  |  |  |      ff d2                	callq  *%rdx
    43eb:	|  |  |        |     |  |                 |  |  |  |  |  |  |  |  |  \----- eb b7                	jmp    43a4 <main+0x834>
_ZN6CLBase9HandleArgEaPc():
/home/aliha951/forked_gapbs/gapbs/src/command_line.h:88
      case 'h': PrintUsage();                               break;
    43ed:	|  |  |        |     |  |                 |  |  |  |  |  |  |  |  |         48 8b 7c 24 18       	mov    0x18(%rsp),%rdi
    43f2:	|  |  |        |     |  |                 |  |  |  |  |  |  |  |  |         e8 c9 35 00 00       	callq  79c0 <_ZN6CLBase10PrintUsageEv>
_ZNSt7__cxx1112basic_stringIcSt11char_traitsIcESaIcEE12_M_constructIPKcEEvT_S8_St20forward_iterator_tag():
/usr/include/c++/10/bits/basic_string.tcc:219
	    _M_data(_M_create(__dnew, size_type(0)));
    43f7:	|  |  |        |     |  |                 |  |  |  |  |  |  |  \--|-------> 31 d2                	xor    %edx,%edx
    43f9:	|  |  |        |     |  |                 |  |  |  |  |  |  |     |         4c 89 e6             	mov    %r12,%rsi
    43fc:	|  |  |        |     |  |                 |  |  |  |  |  |  |     |         4c 89 ef             	mov    %r13,%rdi
    43ff:	|  |  |        |     |  |                 |  |  |  |  |  |  |     |         e8 0c f5 ff ff       	callq  3910 <_ZNSt7__cxx1112basic_stringIcSt11char_traitsIcESaIcEE9_M_createERmm@plt>
_ZNSt7__cxx1112basic_stringIcSt11char_traitsIcESaIcEE7_M_dataEPc():
/usr/include/c++/10/bits/basic_string.h:187
      { _M_dataplus._M_p = __p; }
    4404:	|  |  |        |     |  |                 |  |  |  |  |  |  |     |         48 89 84 24 d0 00 00 	mov    %rax,0xd0(%rsp)
    440b:	00 
_ZNSt7__cxx1112basic_stringIcSt11char_traitsIcESaIcEE12_M_constructIPKcEEvT_S8_St20forward_iterator_tag():
/usr/include/c++/10/bits/basic_string.tcc:219
    440c:	|  |  |        |     |  |                 |  |  |  |  |  |  |     |         48 89 c7             	mov    %rax,%rdi
_ZNSt7__cxx1112basic_stringIcSt11char_traitsIcESaIcEE11_M_capacityEm():
/usr/include/c++/10/bits/basic_string.h:219
      { _M_allocated_capacity = __capacity; }
    440f:	|  |  |        |     |  |                 |  |  |  |  |  |  |     |         48 8b 44 24 70       	mov    0x70(%rsp),%rax
    4414:	|  |  |        |     |  |                 |  |  |  |  |  |  |     |         48 89 84 24 e0 00 00 	mov    %rax,0xe0(%rsp)
    441b:	00 
_ZNSt11char_traitsIcE4copyEPcPKcm():
/usr/include/c++/10/bits/char_traits.h:437
	return static_cast<char_type*>(__builtin_memcpy(__s1, __s2, __n));
    441c:	|  |  |        |     |  |                 |  |  |  |  |  |  |     |     /-> 4c 89 f2             	mov    %r14,%rdx
    441f:	|  |  |        |     |  |                 |  |  |  |  |  |  |     |     |   48 89 ee             	mov    %rbp,%rsi
    4422:	|  |  |        |     |  |                 |  |  |  |  |  |  |     |     |   e8 69 f2 ff ff       	callq  3690 <memcpy@plt>
    4427:	|  |  |        |     |  |                 |  |  +--|--|--|--|-----|-----|-- e9 37 fe ff ff       	jmpq   4263 <main+0x6f3>
_ZNSt7__cxx1112basic_stringIcSt11char_traitsIcESaIcEE12_M_constructIPKcEEvT_S8_St20forward_iterator_tag():
/usr/include/c++/10/bits/basic_string.tcc:212
	  std::__throw_logic_error(__N("basic_string::"
    442c:	|  |  |        |     |  |                 \--|--|--|--|--|--|-----|-----|-> 48 8d 3d d5 eb 00 00 	lea    0xebd5(%rip),%rdi        # 13008 <_IO_stdin_used+0x8>
    4433:	|  |  |        |     |  |                    |  |  |  |  |  |     |     |   e8 28 f2 ff ff       	callq  3660 <_ZSt19__throw_logic_errorPKc@plt>
_ZNSt11char_traitsIcE4copyEPcPKcm():
/usr/include/c++/10/bits/char_traits.h:431
	if (__n == 0)
    4438:	|  |  |        |     |  |                    \--|--|--|--|--|-----|-----|-> 48 85 c0             	test   %rax,%rax
    443b:	|  |  |        |     |  |                       \--|--|--|--|-----|-----|-- 0f 84 22 fe ff ff    	je     4263 <main+0x6f3>
_ZNKSt7__cxx1112basic_stringIcSt11char_traitsIcESaIcEE7_M_dataEv():
/usr/include/c++/10/bits/basic_string.h:195
      { return _M_dataplus._M_p; }
    4441:	|  |  |        |     |  |                          |  |  |  |     |     |   48 89 df             	mov    %rbx,%rdi
    4444:	|  |  |        |     |  |                          |  |  |  |     |     \-- eb d6                	jmp    441c <main+0x8ac>
_ZNSt7__cxx1112basic_stringIcSt11char_traitsIcESaIcEEaSEOS4_():
/usr/include/c++/10/bits/basic_string.h:734
	    if (__str.size())
    4446:	|  |  |        |     |  |                          |  |  |  \-----|-------> 48 85 d2             	test   %rdx,%rdx
    4449:	|  |  |        |     |  |                          |  |  |        |  /----- 74 1e                	je     4469 <main+0x8f9>
_ZNSt7__cxx1112basic_stringIcSt11char_traitsIcESaIcEE7_S_copyEPcPKcm():
/usr/include/c++/10/bits/basic_string.h:356
	if (__n == 1)
    444b:	|  |  |        |     |  |                          |  |  |        |  |      48 83 fa 01          	cmp    $0x1,%rdx
    444f:	|  |  |        |     |  |                          |  |  |        |  |  /-- 74 54                	je     44a5 <main+0x935>
_ZNSt11char_traitsIcE4copyEPcPKcm():
/usr/include/c++/10/bits/char_traits.h:437
	return static_cast<char_type*>(__builtin_memcpy(__s1, __s2, __n));
    4451:	|  |  |        |     |  |                          |  |  |        |  |  |   48 89 de             	mov    %rbx,%rsi
    4454:	|  |  |        |     |  |                          |  |  |        |  |  |   e8 37 f2 ff ff       	callq  3690 <memcpy@plt>
    4459:	|  |  |        |     |  |                          |  |  |        |  |  |   48 8b bc 24 68 01 00 	mov    0x168(%rsp),%rdi
    4460:	00 
    4461:	|  |  |        |     |  |                          |  |  |        |  |  |   48 8b 94 24 d8 00 00 	mov    0xd8(%rsp),%rdx
    4468:	00 
_ZNSt7__cxx1112basic_stringIcSt11char_traitsIcESaIcEE9_M_lengthEm():
/usr/include/c++/10/bits/basic_string.h:191
      { _M_string_length = __length; }
    4469:	|  |  |        |     |  |                          |  |  |        |  >--|-> 48 89 94 24 70 01 00 	mov    %rdx,0x170(%rsp)
    4470:	00 
_ZNSt11char_traitsIcE6assignERcRKc():
/usr/include/c++/10/bits/char_traits.h:357
      { __c1 = __c2; }
    4471:	|  |  |        |     |  |                          |  |  |        |  |  |   c6 04 17 00          	movb   $0x0,(%rdi,%rdx,1)
_ZNSt7__cxx1112basic_stringIcSt11char_traitsIcESaIcEE13_M_set_lengthEm():
/usr/include/c++/10/bits/basic_string.h:226
      }
    4475:	|  |  |        |     |  |                          |  |  +--------|--|--|-- e9 75 fe ff ff       	jmpq   42ef <main+0x77f>
_ZNSt7__cxx1112basic_stringIcSt11char_traitsIcESaIcEE9_M_lengthEm():
/usr/include/c++/10/bits/basic_string.h:191
      { _M_string_length = __length; }
    447a:	|  |  |        |     |  |                          \--|--|--------|--|--|-> 66 48 0f 6e c2       	movq   %rdx,%xmm0
    447f:	|  |  |        |     |  |                             |  |        |  |  |   66 48 0f 6e f9       	movq   %rcx,%xmm7
_ZNSt7__cxx1112basic_stringIcSt11char_traitsIcESaIcEE7_M_dataEPc():
/usr/include/c++/10/bits/basic_string.h:187
      { _M_dataplus._M_p = __p; }
    4484:	|  |  |        |     |  |                             |  |        |  |  |   48 89 84 24 68 01 00 	mov    %rax,0x168(%rsp)
    448b:	00 
_ZNSt7__cxx1112basic_stringIcSt11char_traitsIcESaIcEE9_M_lengthEm():
/usr/include/c++/10/bits/basic_string.h:191
      { _M_string_length = __length; }
    448c:	|  |  |        |     |  |                             |  |        |  |  |   66 0f 6c c7          	punpcklqdq %xmm7,%xmm0
    4490:	|  |  |        |     |  |                             |  |        |  |  |   0f 29 84 24 70 01 00 	movaps %xmm0,0x170(%rsp)
    4497:	00 
_ZNSt7__cxx1112basic_stringIcSt11char_traitsIcESaIcEE7_M_dataEPc():
/usr/include/c++/10/bits/basic_string.h:187
      { _M_dataplus._M_p = __p; }
    4498:	|  |  |        |     |  |                             \--|--------|--|--|-> 48 89 9c 24 d0 00 00 	mov    %rbx,0xd0(%rsp)
    449f:	00 
    44a0:	|  |  |        |     |  |                                \--------|--|--|-- e9 4a fe ff ff       	jmpq   42ef <main+0x77f>
_ZNSt11char_traitsIcE6assignERcRKc():
/usr/include/c++/10/bits/char_traits.h:357
    44a5:	|  |  |        |     |  |                                         |  |  \-> 0f b6 84 24 e0 00 00 	movzbl 0xe0(%rsp),%eax
    44ac:	00 
    44ad:	|  |  |        |     |  |                                         |  |      88 07                	mov    %al,(%rdi)
    44af:	|  |  |        |     |  |                                         |  |      48 8b bc 24 68 01 00 	mov    0x168(%rsp),%rdi
    44b6:	00 
    44b7:	|  |  |        |     |  |                                         |  |      48 8b 94 24 d8 00 00 	mov    0xd8(%rsp),%rdx
    44be:	00 
    44bf:	|  |  |        |     |  |                                         |  \----- eb a8                	jmp    4469 <main+0x8f9>
_ZN9__gnu_cxx6__stoaIddcJEEET0_PFT_PKT1_PPS3_DpT2_EPKcS5_PmS9_():
/usr/include/c++/10/ext/string_conversions.h:86
	std::__throw_out_of_range(__name);
    44c1:	|  |  \--------|-----|--|-----------------------------------------|-------> 48 8d 3d 50 ed 00 00 	lea    0xed50(%rip),%rdi        # 13218 <_IO_stdin_used+0x218>
    44c8:	|  |           |     |  |                                         |         e8 53 f3 ff ff       	callq  3820 <_ZSt20__throw_out_of_rangePKc@plt>
/usr/include/c++/10/ext/string_conversions.h:83
	std::__throw_invalid_argument(__name);
    44cd:	|  \-----------|-----|--|-----------------------------------------|-------> 48 8d 3d 44 ed 00 00 	lea    0xed44(%rip),%rdi        # 13218 <_IO_stdin_used+0x218>
    44d4:	|              |     |  |                                         |         e8 37 f1 ff ff       	callq  3610 <_ZSt24__throw_invalid_argumentPKc@plt>
_ZSt13__check_facetISt5ctypeIcEERKT_PS3_():
/usr/include/c++/10/bits/basic_ios.h:50
	__throw_bad_cast();
    44d9:	|              |     |  |                                         \-------> e8 a2 f2 ff ff       	callq  3780 <_ZSt16__throw_bad_castv@plt>
_ZNKSt7__cxx1112basic_stringIcSt11char_traitsIcESaIcEE7_M_dataEv():
/usr/include/c++/10/bits/basic_string.h:195
      { return _M_dataplus._M_p; }
    44de:	|              |     \--|-------------------------------------------------> 48 89 df             	mov    %rbx,%rdi
    44e1:	|              |        \-------------------------------------------------- e9 cf fa ff ff       	jmpq   3fb5 <main+0x445>
_ZNSt7__cxx1112basic_stringIcSt11char_traitsIcESaIcEE12_M_constructIPKcEEvT_S8_St20forward_iterator_tag():
/usr/include/c++/10/bits/basic_string.tcc:212
    44e6:	\--------------|----------------------------------------------------------> 48 8d 3d 1b eb 00 00 	lea    0xeb1b(%rip),%rdi        # 13008 <_IO_stdin_used+0x8>
    44ed:	               |                                                            e8 6e f1 ff ff       	callq  3660 <_ZSt19__throw_logic_errorPKc@plt>
main():
/home/aliha951/forked_gapbs/gapbs/src/pr.cc:111
}
    44f2:	               \----------------------------------------------------------> e8 29 f2 ff ff       	callq  3720 <__stack_chk_fail@plt>
    44f7:	                                                                            f3 0f 1e fa          	endbr64 
_ZNKSt7__cxx1112basic_stringIcSt11char_traitsIcESaIcEE7_M_dataEv():
/usr/include/c++/10/bits/basic_string.h:195
    44fb:	                                                                            48 89 c5             	mov    %rax,%rbp
    44fe:	                                                                            e9 79 f5 ff ff       	jmpq   3a7c <main.cold>
    4503:	                                                                            f3 0f 1e fa          	endbr64 
_ZZN9__gnu_cxx6__stoaIddcJEEET0_PFT_PKT1_PPS3_DpT2_EPKcS5_PmS9_EN11_Save_errnoD4Ev():
/usr/include/c++/10/ext/string_conversions.h:64
	~_Save_errno() { if (errno == 0) errno = _M_errno; }
    4507:	                                                                            49 89 c4             	mov    %rax,%r12
    450a:	                                                                            e9 ae f5 ff ff       	jmpq   3abd <main.cold+0x41>
    450f:	                                                                            f3 0f 1e fa          	endbr64 
_ZNKSt7__cxx1112basic_stringIcSt11char_traitsIcESaIcEE7_M_dataEv():
/usr/include/c++/10/bits/basic_string.h:195
    4513:	                                                                            48 89 c5             	mov    %rax,%rbp
    4516:	                                                                            e9 c2 f5 ff ff       	jmpq   3add <main.cold+0x61>
    451b:	                                                                            f3 0f 1e fa          	endbr64 
    451f:	                                                                            48 89 c3             	mov    %rax,%rbx
    4522:	                                                                            e9 6a f5 ff ff       	jmpq   3a91 <main.cold+0x15>
    4527:	                                                                            f3 0f 1e fa          	endbr64 
    452b:	                                                                            48 89 c5             	mov    %rax,%rbp
    452e:	                                                                            e9 0a f6 ff ff       	jmpq   3b3d <main.cold+0xc1>
    4533:	                                                                            f3 0f 1e fa          	endbr64 
_ZN5CLAppD4Ev():
/home/aliha951/forked_gapbs/gapbs/src/command_line.h:114
class CLApp : public CLBase {
    4537:	                                                                            49 89 c4             	mov    %rax,%r12
    453a:	                                                                            e9 5d f5 ff ff       	jmpq   3a9c <main.cold+0x20>
    453f:	                                                                            f3 0f 1e fa          	endbr64 
_ZNKSt7__cxx1112basic_stringIcSt11char_traitsIcESaIcEE7_M_dataEv():
/usr/include/c++/10/bits/basic_string.h:195
    4543:	                                                                            49 89 c4             	mov    %rax,%r12
    4546:	                                                                            e9 b4 f5 ff ff       	jmpq   3aff <main.cold+0x83>
    454b:	                                                                            f3 0f 1e fa          	endbr64 
_ZN7pvectorIfE16ReleaseResourcesEv():
/home/aliha951/forked_gapbs/gapbs/src/pvector.h:73
    if (start_ != nullptr) {
    454f:	                                                                            48 89 c5             	mov    %rax,%rbp
    4552:	                                                                            e9 cf f5 ff ff       	jmpq   3b26 <main.cold+0xaa>
    4557:	                                                                            f3 0f 1e fa          	endbr64 
_ZNKSt7__cxx1112basic_stringIcSt11char_traitsIcESaIcEE7_M_dataEv():
/usr/include/c++/10/bits/basic_string.h:195
    455b:	                                                                            48 89 c5             	mov    %rax,%rbp
    455e:	                                                                            e9 ee f5 ff ff       	jmpq   3b51 <main.cold+0xd5>
main():
/usr/include/c++/10/bits/basic_string.h:195
    4563:	                                                                            66 66 2e 0f 1f 84 00 	data16 nopw %cs:0x0(%rax,%rax,1)
    456a:	00 00 00 00 
    456e:	                                                                            66 90                	xchg   %ax,%ax

0000000000004570 <_GLOBAL__sub_I__Z10PrintLabelRKNSt7__cxx1112basic_stringIcSt11char_traitsIcESaIcEEES6_>:
_GLOBAL__sub_I__Z10PrintLabelRKNSt7__cxx1112basic_stringIcSt11char_traitsIcESaIcEEES6_():
/home/aliha951/forked_gapbs/gapbs/src/pr.cc:111
    4570:	f3 0f 1e fa          	endbr64 
    4574:	48 83 ec 08          	sub    $0x8,%rsp
/usr/include/c++/10/iostream:74
  extern wostream wclog;	/// Linked to standard error (buffered)
#endif
  ///@}

  // For construction of filebuffers for cout, cin, cerr, clog et. al.
  static ios_base::Init __ioinit;
    4578:	48 8d 3d 12 2c 01 00 	lea    0x12c12(%rip),%rdi        # 17191 <_ZStL8__ioinit>
__static_initialization_and_destruction_0():
/usr/include/c++/10/iostream:74
    457f:	e8 cc f2 ff ff       	callq  3850 <_ZNSt8ios_base4InitC1Ev@plt>
    4584:	48 8b 3d 6d 2a 01 00 	mov    0x12a6d(%rip),%rdi        # 16ff8 <_ZNSt8ios_base4InitD1Ev@GLIBCXX_3.4>
_GLOBAL__sub_I__Z10PrintLabelRKNSt7__cxx1112basic_stringIcSt11char_traitsIcESaIcEEES6_():
/home/aliha951/forked_gapbs/gapbs/src/pr.cc:111
    458b:	48 83 c4 08          	add    $0x8,%rsp
__static_initialization_and_destruction_0():
/usr/include/c++/10/iostream:74
    458f:	48 8d 15 72 2a 01 00 	lea    0x12a72(%rip),%rdx        # 17008 <__dso_handle>
    4596:	48 8d 35 f4 2b 01 00 	lea    0x12bf4(%rip),%rsi        # 17191 <_ZStL8__ioinit>
    459d:	e9 0e f1 ff ff       	jmpq   36b0 <__cxa_atexit@plt>
_GLOBAL__sub_I__Z10PrintLabelRKNSt7__cxx1112basic_stringIcSt11char_traitsIcESaIcEEES6_():
    45a2:	66 2e 0f 1f 84 00 00 	nopw   %cs:0x0(%rax,%rax,1)
    45a9:	00 00 00 
    45ac:	0f 1f 40 00          	nopl   0x0(%rax)

00000000000045b0 <_start>:
_start():
    45b0:	f3 0f 1e fa          	endbr64 
    45b4:	31 ed                	xor    %ebp,%ebp
    45b6:	49 89 d1             	mov    %rdx,%r9
    45b9:	5e                   	pop    %rsi
    45ba:	48 89 e2             	mov    %rsp,%rdx
    45bd:	48 83 e4 f0          	and    $0xfffffffffffffff0,%rsp
    45c1:	50                   	push   %rax
    45c2:	54                   	push   %rsp
    45c3:	4c 8d 05 a6 de 00 00 	lea    0xdea6(%rip),%r8        # 12470 <__libc_csu_fini>
    45ca:	48 8d 0d 2f de 00 00 	lea    0xde2f(%rip),%rcx        # 12400 <__libc_csu_init>
    45d1:	48 8d 3d 98 f5 ff ff 	lea    -0xa68(%rip),%rdi        # 3b70 <main>
    45d8:	ff 15 02 2a 01 00    	callq  *0x12a02(%rip)        # 16fe0 <__libc_start_main@GLIBC_2.2.5>
    45de:	f4                   	hlt    
    45df:	90                   	nop

00000000000045e0 <deregister_tm_clones>:
deregister_tm_clones():
    45e0:	    48 8d 3d 31 2a 01 00 	lea    0x12a31(%rip),%rdi        # 17018 <__TMC_END__>
    45e7:	    48 8d 05 2a 2a 01 00 	lea    0x12a2a(%rip),%rax        # 17018 <__TMC_END__>
    45ee:	    48 39 f8             	cmp    %rdi,%rax
    45f1:	/-- 74 15                	je     4608 <deregister_tm_clones+0x28>
    45f3:	|   48 8b 05 de 29 01 00 	mov    0x129de(%rip),%rax        # 16fd8 <_ITM_deregisterTMCloneTable>
    45fa:	|   48 85 c0             	test   %rax,%rax
    45fd:	+-- 74 09                	je     4608 <deregister_tm_clones+0x28>
    45ff:	|   ff e0                	jmpq   *%rax
    4601:	|   0f 1f 80 00 00 00 00 	nopl   0x0(%rax)
    4608:	\-> c3                   	retq   
    4609:	    0f 1f 80 00 00 00 00 	nopl   0x0(%rax)

0000000000004610 <register_tm_clones>:
register_tm_clones():
    4610:	    48 8d 3d 01 2a 01 00 	lea    0x12a01(%rip),%rdi        # 17018 <__TMC_END__>
    4617:	    48 8d 35 fa 29 01 00 	lea    0x129fa(%rip),%rsi        # 17018 <__TMC_END__>
    461e:	    48 29 fe             	sub    %rdi,%rsi
    4621:	    48 89 f0             	mov    %rsi,%rax
    4624:	    48 c1 ee 3f          	shr    $0x3f,%rsi
    4628:	    48 c1 f8 03          	sar    $0x3,%rax
    462c:	    48 01 c6             	add    %rax,%rsi
    462f:	    48 d1 fe             	sar    %rsi
    4632:	/-- 74 14                	je     4648 <register_tm_clones+0x38>
    4634:	|   48 8b 05 b5 29 01 00 	mov    0x129b5(%rip),%rax        # 16ff0 <_ITM_registerTMCloneTable>
    463b:	|   48 85 c0             	test   %rax,%rax
    463e:	+-- 74 08                	je     4648 <register_tm_clones+0x38>
    4640:	|   ff e0                	jmpq   *%rax
    4642:	|   66 0f 1f 44 00 00    	nopw   0x0(%rax,%rax,1)
    4648:	\-> c3                   	retq   
    4649:	    0f 1f 80 00 00 00 00 	nopl   0x0(%rax)

0000000000004650 <__do_global_dtors_aux>:
__do_global_dtors_aux():
    4650:	       f3 0f 1e fa          	endbr64 
    4654:	       80 3d 35 2b 01 00 00 	cmpb   $0x0,0x12b35(%rip)        # 17190 <completed.0>
    465b:	/----- 75 2b                	jne    4688 <__do_global_dtors_aux+0x38>
    465d:	|      55                   	push   %rbp
    465e:	|      48 83 3d 62 29 01 00 	cmpq   $0x0,0x12962(%rip)        # 16fc8 <__cxa_finalize@GLIBC_2.2.5>
    4665:	00 
    4666:	|      48 89 e5             	mov    %rsp,%rbp
    4669:	|  /-- 74 0c                	je     4677 <__do_global_dtors_aux+0x27>
    466b:	|  |   48 8b 3d 96 29 01 00 	mov    0x12996(%rip),%rdi        # 17008 <__dso_handle>
    4672:	|  |   e8 59 ee ff ff       	callq  34d0 <__cxa_finalize@plt>
    4677:	|  \-> e8 64 ff ff ff       	callq  45e0 <deregister_tm_clones>
    467c:	|      c6 05 0d 2b 01 00 01 	movb   $0x1,0x12b0d(%rip)        # 17190 <completed.0>
    4683:	|      5d                   	pop    %rbp
    4684:	|      c3                   	retq   
    4685:	|      0f 1f 00             	nopl   (%rax)
    4688:	\----> c3                   	retq   
    4689:	       0f 1f 80 00 00 00 00 	nopl   0x0(%rax)

0000000000004690 <frame_dummy>:
frame_dummy():
    4690:	f3 0f 1e fa          	endbr64 
    4694:	e9 77 ff ff ff       	jmpq   4610 <register_tm_clones>
    4699:	0f 1f 80 00 00 00 00 	nopl   0x0(%rax)

00000000000046a0 <_Z14PageRankPullGSRK8CSRGraphIiiLb1EEidb._omp_fn.1>:
_Z14PageRankPullGSRK8CSRGraphIiiLb1EEidb._omp_fn.1():
/home/aliha951/forked_gapbs/gapbs/src/pr.cc:45
    #pragma omp parallel for reduction(+ : error) schedule(dynamic, 16384)
    46a0:	                f3 0f 1e fa          	endbr64 
    46a4:	                41 54                	push   %r12
    46a6:	                b9 00 40 00 00       	mov    $0x4000,%ecx
    46ab:	                ba 01 00 00 00       	mov    $0x1,%edx
    46b0:	                55                   	push   %rbp
    46b1:	                53                   	push   %rbx
    46b2:	                48 89 fb             	mov    %rdi,%rbx
    46b5:	                48 83 ec 30          	sub    $0x30,%rsp
    46b9:	                f3 0f 10 6f 20       	movss  0x20(%rdi),%xmm5
    46be:	                64 48 8b 04 25 28 00 	mov    %fs:0x28,%rax
    46c5:	00 00 
    46c7:	                48 89 44 24 28       	mov    %rax,0x28(%rsp)
    46cc:	                31 c0                	xor    %eax,%eax
_ZNK8CSRGraphIiiLb1EE9num_nodesEv():
/home/aliha951/forked_gapbs/gapbs/src/graph.h:194
  bool directed() const {
    return directed_;
  }

  int64_t num_nodes() const {
    return num_nodes_;
    46ce:	                48 8b 07             	mov    (%rdi),%rax
    46d1:	                48 8d 6c 24 20       	lea    0x20(%rsp),%rbp
    46d6:	                4c 8d 64 24 18       	lea    0x18(%rsp),%r12
    46db:	                49 89 e9             	mov    %rbp,%r9
    46de:	                4d 89 e0             	mov    %r12,%r8
    46e1:	                31 ff                	xor    %edi,%edi
_Z14PageRankPullGSRK8CSRGraphIiiLb1EEidb._omp_fn.1():
/home/aliha951/forked_gapbs/gapbs/src/pr.cc:45
    46e3:	                f3 0f 11 2c 24       	movss  %xmm5,(%rsp)
_ZNK8CSRGraphIiiLb1EE9num_nodesEv():
/home/aliha951/forked_gapbs/gapbs/src/graph.h:193
  int64_t num_nodes() const {
    46e8:	                48 63 70 08          	movslq 0x8(%rax),%rsi
    46ec:	                e8 df f1 ff ff       	callq  38d0 <GOMP_loop_nonmonotonic_dynamic_start@plt>
_Z14PageRankPullGSRK8CSRGraphIiiLb1EEidb._omp_fn.1():
/home/aliha951/forked_gapbs/gapbs/src/pr.cc:45
    46f1:	                66 0f ef d2          	pxor   %xmm2,%xmm2
    46f5:	                84 c0                	test   %al,%al
    46f7:	/-------------- 0f 84 fd 00 00 00    	je     47fa <_Z14PageRankPullGSRK8CSRGraphIiiLb1EEidb._omp_fn.1+0x15a>
/home/aliha951/forked_gapbs/gapbs/src/pr.cc:51
      scores[u] = base_score + kDamp * incoming_total;
    46fd:	|               f3 0f 10 3d 3b f2 00 	movss  0xf23b(%rip),%xmm7        # 13940 <_ZZNSt8__detail18__to_chars_10_implIjEEvPcjT_E8__digits+0x240>
    4704:	00 
    4705:	|               f3 0f 10 2c 24       	movss  (%rsp),%xmm5
    470a:	|               66 0f ef e4          	pxor   %xmm4,%xmm4
    470e:	|               f3 0f 10 35 ba f0 00 	movss  0xf0ba(%rip),%xmm6        # 137d0 <_ZZNSt8__detail18__to_chars_10_implIjEEvPcjT_E8__digits+0xd0>
    4715:	00 
    4716:	|               66 2e 0f 1f 84 00 00 	nopw   %cs:0x0(%rax,%rax,1)
    471d:	00 00 00 
/home/aliha951/forked_gapbs/gapbs/src/pr.cc:48
      for (NodeID v : g.in_neigh(u))
    4720:	|  /----------> 48 8b 03             	mov    (%rbx),%rax
    4723:	|  |            44 8b 54 24 20       	mov    0x20(%rsp),%r10d
    4728:	|  |            48 63 4c 24 18       	movslq 0x18(%rsp),%rcx
_ZNK8CSRGraphIiiLb1EE8in_neighEim():
/home/aliha951/forked_gapbs/gapbs/src/graph.h:220
    return Neighborhood(n, out_index_, start_offset);
  }

  Neighborhood in_neigh(NodeID_ n, OffsetT start_offset = 0) const {
    static_assert(MakeInverse, "Graph inversion disabled but reading inverse");
    return Neighborhood(n, in_index_, start_offset);
    472d:	|  |            4c 8b 48 28          	mov    0x28(%rax),%r9
_ZNK8CSRGraphIiiLb1EE10out_degreeEi():
/home/aliha951/forked_gapbs/gapbs/src/graph.h:206
    return out_index_[v+1] - out_index_[v];
    4731:	|  |            4c 8b 40 18          	mov    0x18(%rax),%r8
_ZN7pvectorIfEixEm():
/home/aliha951/forked_gapbs/gapbs/src/pvector.h:116
    reserve(num_elements);
    end_size_ = start_ + num_elements;
  }

  T_& operator[](size_t n) {
    return start_[n];
    4735:	|  |            48 8b 43 08          	mov    0x8(%rbx),%rax
    4739:	|  |            48 8b 38             	mov    (%rax),%rdi
    473c:	|  |            48 8b 43 10          	mov    0x10(%rbx),%rax
    4740:	|  |            48 8b 30             	mov    (%rax),%rsi
    4743:	|  |            0f 1f 44 00 00       	nopl   0x0(%rax,%rax,1)
_ZN8CSRGraphIiiLb1EE12Neighborhood3endEv():
/home/aliha951/forked_gapbs/gapbs/src/graph.h:116 (discriminator 1)
    iterator end()   { return g_index_[n_+1]; }
    4748:	|  |  /-------> 4d 8b 5c c9 08       	mov    0x8(%r9,%rcx,8),%r11
_Z14PageRankPullGSRK8CSRGraphIiiLb1EEidb._omp_fn.1():
/home/aliha951/forked_gapbs/gapbs/src/pr.cc:48 (discriminator 1)
    474d:	|  |  |         49 8b 04 c9          	mov    (%r9,%rcx,8),%rax
/home/aliha951/forked_gapbs/gapbs/src/pr.cc:47 (discriminator 1)
      ScoreT incoming_total = 0;
    4751:	|  |  |         0f 28 c4             	movaps %xmm4,%xmm0
/home/aliha951/forked_gapbs/gapbs/src/pr.cc:48 (discriminator 1)
      for (NodeID v : g.in_neigh(u))
    4754:	|  |  |         49 39 c3             	cmp    %rax,%r11
    4757:	|  |  |  /----- 74 1c                	je     4775 <_Z14PageRankPullGSRK8CSRGraphIiiLb1EEidb._omp_fn.1+0xd5>
    4759:	|  |  |  |      0f 1f 80 00 00 00 00 	nopl   0x0(%rax)
/home/aliha951/forked_gapbs/gapbs/src/pr.cc:49 (discriminator 2)
        incoming_total += outgoing_contrib[v];
    4760:	|  |  |  |  /-> 48 63 10             	movslq (%rax),%rdx
/home/aliha951/forked_gapbs/gapbs/src/pr.cc:48 (discriminator 2)
      for (NodeID v : g.in_neigh(u))
    4763:	|  |  |  |  |   48 83 c0 04          	add    $0x4,%rax
/home/aliha951/forked_gapbs/gapbs/src/pr.cc:49 (discriminator 2)
        incoming_total += outgoing_contrib[v];
    4767:	|  |  |  |  |   f3 0f 58 04 96       	addss  (%rsi,%rdx,4),%xmm0
/home/aliha951/forked_gapbs/gapbs/src/pr.cc:48 (discriminator 2)
      for (NodeID v : g.in_neigh(u))
    476c:	|  |  |  |  |   49 39 c3             	cmp    %rax,%r11
    476f:	|  |  |  |  \-- 75 ef                	jne    4760 <_Z14PageRankPullGSRK8CSRGraphIiiLb1EEidb._omp_fn.1+0xc0>
/home/aliha951/forked_gapbs/gapbs/src/pr.cc:51
      scores[u] = base_score + kDamp * incoming_total;
    4771:	|  |  |  |      f3 0f 59 c7          	mulss  %xmm7,%xmm0
    4775:	|  |  |  \----> f3 0f 58 c5          	addss  %xmm5,%xmm0
/home/aliha951/forked_gapbs/gapbs/src/pr.cc:50
      ScoreT old_score = scores[u];
    4779:	|  |  |         f3 0f 10 1c 8f       	movss  (%rdi,%rcx,4),%xmm3
_ZNK8CSRGraphIiiLb1EE10out_degreeEi():
/home/aliha951/forked_gapbs/gapbs/src/graph.h:206
    return out_index_[v+1] - out_index_[v];
    477e:	|  |  |         49 8b 44 c8 08       	mov    0x8(%r8,%rcx,8),%rax
    4783:	|  |  |         49 2b 04 c8          	sub    (%r8,%rcx,8),%rax
    4787:	|  |  |         48 c1 f8 02          	sar    $0x2,%rax
_Z14PageRankPullGSRK8CSRGraphIiiLb1EEidb._omp_fn.1():
/home/aliha951/forked_gapbs/gapbs/src/pr.cc:52
      error += fabs(scores[u] - old_score);
    478b:	|  |  |         0f 28 c8             	movaps %xmm0,%xmm1
/home/aliha951/forked_gapbs/gapbs/src/pr.cc:51
      scores[u] = base_score + kDamp * incoming_total;
    478e:	|  |  |         f3 0f 11 04 8f       	movss  %xmm0,(%rdi,%rcx,4)
/home/aliha951/forked_gapbs/gapbs/src/pr.cc:52
      error += fabs(scores[u] - old_score);
    4793:	|  |  |         f3 0f 5c cb          	subss  %xmm3,%xmm1
_ZSt4fabsf():
/usr/include/c++/10/cmath:242
  using ::fabs;

#ifndef __CORRECT_ISO_CPP_MATH_H_PROTO
  inline _GLIBCXX_CONSTEXPR float
  fabs(float __x)
  { return __builtin_fabsf(__x); }
    4797:	|  |  |         0f 54 ce             	andps  %xmm6,%xmm1
_Z14PageRankPullGSRK8CSRGraphIiiLb1EEidb._omp_fn.1():
/home/aliha951/forked_gapbs/gapbs/src/pr.cc:52
    479a:	|  |  |         f3 0f 5a c9          	cvtss2sd %xmm1,%xmm1
    479e:	|  |  |         f2 0f 58 d1          	addsd  %xmm1,%xmm2
/home/aliha951/forked_gapbs/gapbs/src/pr.cc:53
      outgoing_contrib[u] = scores[u] / g.out_degree(u);
    47a2:	|  |  |         66 0f ef c9          	pxor   %xmm1,%xmm1
    47a6:	|  |  |         f3 48 0f 2a c8       	cvtsi2ss %rax,%xmm1
    47ab:	|  |  |         f3 0f 5e c1          	divss  %xmm1,%xmm0
    47af:	|  |  |         f3 0f 11 04 8e       	movss  %xmm0,(%rsi,%rcx,4)
    47b4:	|  |  |         48 83 c1 01          	add    $0x1,%rcx
    47b8:	|  |  |         41 39 ca             	cmp    %ecx,%r10d
    47bb:	|  |  \-------- 7f 8b                	jg     4748 <_Z14PageRankPullGSRK8CSRGraphIiiLb1EEidb._omp_fn.1+0xa8>
    47bd:	|  |            48 89 ee             	mov    %rbp,%rsi
    47c0:	|  |            4c 89 e7             	mov    %r12,%rdi
    47c3:	|  |            f3 0f 11 6c 24 0c    	movss  %xmm5,0xc(%rsp)
    47c9:	|  |            f2 0f 11 14 24       	movsd  %xmm2,(%rsp)
    47ce:	|  |            e8 bd ef ff ff       	callq  3790 <GOMP_loop_nonmonotonic_dynamic_next@plt>
    47d3:	|  |            f2 0f 10 14 24       	movsd  (%rsp),%xmm2
    47d8:	|  |            f3 0f 10 6c 24 0c    	movss  0xc(%rsp),%xmm5
    47de:	|  |            66 0f ef e4          	pxor   %xmm4,%xmm4
    47e2:	|  |            84 c0                	test   %al,%al
    47e4:	|  |            f3 0f 10 3d 54 f1 00 	movss  0xf154(%rip),%xmm7        # 13940 <_ZZNSt8__detail18__to_chars_10_implIjEEvPcjT_E8__digits+0x240>
    47eb:	00 
    47ec:	|  |            f3 0f 10 35 dc ef 00 	movss  0xefdc(%rip),%xmm6        # 137d0 <_ZZNSt8__detail18__to_chars_10_implIjEEvPcjT_E8__digits+0xd0>
    47f3:	00 
    47f4:	|  \----------- 0f 85 26 ff ff ff    	jne    4720 <_Z14PageRankPullGSRK8CSRGraphIiiLb1EEidb._omp_fn.1+0x80>
    47fa:	\-------------> f2 0f 11 14 24       	movsd  %xmm2,(%rsp)
    47ff:	                e8 ec ed ff ff       	callq  35f0 <GOMP_loop_end_nowait@plt>
    4804:	                48 8b 53 18          	mov    0x18(%rbx),%rdx
    4808:	                f2 0f 10 14 24       	movsd  (%rsp),%xmm2
/home/aliha951/forked_gapbs/gapbs/src/pr.cc:45 (discriminator 5)
    #pragma omp parallel for reduction(+ : error) schedule(dynamic, 16384)
    480d:	                48 8d 4b 18          	lea    0x18(%rbx),%rcx
    4811:	      /-------> 66 48 0f 6e fa       	movq   %rdx,%xmm7
    4816:	      |         48 89 d0             	mov    %rdx,%rax
    4819:	      |         f2 0f 58 fa          	addsd  %xmm2,%xmm7
    481d:	      |         66 48 0f 7e fe       	movq   %xmm7,%rsi
    4822:	      |         f0 48 0f b1 31       	lock cmpxchg %rsi,(%rcx)
    4827:	      |         48 39 c2             	cmp    %rax,%rdx
    482a:	      |  /----- 75 19                	jne    4845 <_Z14PageRankPullGSRK8CSRGraphIiiLb1EEidb._omp_fn.1+0x1a5>
/home/aliha951/forked_gapbs/gapbs/src/pr.cc:45
    482c:	      |  |      48 8b 44 24 28       	mov    0x28(%rsp),%rax
    4831:	      |  |      64 48 2b 04 25 28 00 	sub    %fs:0x28,%rax
    4838:	00 00 
    483a:	      |  |  /-- 75 0e                	jne    484a <_Z14PageRankPullGSRK8CSRGraphIiiLb1EEidb._omp_fn.1+0x1aa>
    483c:	      |  |  |   48 83 c4 30          	add    $0x30,%rsp
    4840:	      |  |  |   5b                   	pop    %rbx
    4841:	      |  |  |   5d                   	pop    %rbp
    4842:	      |  |  |   41 5c                	pop    %r12
    4844:	      |  |  |   c3                   	retq   
    4845:	      |  \--|-> 48 89 c2             	mov    %rax,%rdx
    4848:	      \-----|-- eb c7                	jmp    4811 <_Z14PageRankPullGSRK8CSRGraphIiiLb1EEidb._omp_fn.1+0x171>
    484a:	            \-> e8 d1 ee ff ff       	callq  3720 <__stack_chk_fail@plt>
    484f:	                90                   	nop

0000000000004850 <_Z14PageRankPullGSRK8CSRGraphIiiLb1EEidb._omp_fn.0>:
_Z14PageRankPullGSRK8CSRGraphIiiLb1EEidb._omp_fn.0():
/home/aliha951/forked_gapbs/gapbs/src/pr.cc:40
  #pragma omp parallel for
    4850:	             f3 0f 1e fa          	endbr64 
    4854:	             41 54                	push   %r12
    4856:	             55                   	push   %rbp
    4857:	             53                   	push   %rbx
    4858:	             48 89 fb             	mov    %rdi,%rbx
/home/aliha951/forked_gapbs/gapbs/src/pr.cc:41
  for (NodeID n=0; n < g.num_nodes(); n++)
    485b:	             4c 8b 27             	mov    (%rdi),%r12
_ZNK8CSRGraphIiiLb1EE9num_nodesEv():
/home/aliha951/forked_gapbs/gapbs/src/graph.h:193
  int64_t num_nodes() const {
    485e:	             e8 ed f0 ff ff       	callq  3950 <omp_get_num_threads@plt>
    4863:	             89 c5                	mov    %eax,%ebp
    4865:	             e8 16 f0 ff ff       	callq  3880 <omp_get_thread_num@plt>
    486a:	             89 c1                	mov    %eax,%ecx
_Z14PageRankPullGSRK8CSRGraphIiiLb1EEidb._omp_fn.0():
/home/aliha951/forked_gapbs/gapbs/src/pr.cc:41
    486c:	             49 8b 44 24 08       	mov    0x8(%r12),%rax
    4871:	             99                   	cltd   
    4872:	             f7 fd                	idiv   %ebp
    4874:	             39 d1                	cmp    %edx,%ecx
    4876:	   /-------- 7c 58                	jl     48d0 <_Z14PageRankPullGSRK8CSRGraphIiiLb1EEidb._omp_fn.0+0x80>
    4878:	/--|-------> 0f af c8             	imul   %eax,%ecx
    487b:	|  |         01 ca                	add    %ecx,%edx
    487d:	|  |         01 d0                	add    %edx,%eax
    487f:	|  |         39 c2                	cmp    %eax,%edx
    4881:	|  |  /----- 7d 47                	jge    48ca <_Z14PageRankPullGSRK8CSRGraphIiiLb1EEidb._omp_fn.0+0x7a>
_ZN7pvectorIfEixEm():
/home/aliha951/forked_gapbs/gapbs/src/pvector.h:116
    4883:	|  |  |      48 8b 4b 08          	mov    0x8(%rbx),%rcx
_Z14PageRankPullGSRK8CSRGraphIiiLb1EEidb._omp_fn.0():
/home/aliha951/forked_gapbs/gapbs/src/pr.cc:40
  #pragma omp parallel for
    4887:	|  |  |      f3 0f 10 53 10       	movss  0x10(%rbx),%xmm2
    488c:	|  |  |      48 63 d2             	movslq %edx,%rdx
_ZNK8CSRGraphIiiLb1EE10out_degreeEi():
/home/aliha951/forked_gapbs/gapbs/src/graph.h:206
    return out_index_[v+1] - out_index_[v];
    488f:	|  |  |      49 8b 74 24 18       	mov    0x18(%r12),%rsi
_ZN7pvectorIfEixEm():
/home/aliha951/forked_gapbs/gapbs/src/pvector.h:116
    4894:	|  |  |      48 8b 39             	mov    (%rcx),%rdi
    4897:	|  |  |      66 0f 1f 84 00 00 00 	nopw   0x0(%rax,%rax,1)
    489e:	00 00 
_ZNK8CSRGraphIiiLb1EE10out_degreeEi():
/home/aliha951/forked_gapbs/gapbs/src/graph.h:206 (discriminator 1)
    48a0:	|  |  |  /-> 48 8b 4c d6 08       	mov    0x8(%rsi,%rdx,8),%rcx
    48a5:	|  |  |  |   48 2b 0c d6          	sub    (%rsi,%rdx,8),%rcx
_Z14PageRankPullGSRK8CSRGraphIiiLb1EEidb._omp_fn.0():
/home/aliha951/forked_gapbs/gapbs/src/pr.cc:42 (discriminator 1)
    outgoing_contrib[n] = init_score / g.out_degree(n);
    48a9:	|  |  |  |   66 0f ef c9          	pxor   %xmm1,%xmm1
    48ad:	|  |  |  |   0f 28 c2             	movaps %xmm2,%xmm0
_ZNK8CSRGraphIiiLb1EE10out_degreeEi():
/home/aliha951/forked_gapbs/gapbs/src/graph.h:206 (discriminator 1)
    48b0:	|  |  |  |   48 c1 f9 02          	sar    $0x2,%rcx
_Z14PageRankPullGSRK8CSRGraphIiiLb1EEidb._omp_fn.0():
/home/aliha951/forked_gapbs/gapbs/src/pr.cc:42 (discriminator 1)
    48b4:	|  |  |  |   f3 48 0f 2a c9       	cvtsi2ss %rcx,%xmm1
    48b9:	|  |  |  |   f3 0f 5e c1          	divss  %xmm1,%xmm0
    48bd:	|  |  |  |   f3 0f 11 04 97       	movss  %xmm0,(%rdi,%rdx,4)
    48c2:	|  |  |  |   48 83 c2 01          	add    $0x1,%rdx
    48c6:	|  |  |  |   39 d0                	cmp    %edx,%eax
    48c8:	|  |  |  \-- 7f d6                	jg     48a0 <_Z14PageRankPullGSRK8CSRGraphIiiLb1EEidb._omp_fn.0+0x50>
/home/aliha951/forked_gapbs/gapbs/src/pr.cc:40
  #pragma omp parallel for
    48ca:	|  |  \----> 5b                   	pop    %rbx
    48cb:	|  |         5d                   	pop    %rbp
    48cc:	|  |         41 5c                	pop    %r12
    48ce:	|  |         c3                   	retq   
    48cf:	|  |         90                   	nop
    48d0:	|  \-------> 83 c0 01             	add    $0x1,%eax
/home/aliha951/forked_gapbs/gapbs/src/pr.cc:41
  for (NodeID n=0; n < g.num_nodes(); n++)
    48d3:	|            31 d2                	xor    %edx,%edx
    48d5:	\----------- eb a1                	jmp    4878 <_Z14PageRankPullGSRK8CSRGraphIiiLb1EEidb._omp_fn.0+0x28>
    48d7:	             66 0f 1f 84 00 00 00 	nopw   0x0(%rax,%rax,1)
    48de:	00 00 

00000000000048e0 <_ZN7pvectorIfE4fillEf._omp_fn.0>:
_ZN7pvectorIfE4fillEf._omp_fn.0():
/home/aliha951/forked_gapbs/gapbs/src/pvector.h:133
    *end_size_ = val;
    end_size_++;
  }

  void fill(T_ init_val) {
    #pragma omp parallel for
    48e0:	                f3 0f 1e fa          	endbr64 
    48e4:	                41 55                	push   %r13
    48e6:	                41 54                	push   %r12
    48e8:	                55                   	push   %rbp
    48e9:	                53                   	push   %rbx
    48ea:	                48 83 ec 08          	sub    $0x8,%rsp
    48ee:	                48 8b 07             	mov    (%rdi),%rax
/home/aliha951/forked_gapbs/gapbs/src/pvector.h:134
    for (T_* ptr=start_; ptr < end_size_; ptr++)
    48f1:	                48 8b 28             	mov    (%rax),%rbp
    48f4:	                4c 8b 68 08          	mov    0x8(%rax),%r13
    48f8:	                4c 39 ed             	cmp    %r13,%rbp
    48fb:	/-------------- 0f 83 e3 00 00 00    	jae    49e4 <_ZN7pvectorIfE4fillEf._omp_fn.0+0x104>
    4901:	|               49 89 fc             	mov    %rdi,%r12
    4904:	|               e8 47 f0 ff ff       	callq  3950 <omp_get_num_threads@plt>
    4909:	|               48 63 d8             	movslq %eax,%rbx
    490c:	|               e8 6f ef ff ff       	callq  3880 <omp_get_thread_num@plt>
    4911:	|               48 63 c8             	movslq %eax,%rcx
    4914:	|               49 8d 45 03          	lea    0x3(%r13),%rax
    4918:	|               48 29 e8             	sub    %rbp,%rax
    491b:	|               48 89 c2             	mov    %rax,%rdx
    491e:	|               48 8d 40 03          	lea    0x3(%rax),%rax
    4922:	|               48 0f 49 c2          	cmovns %rdx,%rax
    4926:	|               48 c1 f8 02          	sar    $0x2,%rax
    492a:	|               48 99                	cqto   
    492c:	|               48 f7 fb             	idiv   %rbx
    492f:	|               48 39 d1             	cmp    %rdx,%rcx
    4932:	|     /-------- 0f 8c b8 00 00 00    	jl     49f0 <_ZN7pvectorIfE4fillEf._omp_fn.0+0x110>
    4938:	|  /--|-------> 48 0f af c8          	imul   %rax,%rcx
    493c:	|  |  |         48 01 ca             	add    %rcx,%rdx
    493f:	|  |  |         48 01 d0             	add    %rdx,%rax
    4942:	|  |  |         48 39 c2             	cmp    %rax,%rdx
    4945:	+--|--|-------- 0f 8d 99 00 00 00    	jge    49e4 <_ZN7pvectorIfE4fillEf._omp_fn.0+0x104>
    494b:	|  |  |         48 c1 e2 02          	shl    $0x2,%rdx
    494f:	|  |  |         48 c1 e0 02          	shl    $0x2,%rax
/home/aliha951/forked_gapbs/gapbs/src/pvector.h:133
    #pragma omp parallel for
    4953:	|  |  |         f3 41 0f 10 4c 24 08 	movss  0x8(%r12),%xmm1
    495a:	|  |  |         48 8d 74 15 00       	lea    0x0(%rbp,%rdx,1),%rsi
    495f:	|  |  |         48 01 c5             	add    %rax,%rbp
    4962:	|  |  |         48 29 d0             	sub    %rdx,%rax
    4965:	|  |  |         48 83 e8 01          	sub    $0x1,%rax
    4969:	|  |  |         48 8d 7e 01          	lea    0x1(%rsi),%rdi
    496d:	|  |  |         48 89 f1             	mov    %rsi,%rcx
    4970:	|  |  |         48 89 c2             	mov    %rax,%rdx
    4973:	|  |  |         48 c1 ea 02          	shr    $0x2,%rdx
    4977:	|  |  |         48 83 c2 01          	add    $0x1,%rdx
    497b:	|  |  |         48 39 fd             	cmp    %rdi,%rbp
    497e:	|  |  |         bf 01 00 00 00       	mov    $0x1,%edi
    4983:	|  |  |         48 0f 42 d7          	cmovb  %rdi,%rdx
    4987:	|  |  |  /----- 72 3b                	jb     49c4 <_ZN7pvectorIfE4fillEf._omp_fn.0+0xe4>
    4989:	|  |  |  |      48 83 f8 0b          	cmp    $0xb,%rax
    498d:	|  |  |  +----- 76 35                	jbe    49c4 <_ZN7pvectorIfE4fillEf._omp_fn.0+0xe4>
    498f:	|  |  |  |      48 89 d0             	mov    %rdx,%rax
    4992:	|  |  |  |      0f 28 c1             	movaps %xmm1,%xmm0
    4995:	|  |  |  |      48 c1 e8 02          	shr    $0x2,%rax
    4999:	|  |  |  |      0f c6 c0 00          	shufps $0x0,%xmm0,%xmm0
    499d:	|  |  |  |      48 c1 e0 04          	shl    $0x4,%rax
    49a1:	|  |  |  |      48 01 f0             	add    %rsi,%rax
    49a4:	|  |  |  |      0f 1f 40 00          	nopl   0x0(%rax)
/home/aliha951/forked_gapbs/gapbs/src/pvector.h:135 (discriminator 1)
      *ptr = init_val;
    49a8:	|  |  |  |  /-> 0f 11 01             	movups %xmm0,(%rcx)
    49ab:	|  |  |  |  |   48 83 c1 10          	add    $0x10,%rcx
    49af:	|  |  |  |  |   48 39 c1             	cmp    %rax,%rcx
    49b2:	|  |  |  |  \-- 75 f4                	jne    49a8 <_ZN7pvectorIfE4fillEf._omp_fn.0+0xc8>
    49b4:	|  |  |  |      48 89 d0             	mov    %rdx,%rax
    49b7:	|  |  |  |      48 83 e0 fc          	and    $0xfffffffffffffffc,%rax
    49bb:	|  |  |  |      48 8d 34 86          	lea    (%rsi,%rax,4),%rsi
    49bf:	|  |  |  |      48 39 c2             	cmp    %rax,%rdx
    49c2:	+--|--|--|----- 74 20                	je     49e4 <_ZN7pvectorIfE4fillEf._omp_fn.0+0x104>
    49c4:	|  |  |  \----> 48 8d 46 04          	lea    0x4(%rsi),%rax
/home/aliha951/forked_gapbs/gapbs/src/pvector.h:135
    49c8:	|  |  |         f3 0f 11 0e          	movss  %xmm1,(%rsi)
    49cc:	|  |  |         48 39 c5             	cmp    %rax,%rbp
    49cf:	+--|--|-------- 76 13                	jbe    49e4 <_ZN7pvectorIfE4fillEf._omp_fn.0+0x104>
    49d1:	|  |  |         48 8d 46 08          	lea    0x8(%rsi),%rax
    49d5:	|  |  |         f3 0f 11 4e 04       	movss  %xmm1,0x4(%rsi)
    49da:	|  |  |         48 39 c5             	cmp    %rax,%rbp
    49dd:	+--|--|-------- 76 05                	jbe    49e4 <_ZN7pvectorIfE4fillEf._omp_fn.0+0x104>
    49df:	|  |  |         f3 0f 11 4e 08       	movss  %xmm1,0x8(%rsi)
/home/aliha951/forked_gapbs/gapbs/src/pvector.h:133
    #pragma omp parallel for
    49e4:	\--|--|-------> 48 83 c4 08          	add    $0x8,%rsp
    49e8:	   |  |         5b                   	pop    %rbx
    49e9:	   |  |         5d                   	pop    %rbp
    49ea:	   |  |         41 5c                	pop    %r12
    49ec:	   |  |         41 5d                	pop    %r13
    49ee:	   |  |         c3                   	retq   
    49ef:	   |  |         90                   	nop
    49f0:	   |  \-------> 48 83 c0 01          	add    $0x1,%rax
/home/aliha951/forked_gapbs/gapbs/src/pvector.h:134
    for (T_* ptr=start_; ptr < end_size_; ptr++)
    49f4:	   |            31 d2                	xor    %edx,%edx
    49f6:	   \----------- e9 3d ff ff ff       	jmpq   4938 <_ZN7pvectorIfE4fillEf._omp_fn.0+0x58>
    49fb:	                0f 1f 44 00 00       	nopl   0x0(%rax,%rax,1)

0000000000004a00 <_ZN8CSRGraphIiiLb1EE8GenIndexERK7pvectorIlEPi._omp_fn.0>:
_ZN8CSRGraphIiiLb1EE8GenIndexERK7pvectorIlEPi._omp_fn.0():
/home/aliha951/forked_gapbs/gapbs/src/graph.h:245
  }

  static DestID_** GenIndex(const pvector<SGOffset> &offsets, DestID_* neighs) {
    NodeID_ length = offsets.size();
    DestID_** index = new DestID_*[length];
    #pragma omp parallel for
    4a00:	             f3 0f 1e fa          	endbr64 
    4a04:	             55                   	push   %rbp
    4a05:	             53                   	push   %rbx
    4a06:	             48 89 fb             	mov    %rdi,%rbx
    4a09:	             48 83 ec 08          	sub    $0x8,%rsp
    4a0d:	             e8 3e ef ff ff       	callq  3950 <omp_get_num_threads@plt>
    4a12:	             89 c5                	mov    %eax,%ebp
    4a14:	             e8 67 ee ff ff       	callq  3880 <omp_get_thread_num@plt>
    4a19:	             89 c1                	mov    %eax,%ecx
    4a1b:	             8b 43 18             	mov    0x18(%rbx),%eax
    4a1e:	             99                   	cltd   
    4a1f:	             f7 fd                	idiv   %ebp
    4a21:	             39 d1                	cmp    %edx,%ecx
    4a23:	   /-------- 7c 43                	jl     4a68 <_ZN8CSRGraphIiiLb1EE8GenIndexERK7pvectorIlEPi._omp_fn.0+0x68>
    4a25:	/--|-------> 0f af c8             	imul   %eax,%ecx
    4a28:	|  |         01 ca                	add    %ecx,%edx
    4a2a:	|  |         01 d0                	add    %edx,%eax
    4a2c:	|  |         39 c2                	cmp    %eax,%edx
    4a2e:	|  |  /----- 7d 2c                	jge    4a5c <_ZN8CSRGraphIiiLb1EE8GenIndexERK7pvectorIlEPi._omp_fn.0+0x5c>
_ZNK7pvectorIlEixEm():
/home/aliha951/forked_gapbs/gapbs/src/pvector.h:120
    return start_[n];
    4a30:	|  |  |      48 8b 0b             	mov    (%rbx),%rcx
_ZN8CSRGraphIiiLb1EE8GenIndexERK7pvectorIlEPi._omp_fn.0():
/home/aliha951/forked_gapbs/gapbs/src/graph.h:245
    4a33:	|  |  |      4c 8b 43 10          	mov    0x10(%rbx),%r8
    4a37:	|  |  |      48 63 d2             	movslq %edx,%rdx
    4a3a:	|  |  |      48 8b 7b 08          	mov    0x8(%rbx),%rdi
_ZNK7pvectorIlEixEm():
/home/aliha951/forked_gapbs/gapbs/src/pvector.h:120
    4a3e:	|  |  |      48 8b 31             	mov    (%rcx),%rsi
    4a41:	|  |  |      0f 1f 80 00 00 00 00 	nopl   0x0(%rax)
_ZN8CSRGraphIiiLb1EE8GenIndexERK7pvectorIlEPi._omp_fn.0():
/home/aliha951/forked_gapbs/gapbs/src/graph.h:247 (discriminator 1)
    for (NodeID_ n=0; n < length; n++)
      index[n] = neighs + offsets[n];
    4a48:	|  |  |  /-> 48 8b 0c d6          	mov    (%rsi,%rdx,8),%rcx
    4a4c:	|  |  |  |   48 8d 0c 8f          	lea    (%rdi,%rcx,4),%rcx
    4a50:	|  |  |  |   49 89 0c d0          	mov    %rcx,(%r8,%rdx,8)
    4a54:	|  |  |  |   48 83 c2 01          	add    $0x1,%rdx
    4a58:	|  |  |  |   39 d0                	cmp    %edx,%eax
    4a5a:	|  |  |  \-- 7f ec                	jg     4a48 <_ZN8CSRGraphIiiLb1EE8GenIndexERK7pvectorIlEPi._omp_fn.0+0x48>
/home/aliha951/forked_gapbs/gapbs/src/graph.h:245
    #pragma omp parallel for
    4a5c:	|  |  \----> 48 83 c4 08          	add    $0x8,%rsp
    4a60:	|  |         5b                   	pop    %rbx
    4a61:	|  |         5d                   	pop    %rbp
    4a62:	|  |         c3                   	retq   
    4a63:	|  |         0f 1f 44 00 00       	nopl   0x0(%rax,%rax,1)
    4a68:	|  \-------> 83 c0 01             	add    $0x1,%eax
    4a6b:	|            31 d2                	xor    %edx,%edx
    4a6d:	\----------- eb b6                	jmp    4a25 <_ZN8CSRGraphIiiLb1EE8GenIndexERK7pvectorIlEPi._omp_fn.0+0x25>
    4a6f:	             90                   	nop

0000000000004a70 <_ZN7pvectorI8EdgePairIiiEE7reserveEm._omp_fn.0>:
_ZN7pvectorI8EdgePairIiiEE7reserveEm._omp_fn.0():
/home/aliha951/forked_gapbs/gapbs/src/pvector.h:86
      #pragma omp parallel for
    4a70:	             f3 0f 1e fa          	endbr64 
    4a74:	             41 55                	push   %r13
    4a76:	             41 54                	push   %r12
    4a78:	             55                   	push   %rbp
    4a79:	             53                   	push   %rbx
    4a7a:	             48 83 ec 08          	sub    $0x8,%rsp
    4a7e:	             48 8b 07             	mov    (%rdi),%rax
_ZNK7pvectorI8EdgePairIiiEE4sizeEv():
/home/aliha951/forked_gapbs/gapbs/src/pvector.h:143
  size_t capacity() const {
    return end_capacity_ - start_;
  }

  size_t size() const {
    return end_size_ - start_;
    4a81:	             4c 8b 20             	mov    (%rax),%r12
    4a84:	             48 8b 40 08          	mov    0x8(%rax),%rax
    4a88:	             4c 29 e0             	sub    %r12,%rax
    4a8b:	             48 c1 f8 03          	sar    $0x3,%rax
    4a8f:	/----------- 74 50                	je     4ae1 <_ZN7pvectorI8EdgePairIiiEE7reserveEm._omp_fn.0+0x71>
    4a91:	|            49 89 fd             	mov    %rdi,%r13
    4a94:	|            48 89 c3             	mov    %rax,%rbx
    4a97:	|            e8 b4 ee ff ff       	callq  3950 <omp_get_num_threads@plt>
    4a9c:	|            89 c5                	mov    %eax,%ebp
    4a9e:	|            e8 dd ed ff ff       	callq  3880 <omp_get_thread_num@plt>
    4aa3:	|            48 63 f5             	movslq %ebp,%rsi
    4aa6:	|            31 d2                	xor    %edx,%edx
    4aa8:	|            48 63 c8             	movslq %eax,%rcx
    4aab:	|            48 89 d8             	mov    %rbx,%rax
    4aae:	|            48 f7 f6             	div    %rsi
    4ab1:	|            48 39 d1             	cmp    %rdx,%rcx
    4ab4:	|     /----- 72 3a                	jb     4af0 <_ZN7pvectorI8EdgePairIiiEE7reserveEm._omp_fn.0+0x80>
    4ab6:	|  /--|----> 48 0f af c8          	imul   %rax,%rcx
    4aba:	|  |  |      48 01 ca             	add    %rcx,%rdx
    4abd:	|  |  |      48 01 d0             	add    %rdx,%rax
    4ac0:	|  |  |      48 39 c2             	cmp    %rax,%rdx
    4ac3:	+--|--|----- 73 1c                	jae    4ae1 <_ZN7pvectorI8EdgePairIiiEE7reserveEm._omp_fn.0+0x71>
_ZN7pvectorI8EdgePairIiiEE7reserveEm._omp_fn.0():
/home/aliha951/forked_gapbs/gapbs/src/pvector.h:86
      #pragma omp parallel for
    4ac5:	|  |  |      49 8b 75 08          	mov    0x8(%r13),%rsi
    4ac9:	|  |  |      0f 1f 80 00 00 00 00 	nopl   0x0(%rax)
/home/aliha951/forked_gapbs/gapbs/src/pvector.h:88 (discriminator 1)
        new_range[i] = start_[i];
    4ad0:	|  |  |  /-> 49 8b 0c d4          	mov    (%r12,%rdx,8),%rcx
    4ad4:	|  |  |  |   48 89 0c d6          	mov    %rcx,(%rsi,%rdx,8)
    4ad8:	|  |  |  |   48 83 c2 01          	add    $0x1,%rdx
    4adc:	|  |  |  |   48 39 d0             	cmp    %rdx,%rax
    4adf:	|  |  |  \-- 75 ef                	jne    4ad0 <_ZN7pvectorI8EdgePairIiiEE7reserveEm._omp_fn.0+0x60>
/home/aliha951/forked_gapbs/gapbs/src/pvector.h:86
      #pragma omp parallel for
    4ae1:	\--|--|----> 48 83 c4 08          	add    $0x8,%rsp
    4ae5:	   |  |      5b                   	pop    %rbx
    4ae6:	   |  |      5d                   	pop    %rbp
    4ae7:	   |  |      41 5c                	pop    %r12
    4ae9:	   |  |      41 5d                	pop    %r13
    4aeb:	   |  |      c3                   	retq   
    4aec:	   |  |      0f 1f 40 00          	nopl   0x0(%rax)
    4af0:	   |  \----> 48 83 c0 01          	add    $0x1,%rax
_ZNK7pvectorI8EdgePairIiiEE4sizeEv():
/home/aliha951/forked_gapbs/gapbs/src/pvector.h:143
    return end_size_ - start_;
    4af4:	   |         31 d2                	xor    %edx,%edx
    4af6:	   \-------- eb be                	jmp    4ab6 <_ZN7pvectorI8EdgePairIiiEE7reserveEm._omp_fn.0+0x46>
_ZN7pvectorI8EdgePairIiiEE7reserveEm._omp_fn.0():
/home/aliha951/forked_gapbs/gapbs/src/pvector.h:143
    4af8:	             0f 1f 84 00 00 00 00 	nopl   0x0(%rax,%rax,1)
    4aff:	00 

0000000000004b00 <_ZN11BuilderBaseIiiiLb1EE12CountDegreesERK7pvectorI8EdgePairIiiEEb._omp_fn.0>:
_ZN11BuilderBaseIiiiLb1EE12CountDegreesERK7pvectorI8EdgePairIiiEEb._omp_fn.0():
/home/aliha951/forked_gapbs/gapbs/src/builder.h:82
    return max_seen;
  }

  pvector<NodeID_> CountDegrees(const EdgeList &el, bool transpose) {
    pvector<NodeID_> degrees(num_nodes_, 0);
    #pragma omp parallel for
    4b00:	                   f3 0f 1e fa          	endbr64 
    4b04:	                   41 55                	push   %r13
    4b06:	                   41 54                	push   %r12
    4b08:	                   55                   	push   %rbp
    4b09:	                   53                   	push   %rbx
    4b0a:	                   48 83 ec 08          	sub    $0x8,%rsp
/home/aliha951/forked_gapbs/gapbs/src/builder.h:83
    for (auto it = el.begin(); it < el.end(); it++) {
    4b0e:	                   48 8b 47 08          	mov    0x8(%rdi),%rax
_ZNK7pvectorI8EdgePairIiiEE5beginEv():
/home/aliha951/forked_gapbs/gapbs/src/pvector.h:147
  }

  iterator begin() const {
    return start_;
    4b12:	                   4c 8b 20             	mov    (%rax),%r12
_ZNK7pvectorI8EdgePairIiiEE3endEv():
/home/aliha951/forked_gapbs/gapbs/src/pvector.h:151
  }

  iterator end() const {
    return end_size_;
    4b15:	                   4c 8b 68 08          	mov    0x8(%rax),%r13
    4b19:	                   4d 39 e5             	cmp    %r12,%r13
    4b1c:	/----------------- 0f 86 8a 00 00 00    	jbe    4bac <_ZN11BuilderBaseIiiiLb1EE12CountDegreesERK7pvectorI8EdgePairIiiEEb._omp_fn.0+0xac>
    4b22:	|                  48 89 fb             	mov    %rdi,%rbx
    4b25:	|                  e8 26 ee ff ff       	callq  3950 <omp_get_num_threads@plt>
    4b2a:	|                  48 63 e8             	movslq %eax,%rbp
    4b2d:	|                  e8 4e ed ff ff       	callq  3880 <omp_get_thread_num@plt>
    4b32:	|                  48 63 c8             	movslq %eax,%rcx
    4b35:	|                  49 8d 45 07          	lea    0x7(%r13),%rax
    4b39:	|                  4c 29 e0             	sub    %r12,%rax
    4b3c:	|                  48 89 c2             	mov    %rax,%rdx
    4b3f:	|                  48 8d 40 07          	lea    0x7(%rax),%rax
    4b43:	|                  48 0f 49 c2          	cmovns %rdx,%rax
    4b47:	|                  48 c1 f8 03          	sar    $0x3,%rax
    4b4b:	|                  48 99                	cqto   
    4b4d:	|                  48 f7 fd             	idiv   %rbp
    4b50:	|                  48 39 d1             	cmp    %rdx,%rcx
    4b53:	|        /-------- 7c 6b                	jl     4bc0 <_ZN11BuilderBaseIiiiLb1EE12CountDegreesERK7pvectorI8EdgePairIiiEEb._omp_fn.0+0xc0>
    4b55:	|     /--|-------> 48 0f af c8          	imul   %rax,%rcx
    4b59:	|     |  |         48 01 ca             	add    %rcx,%rdx
    4b5c:	|     |  |         48 01 d0             	add    %rdx,%rax
    4b5f:	|     |  |         48 39 c2             	cmp    %rax,%rdx
    4b62:	+-----|--|-------- 7d 48                	jge    4bac <_ZN11BuilderBaseIiiiLb1EE12CountDegreesERK7pvectorI8EdgePairIiiEEb._omp_fn.0+0xac>
    4b64:	|     |  |         80 7b 18 00          	cmpb   $0x0,0x18(%rbx)
_ZN11BuilderBaseIiiiLb1EE12CountDegreesERK7pvectorI8EdgePairIiiEEb._omp_fn.0():
/home/aliha951/forked_gapbs/gapbs/src/builder.h:82
    #pragma omp parallel for
    4b68:	|     |  |         48 8b 3b             	mov    (%rbx),%rdi
    4b6b:	|     |  |         49 8d 14 d4          	lea    (%r12,%rdx,8),%rdx
    4b6f:	|     |  |         4d 8d 04 c4          	lea    (%r12,%rax,8),%r8
    4b73:	|  /--|--|-------- 75 53                	jne    4bc8 <_ZN11BuilderBaseIiiiLb1EE12CountDegreesERK7pvectorI8EdgePairIiiEEb._omp_fn.0+0xc8>
    4b75:	|  |  |  |         0f 1f 00             	nopl   (%rax)
_ZN7pvectorIiEixEm():
/home/aliha951/forked_gapbs/gapbs/src/pvector.h:116
    return start_[n];
    4b78:	|  |  |  |  /----> 48 8b 4b 10          	mov    0x10(%rbx),%rcx
_ZN11BuilderBaseIiiiLb1EE12CountDegreesERK7pvectorI8EdgePairIiiEEb._omp_fn.0():
/home/aliha951/forked_gapbs/gapbs/src/builder.h:84
      Edge e = *it;
    4b7c:	|  |  |  |  |      48 63 42 04          	movslq 0x4(%rdx),%rax
/home/aliha951/forked_gapbs/gapbs/src/builder.h:86
      if (symmetrize_ || (!symmetrize_ && !transpose))
        fetch_and_add(degrees[e.u], 1);
    4b80:	|  |  |  |  |      48 63 32             	movslq (%rdx),%rsi
_Z13fetch_and_addIiiET_RS0_T0_():
/home/aliha951/forked_gapbs/gapbs/src/platform_atomics.h:26

    // gcc/clang/icc instrinsics

    template<typename T, typename U>
    T fetch_and_add(T &x, U inc) {
      return __sync_fetch_and_add(&x, inc);
    4b83:	|  |  |  |  |      48 8b 09             	mov    (%rcx),%rcx
    4b86:	|  |  |  |  |      f0 83 04 b1 01       	lock addl $0x1,(%rcx,%rsi,4)
_ZN11BuilderBaseIiiiLb1EE12CountDegreesERK7pvectorI8EdgePairIiiEEb._omp_fn.0():
/home/aliha951/forked_gapbs/gapbs/src/builder.h:87
      if ((symmetrize_ && !in_place_) || (!symmetrize_ && transpose))
    4b8b:	|  |  |  |  |      80 7f 08 00          	cmpb   $0x0,0x8(%rdi)
    4b8f:	|  |  |  |  |  /-- 74 12                	je     4ba3 <_ZN11BuilderBaseIiiiLb1EE12CountDegreesERK7pvectorI8EdgePairIiiEEb._omp_fn.0+0xa3>
    4b91:	|  |  |  |  |  |   80 7f 0a 00          	cmpb   $0x0,0xa(%rdi)
    4b95:	|  |  |  |  |  +-- 75 0c                	jne    4ba3 <_ZN11BuilderBaseIiiiLb1EE12CountDegreesERK7pvectorI8EdgePairIiiEEb._omp_fn.0+0xa3>
_ZN7pvectorIiEixEm():
/home/aliha951/forked_gapbs/gapbs/src/pvector.h:116
    4b97:	|  |  |  |  |  |   48 8b 4b 10          	mov    0x10(%rbx),%rcx
_Z13fetch_and_addIiiET_RS0_T0_():
/home/aliha951/forked_gapbs/gapbs/src/platform_atomics.h:26
    4b9b:	|  |  |  |  |  |   48 8b 09             	mov    (%rcx),%rcx
    4b9e:	|  |  |  |  |  |   f0 83 04 81 01       	lock addl $0x1,(%rcx,%rax,4)
    4ba3:	|  |  |  |  |  \-> 48 83 c2 08          	add    $0x8,%rdx
    4ba7:	|  |  |  |  |      49 39 d0             	cmp    %rdx,%r8
    4baa:	|  |  |  |  \----- 77 cc                	ja     4b78 <_ZN11BuilderBaseIiiiLb1EE12CountDegreesERK7pvectorI8EdgePairIiiEEb._omp_fn.0+0x78>
_ZN11BuilderBaseIiiiLb1EE12CountDegreesERK7pvectorI8EdgePairIiiEEb._omp_fn.0():
/home/aliha951/forked_gapbs/gapbs/src/builder.h:82
    #pragma omp parallel for
    4bac:	>--|--|--|-------> 48 83 c4 08          	add    $0x8,%rsp
    4bb0:	|  |  |  |         5b                   	pop    %rbx
    4bb1:	|  |  |  |         5d                   	pop    %rbp
    4bb2:	|  |  |  |         41 5c                	pop    %r12
    4bb4:	|  |  |  |         41 5d                	pop    %r13
    4bb6:	|  |  |  |         c3                   	retq   
    4bb7:	|  |  |  |         66 0f 1f 84 00 00 00 	nopw   0x0(%rax,%rax,1)
    4bbe:	00 00 
    4bc0:	|  |  |  \-------> 48 83 c0 01          	add    $0x1,%rax
_ZNK7pvectorI8EdgePairIiiEE3endEv():
/home/aliha951/forked_gapbs/gapbs/src/pvector.h:151
    return end_size_;
    4bc4:	|  |  |            31 d2                	xor    %edx,%edx
    4bc6:	|  |  \----------- eb 8d                	jmp    4b55 <_ZN11BuilderBaseIiiiLb1EE12CountDegreesERK7pvectorI8EdgePairIiiEEb._omp_fn.0+0x55>
_ZN11BuilderBaseIiiiLb1EE12CountDegreesERK7pvectorI8EdgePairIiiEEb._omp_fn.0():
/home/aliha951/forked_gapbs/gapbs/src/builder.h:85
      if (symmetrize_ || (!symmetrize_ && !transpose))
    4bc8:	|  >-------------> 80 7f 08 00          	cmpb   $0x0,0x8(%rdi)
/home/aliha951/forked_gapbs/gapbs/src/builder.h:84
      Edge e = *it;
    4bcc:	|  |               48 63 42 04          	movslq 0x4(%rdx),%rax
/home/aliha951/forked_gapbs/gapbs/src/builder.h:85
      if (symmetrize_ || (!symmetrize_ && !transpose))
    4bd0:	|  |        /----- 74 1b                	je     4bed <_ZN11BuilderBaseIiiiLb1EE12CountDegreesERK7pvectorI8EdgePairIiiEEb._omp_fn.0+0xed>
_ZN7pvectorIiEixEm():
/home/aliha951/forked_gapbs/gapbs/src/pvector.h:116
    return start_[n];
    4bd2:	|  |        |      48 8b 4b 10          	mov    0x10(%rbx),%rcx
_ZN11BuilderBaseIiiiLb1EE12CountDegreesERK7pvectorI8EdgePairIiiEEb._omp_fn.0():
/home/aliha951/forked_gapbs/gapbs/src/builder.h:86
        fetch_and_add(degrees[e.u], 1);
    4bd6:	|  |        |      48 63 32             	movslq (%rdx),%rsi
_Z13fetch_and_addIiiET_RS0_T0_():
/home/aliha951/forked_gapbs/gapbs/src/platform_atomics.h:26
    4bd9:	|  |        |      48 8b 09             	mov    (%rcx),%rcx
    4bdc:	|  |        |      f0 83 04 b1 01       	lock addl $0x1,(%rcx,%rsi,4)
_ZN11BuilderBaseIiiiLb1EE12CountDegreesERK7pvectorI8EdgePairIiiEEb._omp_fn.0():
/home/aliha951/forked_gapbs/gapbs/src/builder.h:87
      if ((symmetrize_ && !in_place_) || (!symmetrize_ && transpose))
    4be1:	|  |        |      80 7f 08 00          	cmpb   $0x0,0x8(%rdi)
    4be5:	|  |        +----- 74 06                	je     4bed <_ZN11BuilderBaseIiiiLb1EE12CountDegreesERK7pvectorI8EdgePairIiiEEb._omp_fn.0+0xed>
/home/aliha951/forked_gapbs/gapbs/src/builder.h:87 (discriminator 1)
    4be7:	|  |        |      80 7f 0a 00          	cmpb   $0x0,0xa(%rdi)
    4beb:	|  |        |  /-- 75 0c                	jne    4bf9 <_ZN11BuilderBaseIiiiLb1EE12CountDegreesERK7pvectorI8EdgePairIiiEEb._omp_fn.0+0xf9>
_ZN7pvectorIiEixEm():
/home/aliha951/forked_gapbs/gapbs/src/pvector.h:116
    4bed:	|  |        \--|-> 48 8b 4b 10          	mov    0x10(%rbx),%rcx
_Z13fetch_and_addIiiET_RS0_T0_():
/home/aliha951/forked_gapbs/gapbs/src/platform_atomics.h:26
    4bf1:	|  |           |   48 8b 09             	mov    (%rcx),%rcx
    4bf4:	|  |           |   f0 83 04 81 01       	lock addl $0x1,(%rcx,%rax,4)
    4bf9:	|  |           \-> 48 83 c2 08          	add    $0x8,%rdx
    4bfd:	|  |               49 39 d0             	cmp    %rdx,%r8
    4c00:	|  \-------------- 77 c6                	ja     4bc8 <_ZN11BuilderBaseIiiiLb1EE12CountDegreesERK7pvectorI8EdgePairIiiEEb._omp_fn.0+0xc8>
    4c02:	\----------------- eb a8                	jmp    4bac <_ZN11BuilderBaseIiiiLb1EE12CountDegreesERK7pvectorI8EdgePairIiiEEb._omp_fn.0+0xac>
_ZN11BuilderBaseIiiiLb1EE12CountDegreesERK7pvectorI8EdgePairIiiEEb._omp_fn.0():
/home/aliha951/forked_gapbs/gapbs/src/platform_atomics.h:26
    4c04:	                   66 66 2e 0f 1f 84 00 	data16 nopw %cs:0x0(%rax,%rax,1)
    4c0b:	00 00 00 00 
    4c0f:	                   90                   	nop

0000000000004c10 <_ZN11BuilderBaseIiiiLb1EE17ParallelPrefixSumERK7pvectorIiE._omp_fn.0>:
_ZN11BuilderBaseIiiiLb1EE17ParallelPrefixSumERK7pvectorIiE._omp_fn.0():
/home/aliha951/forked_gapbs/gapbs/src/builder.h:110
  static
  pvector<SGOffset> ParallelPrefixSum(const pvector<NodeID_> &degrees) {
    const size_t block_size = 1<<20;
    const size_t num_blocks = (degrees.size() + block_size - 1) / block_size;
    pvector<SGOffset> local_sums(num_blocks);
    #pragma omp parallel for
    4c10:	                         f3 0f 1e fa          	endbr64 
    4c14:	                         41 54                	push   %r12
    4c16:	                         55                   	push   %rbp
    4c17:	                         53                   	push   %rbx
    4c18:	                         48 8b 5f 08          	mov    0x8(%rdi),%rbx
    4c1c:	                         48 85 db             	test   %rbx,%rbx
    4c1f:	/----------------------- 0f 84 4d 01 00 00    	je     4d72 <_ZN11BuilderBaseIiiiLb1EE17ParallelPrefixSumERK7pvectorIiE._omp_fn.0+0x162>
    4c25:	|                        49 89 fc             	mov    %rdi,%r12
    4c28:	|                        e8 23 ed ff ff       	callq  3950 <omp_get_num_threads@plt>
    4c2d:	|                        89 c5                	mov    %eax,%ebp
    4c2f:	|                        e8 4c ec ff ff       	callq  3880 <omp_get_thread_num@plt>
    4c34:	|                        48 63 cd             	movslq %ebp,%rcx
    4c37:	|                        31 d2                	xor    %edx,%edx
    4c39:	|                        48 63 f0             	movslq %eax,%rsi
    4c3c:	|                        48 89 d8             	mov    %rbx,%rax
    4c3f:	|                        48 f7 f1             	div    %rcx
    4c42:	|                        48 39 d6             	cmp    %rdx,%rsi
    4c45:	|     /----------------- 0f 82 3d 01 00 00    	jb     4d88 <_ZN11BuilderBaseIiiiLb1EE17ParallelPrefixSumERK7pvectorIiE._omp_fn.0+0x178>
    4c4b:	|  /--|----------------> 48 0f af f0          	imul   %rax,%rsi
    4c4f:	|  |  |                  48 01 d6             	add    %rdx,%rsi
    4c52:	|  |  |                  48 01 f0             	add    %rsi,%rax
    4c55:	|  |  |                  48 39 c6             	cmp    %rax,%rsi
    4c58:	+--|--|----------------- 0f 83 14 01 00 00    	jae    4d72 <_ZN11BuilderBaseIiiiLb1EE17ParallelPrefixSumERK7pvectorIiE._omp_fn.0+0x162>
/home/aliha951/forked_gapbs/gapbs/src/builder.h:113
    for (size_t block=0; block < num_blocks; block++) {
      SGOffset lsum = 0;
      size_t block_end = std::min((block + 1) * block_size, degrees.size());
    4c5e:	|  |  |                  49 8b 14 24          	mov    (%r12),%rdx
    4c62:	|  |  |                  49 89 f0             	mov    %rsi,%r8
/home/aliha951/forked_gapbs/gapbs/src/builder.h:115
      for (size_t i=block * block_size; i < block_end; i++)
        lsum += degrees[i];
    4c65:	|  |  |                  66 0f ef e4          	pxor   %xmm4,%xmm4
    4c69:	|  |  |                  49 c1 e0 14          	shl    $0x14,%r8
_ZNK7pvectorIiE4sizeEv():
/home/aliha951/forked_gapbs/gapbs/src/pvector.h:143
    return end_size_ - start_;
    4c6d:	|  |  |                  4c 8b 1a             	mov    (%rdx),%r11
    4c70:	|  |  |                  4c 8b 52 08          	mov    0x8(%rdx),%r10
_ZN7pvectorIlEixEm():
/home/aliha951/forked_gapbs/gapbs/src/pvector.h:116
    return start_[n];
    4c74:	|  |  |                  49 8b 54 24 10       	mov    0x10(%r12),%rdx
_ZNK7pvectorIiE4sizeEv():
/home/aliha951/forked_gapbs/gapbs/src/pvector.h:143
    return end_size_ - start_;
    4c79:	|  |  |                  4d 29 da             	sub    %r11,%r10
_ZN7pvectorIlEixEm():
/home/aliha951/forked_gapbs/gapbs/src/pvector.h:116
    return start_[n];
    4c7c:	|  |  |                  48 8b 12             	mov    (%rdx),%rdx
_ZNK7pvectorIiE4sizeEv():
/home/aliha951/forked_gapbs/gapbs/src/pvector.h:143
    return end_size_ - start_;
    4c7f:	|  |  |                  49 c1 fa 02          	sar    $0x2,%r10
    4c83:	|  |  |                  4c 8d 0c f2          	lea    (%rdx,%rsi,8),%r9
    4c87:	|  |  |                  48 c1 e6 16          	shl    $0x16,%rsi
    4c8b:	|  |  |                  48 8d 2c c2          	lea    (%rdx,%rax,8),%rbp
    4c8f:	|  |  |                  4c 01 de             	add    %r11,%rsi
    4c92:	|  |  |                  66 0f 1f 44 00 00    	nopw   0x0(%rax,%rax,1)
/home/aliha951/forked_gapbs/gapbs/src/pvector.h:142
  size_t size() const {
    4c98:	|  |  |  /-------------> 4c 89 c1             	mov    %r8,%rcx
_ZN11BuilderBaseIiiiLb1EE17ParallelPrefixSumERK7pvectorIiE._omp_fn.0():
/home/aliha951/forked_gapbs/gapbs/src/builder.h:113
      size_t block_end = std::min((block + 1) * block_size, degrees.size());
    4c9b:	|  |  |  |               49 81 c0 00 00 10 00 	add    $0x100000,%r8
    4ca2:	|  |  |  |               4c 89 d3             	mov    %r10,%rbx
    4ca5:	|  |  |  |               4d 39 d0             	cmp    %r10,%r8
    4ca8:	|  |  |  |               49 0f 46 d8          	cmovbe %r8,%rbx
/home/aliha951/forked_gapbs/gapbs/src/builder.h:114
      for (size_t i=block * block_size; i < block_end; i++)
    4cac:	|  |  |  |               48 39 cb             	cmp    %rcx,%rbx
    4caf:	|  |  |  |  /----------- 0f 86 cb 00 00 00    	jbe    4d80 <_ZN11BuilderBaseIiiiLb1EE17ParallelPrefixSumERK7pvectorIiE._omp_fn.0+0x170>
    4cb5:	|  |  |  |  |            48 89 df             	mov    %rbx,%rdi
    4cb8:	|  |  |  |  |            48 29 cf             	sub    %rcx,%rdi
    4cbb:	|  |  |  |  |            48 8d 47 ff          	lea    -0x1(%rdi),%rax
    4cbf:	|  |  |  |  |            48 83 f8 02          	cmp    $0x2,%rax
    4cc3:	|  |  |  |  |  /-------- 0f 86 bb 00 00 00    	jbe    4d84 <_ZN11BuilderBaseIiiiLb1EE17ParallelPrefixSumERK7pvectorIiE._omp_fn.0+0x174>
    4cc9:	|  |  |  |  |  |         48 89 fa             	mov    %rdi,%rdx
    4ccc:	|  |  |  |  |  |         48 89 f0             	mov    %rsi,%rax
    4ccf:	|  |  |  |  |  |         66 0f ef c9          	pxor   %xmm1,%xmm1
    4cd3:	|  |  |  |  |  |         48 c1 ea 02          	shr    $0x2,%rdx
    4cd7:	|  |  |  |  |  |         48 c1 e2 04          	shl    $0x4,%rdx
    4cdb:	|  |  |  |  |  |         48 01 f2             	add    %rsi,%rdx
    4cde:	|  |  |  |  |  |         66 90                	xchg   %ax,%ax
/home/aliha951/forked_gapbs/gapbs/src/builder.h:115 (discriminator 2)
        lsum += degrees[i];
    4ce0:	|  |  |  |  |  |     /-> f3 0f 6f 00          	movdqu (%rax),%xmm0
    4ce4:	|  |  |  |  |  |     |   66 0f 6f d4          	movdqa %xmm4,%xmm2
    4ce8:	|  |  |  |  |  |     |   48 83 c0 10          	add    $0x10,%rax
    4cec:	|  |  |  |  |  |     |   66 0f 66 d0          	pcmpgtd %xmm0,%xmm2
    4cf0:	|  |  |  |  |  |     |   66 0f 6f d8          	movdqa %xmm0,%xmm3
    4cf4:	|  |  |  |  |  |     |   66 0f 62 da          	punpckldq %xmm2,%xmm3
    4cf8:	|  |  |  |  |  |     |   66 0f 6a c2          	punpckhdq %xmm2,%xmm0
    4cfc:	|  |  |  |  |  |     |   66 0f d4 cb          	paddq  %xmm3,%xmm1
    4d00:	|  |  |  |  |  |     |   66 0f d4 c8          	paddq  %xmm0,%xmm1
/home/aliha951/forked_gapbs/gapbs/src/builder.h:114 (discriminator 2)
      for (size_t i=block * block_size; i < block_end; i++)
    4d04:	|  |  |  |  |  |     |   48 39 d0             	cmp    %rdx,%rax
    4d07:	|  |  |  |  |  |     \-- 75 d7                	jne    4ce0 <_ZN11BuilderBaseIiiiLb1EE17ParallelPrefixSumERK7pvectorIiE._omp_fn.0+0xd0>
    4d09:	|  |  |  |  |  |         66 0f 6f c1          	movdqa %xmm1,%xmm0
    4d0d:	|  |  |  |  |  |         48 89 fa             	mov    %rdi,%rdx
    4d10:	|  |  |  |  |  |         66 0f 73 d8 08       	psrldq $0x8,%xmm0
    4d15:	|  |  |  |  |  |         48 83 e2 fc          	and    $0xfffffffffffffffc,%rdx
    4d19:	|  |  |  |  |  |         66 0f d4 c1          	paddq  %xmm1,%xmm0
    4d1d:	|  |  |  |  |  |         48 01 d1             	add    %rdx,%rcx
    4d20:	|  |  |  |  |  |         66 48 0f 7e c0       	movq   %xmm0,%rax
    4d25:	|  |  |  |  |  |         48 39 fa             	cmp    %rdi,%rdx
    4d28:	|  |  |  |  |  |     /-- 74 31                	je     4d5b <_ZN11BuilderBaseIiiiLb1EE17ParallelPrefixSumERK7pvectorIiE._omp_fn.0+0x14b>
/home/aliha951/forked_gapbs/gapbs/src/builder.h:115
        lsum += degrees[i];
    4d2a:	|  |  |  |  |  |  /--|-> 49 63 3c 8b          	movslq (%r11,%rcx,4),%rdi
_ZNK7pvectorIiEixEm():
/home/aliha951/forked_gapbs/gapbs/src/pvector.h:120
    return start_[n];
    4d2e:	|  |  |  |  |  |  |  |   48 8d 14 8d 00 00 00 	lea    0x0(,%rcx,4),%rdx
    4d35:	00 
_ZN11BuilderBaseIiiiLb1EE17ParallelPrefixSumERK7pvectorIiE._omp_fn.0():
/home/aliha951/forked_gapbs/gapbs/src/builder.h:115
    4d36:	|  |  |  |  |  |  |  |   48 01 f8             	add    %rdi,%rax
/home/aliha951/forked_gapbs/gapbs/src/builder.h:114
      for (size_t i=block * block_size; i < block_end; i++)
    4d39:	|  |  |  |  |  |  |  |   48 8d 79 01          	lea    0x1(%rcx),%rdi
    4d3d:	|  |  |  |  |  |  |  |   48 39 df             	cmp    %rbx,%rdi
    4d40:	|  |  |  |  |  |  |  +-- 73 19                	jae    4d5b <_ZN11BuilderBaseIiiiLb1EE17ParallelPrefixSumERK7pvectorIiE._omp_fn.0+0x14b>
/home/aliha951/forked_gapbs/gapbs/src/builder.h:115
        lsum += degrees[i];
    4d42:	|  |  |  |  |  |  |  |   49 63 7c 13 04       	movslq 0x4(%r11,%rdx,1),%rdi
/home/aliha951/forked_gapbs/gapbs/src/builder.h:114
      for (size_t i=block * block_size; i < block_end; i++)
    4d47:	|  |  |  |  |  |  |  |   48 83 c1 02          	add    $0x2,%rcx
/home/aliha951/forked_gapbs/gapbs/src/builder.h:115
        lsum += degrees[i];
    4d4b:	|  |  |  |  |  |  |  |   48 01 f8             	add    %rdi,%rax
/home/aliha951/forked_gapbs/gapbs/src/builder.h:114
      for (size_t i=block * block_size; i < block_end; i++)
    4d4e:	|  |  |  |  |  |  |  |   48 39 cb             	cmp    %rcx,%rbx
    4d51:	|  |  |  |  |  |  |  +-- 76 08                	jbe    4d5b <_ZN11BuilderBaseIiiiLb1EE17ParallelPrefixSumERK7pvectorIiE._omp_fn.0+0x14b>
/home/aliha951/forked_gapbs/gapbs/src/builder.h:115
        lsum += degrees[i];
    4d53:	|  |  |  |  |  |  |  |   49 63 54 13 08       	movslq 0x8(%r11,%rdx,1),%rdx
    4d58:	|  |  |  |  |  |  |  |   48 01 d0             	add    %rdx,%rax
/home/aliha951/forked_gapbs/gapbs/src/builder.h:116
      local_sums[block] = lsum;
    4d5b:	|  |  |  |  |  |  |  >-> 49 89 01             	mov    %rax,(%r9)
    4d5e:	|  |  |  |  |  |  |  |   49 83 c1 08          	add    $0x8,%r9
    4d62:	|  |  |  |  |  |  |  |   48 81 c6 00 00 40 00 	add    $0x400000,%rsi
    4d69:	|  |  |  |  |  |  |  |   49 39 e9             	cmp    %rbp,%r9
    4d6c:	|  |  |  \--|--|--|--|-- 0f 85 26 ff ff ff    	jne    4c98 <_ZN11BuilderBaseIiiiLb1EE17ParallelPrefixSumERK7pvectorIiE._omp_fn.0+0x88>
/home/aliha951/forked_gapbs/gapbs/src/builder.h:110
    #pragma omp parallel for
    4d72:	\--|--|-----|--|--|--|-> 5b                   	pop    %rbx
    4d73:	   |  |     |  |  |  |   5d                   	pop    %rbp
    4d74:	   |  |     |  |  |  |   41 5c                	pop    %r12
    4d76:	   |  |     |  |  |  |   c3                   	retq   
    4d77:	   |  |     |  |  |  |   66 0f 1f 84 00 00 00 	nopw   0x0(%rax,%rax,1)
    4d7e:	00 00 
/home/aliha951/forked_gapbs/gapbs/src/builder.h:112
      SGOffset lsum = 0;
    4d80:	   |  |     \--|--|--|-> 31 c0                	xor    %eax,%eax
    4d82:	   |  |        |  |  \-- eb d7                	jmp    4d5b <_ZN11BuilderBaseIiiiLb1EE17ParallelPrefixSumERK7pvectorIiE._omp_fn.0+0x14b>
    4d84:	   |  |        \--|----> 31 c0                	xor    %eax,%eax
    4d86:	   |  |           \----- eb a2                	jmp    4d2a <_ZN11BuilderBaseIiiiLb1EE17ParallelPrefixSumERK7pvectorIiE._omp_fn.0+0x11a>
    4d88:	   |  \----------------> 48 83 c0 01          	add    $0x1,%rax
/home/aliha951/forked_gapbs/gapbs/src/builder.h:110
    #pragma omp parallel for
    4d8c:	   |                     31 d2                	xor    %edx,%edx
    4d8e:	   \-------------------- e9 b8 fe ff ff       	jmpq   4c4b <_ZN11BuilderBaseIiiiLb1EE17ParallelPrefixSumERK7pvectorIiE._omp_fn.0+0x3b>
    4d93:	                         66 66 2e 0f 1f 84 00 	data16 nopw %cs:0x0(%rax,%rax,1)
    4d9a:	00 00 00 00 
    4d9e:	                         66 90                	xchg   %ax,%ax

0000000000004da0 <_ZN11BuilderBaseIiiiLb1EE17ParallelPrefixSumERK7pvectorIiE._omp_fn.1>:
_ZN11BuilderBaseIiiiLb1EE17ParallelPrefixSumERK7pvectorIiE._omp_fn.1():
/home/aliha951/forked_gapbs/gapbs/src/builder.h:126
      bulk_prefix[block] = total;
      total += local_sums[block];
    }
    bulk_prefix[num_blocks] = total;
    pvector<SGOffset> prefix(degrees.size() + 1);
    #pragma omp parallel for
    4da0:	                   f3 0f 1e fa          	endbr64 
    4da4:	                   41 54                	push   %r12
    4da6:	                   55                   	push   %rbp
    4da7:	                   53                   	push   %rbx
    4da8:	                   48 8b 5f 10          	mov    0x10(%rdi),%rbx
    4dac:	                   48 85 db             	test   %rbx,%rbx
    4daf:	/----------------- 0f 84 98 00 00 00    	je     4e4d <_ZN11BuilderBaseIiiiLb1EE17ParallelPrefixSumERK7pvectorIiE._omp_fn.1+0xad>
    4db5:	|                  48 89 fd             	mov    %rdi,%rbp
    4db8:	|                  e8 93 eb ff ff       	callq  3950 <omp_get_num_threads@plt>
    4dbd:	|                  41 89 c4             	mov    %eax,%r12d
    4dc0:	|                  e8 bb ea ff ff       	callq  3880 <omp_get_thread_num@plt>
    4dc5:	|                  49 63 cc             	movslq %r12d,%rcx
    4dc8:	|                  31 d2                	xor    %edx,%edx
    4dca:	|                  4c 63 c8             	movslq %eax,%r9
    4dcd:	|                  48 89 d8             	mov    %rbx,%rax
    4dd0:	|                  48 f7 f1             	div    %rcx
    4dd3:	|                  49 39 d1             	cmp    %rdx,%r9
    4dd6:	|     /----------- 72 7a                	jb     4e52 <_ZN11BuilderBaseIiiiLb1EE17ParallelPrefixSumERK7pvectorIiE._omp_fn.1+0xb2>
    4dd8:	|  /--|----------> 4c 0f af c8          	imul   %rax,%r9
    4ddc:	|  |  |            49 01 d1             	add    %rdx,%r9
    4ddf:	|  |  |            4c 01 c8             	add    %r9,%rax
    4de2:	|  |  |            49 39 c1             	cmp    %rax,%r9
    4de5:	+--|--|----------- 73 66                	jae    4e4d <_ZN11BuilderBaseIiiiLb1EE17ParallelPrefixSumERK7pvectorIiE._omp_fn.1+0xad>
/home/aliha951/forked_gapbs/gapbs/src/builder.h:129
    for (size_t block=0; block < num_blocks; block++) {
      SGOffset local_total = bulk_prefix[block];
      size_t block_end = std::min((block + 1) * block_size, degrees.size());
    4de7:	|  |  |            48 8b 4d 00          	mov    0x0(%rbp),%rcx
_ZN7pvectorIlEixEm():
/home/aliha951/forked_gapbs/gapbs/src/pvector.h:116
    return start_[n];
    4deb:	|  |  |            48 8b 55 18          	mov    0x18(%rbp),%rdx
_ZN11BuilderBaseIiiiLb1EE17ParallelPrefixSumERK7pvectorIiE._omp_fn.1():
/home/aliha951/forked_gapbs/gapbs/src/builder.h:131
      for (size_t i=block * block_size; i < block_end; i++) {
        prefix[i] = local_total;
    4def:	|  |  |            48 8b 6d 08          	mov    0x8(%rbp),%rbp
_ZNK7pvectorIiE4sizeEv():
/home/aliha951/forked_gapbs/gapbs/src/pvector.h:143
    return end_size_ - start_;
    4df3:	|  |  |            4c 8b 01             	mov    (%rcx),%r8
    4df6:	|  |  |            4c 8b 59 08          	mov    0x8(%rcx),%r11
_ZN7pvectorIlEixEm():
/home/aliha951/forked_gapbs/gapbs/src/pvector.h:116
    return start_[n];
    4dfa:	|  |  |            48 8b 12             	mov    (%rdx),%rdx
_ZNK7pvectorIiE4sizeEv():
/home/aliha951/forked_gapbs/gapbs/src/pvector.h:143
    return end_size_ - start_;
    4dfd:	|  |  |            4d 29 c3             	sub    %r8,%r11
    4e00:	|  |  |            4e 8d 14 ca          	lea    (%rdx,%r9,8),%r10
    4e04:	|  |  |            49 c1 fb 02          	sar    $0x2,%r11
    4e08:	|  |  |            49 c1 e1 14          	shl    $0x14,%r9
    4e0c:	|  |  |            48 8d 1c c2          	lea    (%rdx,%rax,8),%rbx
_ZN7pvectorIlEixEm():
/home/aliha951/forked_gapbs/gapbs/src/pvector.h:115
  T_& operator[](size_t n) {
    4e10:	|  |  |  /-------> 4c 89 c8             	mov    %r9,%rax
_ZN11BuilderBaseIiiiLb1EE17ParallelPrefixSumERK7pvectorIiE._omp_fn.1():
/home/aliha951/forked_gapbs/gapbs/src/builder.h:129
      size_t block_end = std::min((block + 1) * block_size, degrees.size());
    4e13:	|  |  |  |         49 81 c1 00 00 10 00 	add    $0x100000,%r9
    4e1a:	|  |  |  |         4c 89 de             	mov    %r11,%rsi
/home/aliha951/forked_gapbs/gapbs/src/builder.h:128
      SGOffset local_total = bulk_prefix[block];
    4e1d:	|  |  |  |         49 8b 12             	mov    (%r10),%rdx
_ZNK7pvectorIiE4sizeEv():
/home/aliha951/forked_gapbs/gapbs/src/pvector.h:142
  size_t size() const {
    4e20:	|  |  |  |         4d 39 d9             	cmp    %r11,%r9
    4e23:	|  |  |  |         49 0f 46 f1          	cmovbe %r9,%rsi
_ZN11BuilderBaseIiiiLb1EE17ParallelPrefixSumERK7pvectorIiE._omp_fn.1():
/home/aliha951/forked_gapbs/gapbs/src/builder.h:130
      for (size_t i=block * block_size; i < block_end; i++) {
    4e27:	|  |  |  |         48 39 c6             	cmp    %rax,%rsi
    4e2a:	|  |  |  |  /----- 76 18                	jbe    4e44 <_ZN11BuilderBaseIiiiLb1EE17ParallelPrefixSumERK7pvectorIiE._omp_fn.1+0xa4>
_ZN7pvectorIlEixEm():
/home/aliha951/forked_gapbs/gapbs/src/pvector.h:116
    return start_[n];
    4e2c:	|  |  |  |  |      48 8b 7d 00          	mov    0x0(%rbp),%rdi
_ZN11BuilderBaseIiiiLb1EE17ParallelPrefixSumERK7pvectorIiE._omp_fn.1():
/home/aliha951/forked_gapbs/gapbs/src/builder.h:132 (discriminator 2)
        local_total += degrees[i];
    4e30:	|  |  |  |  |  /-> 49 63 0c 80          	movslq (%r8,%rax,4),%rcx
/home/aliha951/forked_gapbs/gapbs/src/builder.h:131 (discriminator 2)
        prefix[i] = local_total;
    4e34:	|  |  |  |  |  |   48 89 14 c7          	mov    %rdx,(%rdi,%rax,8)
/home/aliha951/forked_gapbs/gapbs/src/builder.h:130 (discriminator 2)
      for (size_t i=block * block_size; i < block_end; i++) {
    4e38:	|  |  |  |  |  |   48 83 c0 01          	add    $0x1,%rax
/home/aliha951/forked_gapbs/gapbs/src/builder.h:132 (discriminator 2)
        local_total += degrees[i];
    4e3c:	|  |  |  |  |  |   48 01 ca             	add    %rcx,%rdx
/home/aliha951/forked_gapbs/gapbs/src/builder.h:130 (discriminator 2)
      for (size_t i=block * block_size; i < block_end; i++) {
    4e3f:	|  |  |  |  |  |   48 39 c6             	cmp    %rax,%rsi
    4e42:	|  |  |  |  |  \-- 75 ec                	jne    4e30 <_ZN11BuilderBaseIiiiLb1EE17ParallelPrefixSumERK7pvectorIiE._omp_fn.1+0x90>
    4e44:	|  |  |  |  \----> 49 83 c2 08          	add    $0x8,%r10
    4e48:	|  |  |  |         49 39 da             	cmp    %rbx,%r10
    4e4b:	|  |  |  \-------- 75 c3                	jne    4e10 <_ZN11BuilderBaseIiiiLb1EE17ParallelPrefixSumERK7pvectorIiE._omp_fn.1+0x70>
/home/aliha951/forked_gapbs/gapbs/src/builder.h:126
    #pragma omp parallel for
    4e4d:	\--|--|----------> 5b                   	pop    %rbx
    4e4e:	   |  |            5d                   	pop    %rbp
    4e4f:	   |  |            41 5c                	pop    %r12
    4e51:	   |  |            c3                   	retq   
    4e52:	   |  \----------> 48 83 c0 01          	add    $0x1,%rax
    4e56:	   |               31 d2                	xor    %edx,%edx
    4e58:	   \-------------- e9 7b ff ff ff       	jmpq   4dd8 <_ZN11BuilderBaseIiiiLb1EE17ParallelPrefixSumERK7pvectorIiE._omp_fn.1+0x38>
    4e5d:	                   0f 1f 00             	nopl   (%rax)

0000000000004e60 <_ZN7pvectorIiE4fillEi._omp_fn.0>:
_ZN7pvectorIiE4fillEi._omp_fn.0():
/home/aliha951/forked_gapbs/gapbs/src/pvector.h:133
    #pragma omp parallel for
    4e60:	                f3 0f 1e fa          	endbr64 
    4e64:	                41 55                	push   %r13
    4e66:	                41 54                	push   %r12
    4e68:	                55                   	push   %rbp
    4e69:	                53                   	push   %rbx
    4e6a:	                48 83 ec 08          	sub    $0x8,%rsp
    4e6e:	                48 8b 07             	mov    (%rdi),%rax
/home/aliha951/forked_gapbs/gapbs/src/pvector.h:134
    for (T_* ptr=start_; ptr < end_size_; ptr++)
    4e71:	                48 8b 28             	mov    (%rax),%rbp
    4e74:	                4c 8b 68 08          	mov    0x8(%rax),%r13
    4e78:	                4c 39 ed             	cmp    %r13,%rbp
    4e7b:	/-------------- 0f 83 dd 00 00 00    	jae    4f5e <_ZN7pvectorIiE4fillEi._omp_fn.0+0xfe>
    4e81:	|               49 89 fc             	mov    %rdi,%r12
    4e84:	|               e8 c7 ea ff ff       	callq  3950 <omp_get_num_threads@plt>
    4e89:	|               48 63 d8             	movslq %eax,%rbx
    4e8c:	|               e8 ef e9 ff ff       	callq  3880 <omp_get_thread_num@plt>
    4e91:	|               48 63 c8             	movslq %eax,%rcx
    4e94:	|               49 8d 45 03          	lea    0x3(%r13),%rax
    4e98:	|               48 29 e8             	sub    %rbp,%rax
    4e9b:	|               48 89 c2             	mov    %rax,%rdx
    4e9e:	|               48 8d 40 03          	lea    0x3(%rax),%rax
    4ea2:	|               48 0f 49 c2          	cmovns %rdx,%rax
    4ea6:	|               48 c1 f8 02          	sar    $0x2,%rax
    4eaa:	|               48 99                	cqto   
    4eac:	|               48 f7 fb             	idiv   %rbx
    4eaf:	|               48 39 d1             	cmp    %rdx,%rcx
    4eb2:	|     /-------- 0f 8c b8 00 00 00    	jl     4f70 <_ZN7pvectorIiE4fillEi._omp_fn.0+0x110>
    4eb8:	|  /--|-------> 48 0f af c8          	imul   %rax,%rcx
    4ebc:	|  |  |         48 01 ca             	add    %rcx,%rdx
    4ebf:	|  |  |         48 01 d0             	add    %rdx,%rax
    4ec2:	|  |  |         48 39 c2             	cmp    %rax,%rdx
    4ec5:	+--|--|-------- 0f 8d 93 00 00 00    	jge    4f5e <_ZN7pvectorIiE4fillEi._omp_fn.0+0xfe>
    4ecb:	|  |  |         48 c1 e2 02          	shl    $0x2,%rdx
    4ecf:	|  |  |         48 c1 e0 02          	shl    $0x2,%rax
/home/aliha951/forked_gapbs/gapbs/src/pvector.h:133
    #pragma omp parallel for
    4ed3:	|  |  |         41 8b 7c 24 08       	mov    0x8(%r12),%edi
    4ed8:	|  |  |         48 8d 74 15 00       	lea    0x0(%rbp,%rdx,1),%rsi
    4edd:	|  |  |         48 01 c5             	add    %rax,%rbp
    4ee0:	|  |  |         48 29 d0             	sub    %rdx,%rax
    4ee3:	|  |  |         48 83 e8 01          	sub    $0x1,%rax
    4ee7:	|  |  |         4c 8d 46 01          	lea    0x1(%rsi),%r8
    4eeb:	|  |  |         48 89 f1             	mov    %rsi,%rcx
    4eee:	|  |  |         48 89 c2             	mov    %rax,%rdx
    4ef1:	|  |  |         48 c1 ea 02          	shr    $0x2,%rdx
    4ef5:	|  |  |         48 83 c2 01          	add    $0x1,%rdx
    4ef9:	|  |  |         4c 39 c5             	cmp    %r8,%rbp
    4efc:	|  |  |         41 b8 01 00 00 00    	mov    $0x1,%r8d
    4f02:	|  |  |         49 0f 42 d0          	cmovb  %r8,%rdx
    4f06:	|  |  |  /----- 72 3c                	jb     4f44 <_ZN7pvectorIiE4fillEi._omp_fn.0+0xe4>
    4f08:	|  |  |  |      48 83 f8 0b          	cmp    $0xb,%rax
    4f0c:	|  |  |  +----- 76 36                	jbe    4f44 <_ZN7pvectorIiE4fillEi._omp_fn.0+0xe4>
    4f0e:	|  |  |  |      48 89 d0             	mov    %rdx,%rax
    4f11:	|  |  |  |      66 0f 6e cf          	movd   %edi,%xmm1
    4f15:	|  |  |  |      48 c1 e8 02          	shr    $0x2,%rax
    4f19:	|  |  |  |      66 0f 70 c1 00       	pshufd $0x0,%xmm1,%xmm0
    4f1e:	|  |  |  |      48 c1 e0 04          	shl    $0x4,%rax
    4f22:	|  |  |  |      48 01 f0             	add    %rsi,%rax
    4f25:	|  |  |  |      0f 1f 00             	nopl   (%rax)
/home/aliha951/forked_gapbs/gapbs/src/pvector.h:135 (discriminator 1)
      *ptr = init_val;
    4f28:	|  |  |  |  /-> 0f 11 01             	movups %xmm0,(%rcx)
    4f2b:	|  |  |  |  |   48 83 c1 10          	add    $0x10,%rcx
    4f2f:	|  |  |  |  |   48 39 c1             	cmp    %rax,%rcx
    4f32:	|  |  |  |  \-- 75 f4                	jne    4f28 <_ZN7pvectorIiE4fillEi._omp_fn.0+0xc8>
    4f34:	|  |  |  |      48 89 d0             	mov    %rdx,%rax
    4f37:	|  |  |  |      48 83 e0 fc          	and    $0xfffffffffffffffc,%rax
    4f3b:	|  |  |  |      48 8d 34 86          	lea    (%rsi,%rax,4),%rsi
    4f3f:	|  |  |  |      48 39 c2             	cmp    %rax,%rdx
    4f42:	+--|--|--|----- 74 1a                	je     4f5e <_ZN7pvectorIiE4fillEi._omp_fn.0+0xfe>
    4f44:	|  |  |  \----> 48 8d 46 04          	lea    0x4(%rsi),%rax
/home/aliha951/forked_gapbs/gapbs/src/pvector.h:135
    4f48:	|  |  |         89 3e                	mov    %edi,(%rsi)
    4f4a:	|  |  |         48 39 c5             	cmp    %rax,%rbp
    4f4d:	+--|--|-------- 76 0f                	jbe    4f5e <_ZN7pvectorIiE4fillEi._omp_fn.0+0xfe>
    4f4f:	|  |  |         48 8d 46 08          	lea    0x8(%rsi),%rax
    4f53:	|  |  |         89 7e 04             	mov    %edi,0x4(%rsi)
    4f56:	|  |  |         48 39 c5             	cmp    %rax,%rbp
    4f59:	+--|--|-------- 76 03                	jbe    4f5e <_ZN7pvectorIiE4fillEi._omp_fn.0+0xfe>
    4f5b:	|  |  |         89 7e 08             	mov    %edi,0x8(%rsi)
/home/aliha951/forked_gapbs/gapbs/src/pvector.h:133
    #pragma omp parallel for
    4f5e:	\--|--|-------> 48 83 c4 08          	add    $0x8,%rsp
    4f62:	   |  |         5b                   	pop    %rbx
    4f63:	   |  |         5d                   	pop    %rbp
    4f64:	   |  |         41 5c                	pop    %r12
    4f66:	   |  |         41 5d                	pop    %r13
    4f68:	   |  |         c3                   	retq   
    4f69:	   |  |         0f 1f 80 00 00 00 00 	nopl   0x0(%rax)
    4f70:	   |  \-------> 48 83 c0 01          	add    $0x1,%rax
/home/aliha951/forked_gapbs/gapbs/src/pvector.h:134
    for (T_* ptr=start_; ptr < end_size_; ptr++)
    4f74:	   |            31 d2                	xor    %edx,%edx
    4f76:	   \----------- e9 3d ff ff ff       	jmpq   4eb8 <_ZN7pvectorIiE4fillEi._omp_fn.0+0x58>
    4f7b:	                0f 1f 44 00 00       	nopl   0x0(%rax,%rax,1)

0000000000004f80 <_ZSt13__adjust_heapIPiliN9__gnu_cxx5__ops15_Iter_less_iterEEvT_T0_S5_T1_T2_.isra.0>:
_ZSt13__adjust_heapIPiliN9__gnu_cxx5__ops15_Iter_less_iterEEvT_T0_S5_T1_T2_():
/usr/include/c++/10/bits/stl_heap.h:228
    __adjust_heap(_RandomAccessIterator __first, _Distance __holeIndex,
		  _Distance __len, _Tp __value, _Compare __comp)
    {
      const _Distance __topIndex = __holeIndex;
      _Distance __secondChild = __holeIndex;
      while (__secondChild < (__len - 1) / 2)
    4f80:	                      48 8d 42 ff          	lea    -0x1(%rdx),%rax
/usr/include/c++/10/bits/stl_heap.h:223
    __adjust_heap(_RandomAccessIterator __first, _Distance __holeIndex,
    4f84:	                      55                   	push   %rbp
/usr/include/c++/10/bits/stl_heap.h:237
		     __first + (__secondChild - 1)))
	    __secondChild--;
	  *(__first + __holeIndex) = _GLIBCXX_MOVE(*(__first + __secondChild));
	  __holeIndex = __secondChild;
	}
      if ((__len & 1) == 0 && __secondChild == (__len - 2) / 2)
    4f85:	                      48 89 d5             	mov    %rdx,%rbp
/usr/include/c++/10/bits/stl_heap.h:223
    __adjust_heap(_RandomAccessIterator __first, _Distance __holeIndex,
    4f88:	                      49 89 f0             	mov    %rsi,%r8
/usr/include/c++/10/bits/stl_heap.h:228
      while (__secondChild < (__len - 1) / 2)
    4f8b:	                      49 89 c3             	mov    %rax,%r11
/usr/include/c++/10/bits/stl_heap.h:223
    __adjust_heap(_RandomAccessIterator __first, _Distance __holeIndex,
    4f8e:	                      53                   	push   %rbx
    4f8f:	                      41 89 c9             	mov    %ecx,%r9d
    4f92:	                      48 89 d3             	mov    %rdx,%rbx
/usr/include/c++/10/bits/stl_heap.h:228
      while (__secondChild < (__len - 1) / 2)
    4f95:	                      49 c1 eb 3f          	shr    $0x3f,%r11
/usr/include/c++/10/bits/stl_heap.h:237
      if ((__len & 1) == 0 && __secondChild == (__len - 2) / 2)
    4f99:	                      83 e5 01             	and    $0x1,%ebp
/usr/include/c++/10/bits/stl_heap.h:228
      while (__secondChild < (__len - 1) / 2)
    4f9c:	                      49 01 c3             	add    %rax,%r11
    4f9f:	                      49 d1 fb             	sar    %r11
    4fa2:	                      4c 39 de             	cmp    %r11,%rsi
    4fa5:	                  /-- 7c 1e                	jl     4fc5 <_ZSt13__adjust_heapIPiliN9__gnu_cxx5__ops15_Iter_less_iterEEvT_T0_S5_T1_T2_.isra.0+0x45>
    4fa7:	/-----------------|-- e9 94 00 00 00       	jmpq   5040 <_ZSt13__adjust_heapIPiliN9__gnu_cxx5__ops15_Iter_less_iterEEvT_T0_S5_T1_T2_.isra.0+0xc0>
    4fac:	|                 |   0f 1f 40 00          	nopl   0x0(%rax)
/usr/include/c++/10/bits/stl_heap.h:233
	    __secondChild--;
    4fb0:	|        /--------|-> 48 83 e8 01          	sub    $0x1,%rax
/usr/include/c++/10/bits/stl_heap.h:234
	  *(__first + __holeIndex) = _GLIBCXX_MOVE(*(__first + __secondChild));
    4fb4:	|        |        |   48 8d 0c 87          	lea    (%rdi,%rax,4),%rcx
    4fb8:	|        |        |   8b 11                	mov    (%rcx),%edx
    4fba:	|        |        |   89 14 b7             	mov    %edx,(%rdi,%rsi,4)
/usr/include/c++/10/bits/stl_heap.h:228
      while (__secondChild < (__len - 1) / 2)
    4fbd:	|        |        |   4c 39 d8             	cmp    %r11,%rax
    4fc0:	|        |  /-----|-- 7d 26                	jge    4fe8 <_ZSt13__adjust_heapIPiliN9__gnu_cxx5__ops15_Iter_less_iterEEvT_T0_S5_T1_T2_.isra.0+0x68>
/usr/include/c++/10/bits/stl_heap.h:223
    __adjust_heap(_RandomAccessIterator __first, _Distance __holeIndex,
    4fc2:	|        |  |  /--|-> 48 89 c6             	mov    %rax,%rsi
/usr/include/c++/10/bits/stl_heap.h:230
	  __secondChild = 2 * (__secondChild + 1);
    4fc5:	|        |  |  |  \-> 48 8d 56 01          	lea    0x1(%rsi),%rdx
    4fc9:	|        |  |  |      48 8d 04 12          	lea    (%rdx,%rdx,1),%rax
/usr/include/c++/10/bits/stl_heap.h:232
		     __first + (__secondChild - 1)))
    4fcd:	|        |  |  |      48 c1 e2 03          	shl    $0x3,%rdx
/usr/include/c++/10/bits/stl_heap.h:231
	  if (__comp(__first + __secondChild,
    4fd1:	|        |  |  |      48 8d 0c 17          	lea    (%rdi,%rdx,1),%rcx
_ZNK9__gnu_cxx5__ops15_Iter_less_iterclIPiS3_EEbT_T0_():
/usr/include/c++/10/bits/predefined_ops.h:43
  {
    template<typename _Iterator1, typename _Iterator2>
      _GLIBCXX14_CONSTEXPR
      bool
      operator()(_Iterator1 __it1, _Iterator2 __it2) const
      { return *__it1 < *__it2; }
    4fd5:	|        |  |  |      44 8b 11             	mov    (%rcx),%r10d
_ZSt13__adjust_heapIPiliN9__gnu_cxx5__ops15_Iter_less_iterEEvT_T0_S5_T1_T2_():
/usr/include/c++/10/bits/stl_heap.h:231
    4fd8:	|        |  |  |      44 3b 54 17 fc       	cmp    -0x4(%rdi,%rdx,1),%r10d
    4fdd:	|        \--|--|----- 7c d1                	jl     4fb0 <_ZSt13__adjust_heapIPiliN9__gnu_cxx5__ops15_Iter_less_iterEEvT_T0_S5_T1_T2_.isra.0+0x30>
/usr/include/c++/10/bits/stl_heap.h:234
	  *(__first + __holeIndex) = _GLIBCXX_MOVE(*(__first + __secondChild));
    4fdf:	|           |  |      44 89 14 b7          	mov    %r10d,(%rdi,%rsi,4)
/usr/include/c++/10/bits/stl_heap.h:228
      while (__secondChild < (__len - 1) / 2)
    4fe3:	|           |  |      4c 39 d8             	cmp    %r11,%rax
    4fe6:	|           |  \----- 7c da                	jl     4fc2 <_ZSt13__adjust_heapIPiliN9__gnu_cxx5__ops15_Iter_less_iterEEvT_T0_S5_T1_T2_.isra.0+0x42>
/usr/include/c++/10/bits/stl_heap.h:237
      if ((__len & 1) == 0 && __secondChild == (__len - 2) / 2)
    4fe8:	|           \-------> 48 85 ed             	test   %rbp,%rbp
    4feb:	|     /-------------- 74 63                	je     5050 <_ZSt13__adjust_heapIPiliN9__gnu_cxx5__ops15_Iter_less_iterEEvT_T0_S5_T1_T2_.isra.0+0xd0>
_ZSt11__push_heapIPiliN9__gnu_cxx5__ops14_Iter_less_valEEvT_T0_S5_T1_RT2_():
/usr/include/c++/10/bits/stl_heap.h:138
      _Distance __parent = (__holeIndex - 1) / 2;
    4fed:	|  /--|-------------> 48 8d 50 ff          	lea    -0x1(%rax),%rdx
    4ff1:	|  |  |               48 89 d6             	mov    %rdx,%rsi
    4ff4:	|  |  |               48 c1 ee 3f          	shr    $0x3f,%rsi
    4ff8:	|  |  |               48 01 d6             	add    %rdx,%rsi
    4ffb:	|  |  |               48 d1 fe             	sar    %rsi
/usr/include/c++/10/bits/stl_heap.h:139
      while (__holeIndex > __topIndex && __comp(__first + __parent, __value))
    4ffe:	|  |  |               4c 39 c0             	cmp    %r8,%rax
    5001:	|  |  |           /-- 7f 26                	jg     5029 <_ZSt13__adjust_heapIPiliN9__gnu_cxx5__ops15_Iter_less_iterEEvT_T0_S5_T1_T2_.isra.0+0xa9>
    5003:	|  |  |     /-----|-- eb 34                	jmp    5039 <_ZSt13__adjust_heapIPiliN9__gnu_cxx5__ops15_Iter_less_iterEEvT_T0_S5_T1_T2_.isra.0+0xb9>
    5005:	|  |  |     |     |   0f 1f 00             	nopl   (%rax)
/usr/include/c++/10/bits/stl_heap.h:141
	  *(__first + __holeIndex) = _GLIBCXX_MOVE(*(__first + __parent));
    5008:	|  |  |     |  /--|-> 89 11                	mov    %edx,(%rcx)
/usr/include/c++/10/bits/stl_heap.h:143
	  __parent = (__holeIndex - 1) / 2;
    500a:	|  |  |     |  |  |   48 8d 56 ff          	lea    -0x1(%rsi),%rdx
    500e:	|  |  |     |  |  |   48 89 d0             	mov    %rdx,%rax
    5011:	|  |  |     |  |  |   48 c1 e8 3f          	shr    $0x3f,%rax
    5015:	|  |  |     |  |  |   48 01 d0             	add    %rdx,%rax
    5018:	|  |  |     |  |  |   48 d1 f8             	sar    %rax
    501b:	|  |  |     |  |  |   48 89 c2             	mov    %rax,%rdx
/usr/include/c++/10/bits/stl_heap.h:139
      while (__holeIndex > __topIndex && __comp(__first + __parent, __value))
    501e:	|  |  |     |  |  |   48 89 f0             	mov    %rsi,%rax
    5021:	|  |  |     |  |  |   49 39 f0             	cmp    %rsi,%r8
    5024:	|  |  |  /--|--|--|-- 7d 5a                	jge    5080 <_ZSt13__adjust_heapIPiliN9__gnu_cxx5__ops15_Iter_less_iterEEvT_T0_S5_T1_T2_.isra.0+0x100>
/usr/include/c++/10/bits/stl_heap.h:143
	  __parent = (__holeIndex - 1) / 2;
    5026:	|  |  |  |  |  |  |   48 89 d6             	mov    %rdx,%rsi
/usr/include/c++/10/bits/stl_heap.h:139
      while (__holeIndex > __topIndex && __comp(__first + __parent, __value))
    5029:	|  |  |  |  |  |  \-> 4c 8d 14 b7          	lea    (%rdi,%rsi,4),%r10
/usr/include/c++/10/bits/stl_heap.h:141
	  *(__first + __holeIndex) = _GLIBCXX_MOVE(*(__first + __parent));
    502d:	|  |  |  |  |  |      48 8d 0c 87          	lea    (%rdi,%rax,4),%rcx
_ZNK9__gnu_cxx5__ops14_Iter_less_valclIPiiEEbT_RT0_():
/usr/include/c++/10/bits/predefined_ops.h:67

    template<typename _Iterator, typename _Value>
      _GLIBCXX20_CONSTEXPR
      bool
      operator()(_Iterator __it, _Value& __val) const
      { return *__it < __val; }
    5031:	|  |  |  |  |  |      41 8b 12             	mov    (%r10),%edx
_ZSt11__push_heapIPiliN9__gnu_cxx5__ops14_Iter_less_valEEvT_T0_S5_T1_RT2_():
/usr/include/c++/10/bits/stl_heap.h:139
      while (__holeIndex > __topIndex && __comp(__first + __parent, __value))
    5034:	|  |  |  |  |  |      44 39 ca             	cmp    %r9d,%edx
    5037:	|  |  |  |  |  \----- 7c cf                	jl     5008 <_ZSt13__adjust_heapIPiliN9__gnu_cxx5__ops15_Iter_less_iterEEvT_T0_S5_T1_T2_.isra.0+0x88>
/usr/include/c++/10/bits/stl_heap.h:145
      *(__first + __holeIndex) = _GLIBCXX_MOVE(__value);
    5039:	|  |  |  |  >-------> 44 89 09             	mov    %r9d,(%rcx)
_ZSt13__adjust_heapIPiliN9__gnu_cxx5__ops15_Iter_less_iterEEvT_T0_S5_T1_T2_():
/usr/include/c++/10/bits/stl_heap.h:248
	}
      __decltype(__gnu_cxx::__ops::__iter_comp_val(_GLIBCXX_MOVE(__comp)))
	__cmp(_GLIBCXX_MOVE(__comp));
      std::__push_heap(__first, __holeIndex, __topIndex,
		       _GLIBCXX_MOVE(__value), __cmp);
    }
    503c:	|  |  |  |  |         5b                   	pop    %rbx
    503d:	|  |  |  |  |         5d                   	pop    %rbp
    503e:	|  |  |  |  |         c3                   	retq   
    503f:	|  |  |  |  |         90                   	nop
_ZSt11__push_heapIPiliN9__gnu_cxx5__ops14_Iter_less_valEEvT_T0_S5_T1_RT2_():
/usr/include/c++/10/bits/stl_heap.h:145
      *(__first + __holeIndex) = _GLIBCXX_MOVE(__value);
    5040:	\--|--|--|--|-------> 48 8d 0c b7          	lea    (%rdi,%rsi,4),%rcx
_ZSt13__adjust_heapIPiliN9__gnu_cxx5__ops15_Iter_less_iterEEvT_T0_S5_T1_T2_():
/usr/include/c++/10/bits/stl_heap.h:237
      if ((__len & 1) == 0 && __secondChild == (__len - 2) / 2)
    5044:	   |  |  |  |         48 85 ed             	test   %rbp,%rbp
    5047:	   |  |  |  \-------- 75 f0                	jne    5039 <_ZSt13__adjust_heapIPiliN9__gnu_cxx5__ops15_Iter_less_iterEEvT_T0_S5_T1_T2_.isra.0+0xb9>
    5049:	   |  |  |            4c 89 c0             	mov    %r8,%rax
    504c:	   |  |  |            0f 1f 40 00          	nopl   0x0(%rax)
    5050:	   |  \--|----------> 48 8d 53 fe          	lea    -0x2(%rbx),%rdx
    5054:	   |     |            48 89 d3             	mov    %rdx,%rbx
    5057:	   |     |            48 c1 eb 3f          	shr    $0x3f,%rbx
    505b:	   |     |            48 01 d3             	add    %rdx,%rbx
    505e:	   |     |            48 d1 fb             	sar    %rbx
    5061:	   |     |            48 39 d8             	cmp    %rbx,%rax
    5064:	   +-----|----------- 75 87                	jne    4fed <_ZSt13__adjust_heapIPiliN9__gnu_cxx5__ops15_Iter_less_iterEEvT_T0_S5_T1_T2_.isra.0+0x6d>
/usr/include/c++/10/bits/stl_heap.h:239
	  __secondChild = 2 * (__secondChild + 1);
    5066:	   |     |            48 8d 44 00 02       	lea    0x2(%rax,%rax,1),%rax
/usr/include/c++/10/bits/stl_heap.h:240
	  *(__first + __holeIndex) = _GLIBCXX_MOVE(*(__first
    506b:	   |     |            8b 54 87 fc          	mov    -0x4(%rdi,%rax,4),%edx
/usr/include/c++/10/bits/stl_heap.h:242
	  __holeIndex = __secondChild - 1;
    506f:	   |     |            48 83 e8 01          	sub    $0x1,%rax
/usr/include/c++/10/bits/stl_heap.h:240
	  *(__first + __holeIndex) = _GLIBCXX_MOVE(*(__first
    5073:	   |     |            89 11                	mov    %edx,(%rcx)
_ZSt11__push_heapIPiliN9__gnu_cxx5__ops14_Iter_less_valEEvT_T0_S5_T1_RT2_():
/usr/include/c++/10/bits/stl_heap.h:145
      *(__first + __holeIndex) = _GLIBCXX_MOVE(__value);
    5075:	   |     |            48 8d 0c 87          	lea    (%rdi,%rax,4),%rcx
_ZSt13__adjust_heapIPiliN9__gnu_cxx5__ops15_Iter_less_iterEEvT_T0_S5_T1_T2_():
/usr/include/c++/10/bits/stl_heap.h:145
    5079:	   \-----|----------- e9 6f ff ff ff       	jmpq   4fed <_ZSt13__adjust_heapIPiliN9__gnu_cxx5__ops15_Iter_less_iterEEvT_T0_S5_T1_T2_.isra.0+0x6d>
    507e:	         |            66 90                	xchg   %ax,%ax
_ZSt11__push_heapIPiliN9__gnu_cxx5__ops14_Iter_less_valEEvT_T0_S5_T1_RT2_():
/usr/include/c++/10/bits/stl_heap.h:145
    5080:	         \----------> 4c 89 d1             	mov    %r10,%rcx
    5083:	                      44 89 09             	mov    %r9d,(%rcx)
