
sssp:     file format elf64-x86-64


Disassembly of section .init:

0000000000003000 <_init>:
_init():
    3000:	    f3 0f 1e fa          	endbr64 
    3004:	    48 83 ec 08          	sub    $0x8,%rsp
    3008:	    48 8b 05 d9 4f 01 00 	mov    0x14fd9(%rip),%rax        # 17fe8 <__gmon_start__>
    300f:	    48 85 c0             	test   %rax,%rax
    3012:	/-- 74 02                	je     3016 <_init+0x16>
    3014:	|   ff d0                	callq  *%rax
    3016:	\-> 48 83 c4 08          	add    $0x8,%rsp
    301a:	    c3                   	retq   

Disassembly of section .plt:

0000000000003020 <.plt>:
    3020:	/-> ff 35 4a 4d 01 00    	pushq  0x14d4a(%rip)        # 17d70 <_GLOBAL_OFFSET_TABLE_+0x8>
    3026:	|   f2 ff 25 4b 4d 01 00 	bnd jmpq *0x14d4b(%rip)        # 17d78 <_GLOBAL_OFFSET_TABLE_+0x10>
    302d:	|   0f 1f 00             	nopl   (%rax)
    3030:	|   f3 0f 1e fa          	endbr64 
    3034:	|   68 00 00 00 00       	pushq  $0x0
    3039:	+-- f2 e9 e1 ff ff ff    	bnd jmpq 3020 <.plt>
    303f:	|   90                   	nop
    3040:	|   f3 0f 1e fa          	endbr64 
    3044:	|   68 01 00 00 00       	pushq  $0x1
    3049:	+-- f2 e9 d1 ff ff ff    	bnd jmpq 3020 <.plt>
    304f:	|   90                   	nop
    3050:	|   f3 0f 1e fa          	endbr64 
    3054:	|   68 02 00 00 00       	pushq  $0x2
    3059:	+-- f2 e9 c1 ff ff ff    	bnd jmpq 3020 <.plt>
    305f:	|   90                   	nop
    3060:	|   f3 0f 1e fa          	endbr64 
    3064:	|   68 03 00 00 00       	pushq  $0x3
    3069:	+-- f2 e9 b1 ff ff ff    	bnd jmpq 3020 <.plt>
    306f:	|   90                   	nop
    3070:	|   f3 0f 1e fa          	endbr64 
    3074:	|   68 04 00 00 00       	pushq  $0x4
    3079:	+-- f2 e9 a1 ff ff ff    	bnd jmpq 3020 <.plt>
    307f:	|   90                   	nop
    3080:	|   f3 0f 1e fa          	endbr64 
    3084:	|   68 05 00 00 00       	pushq  $0x5
    3089:	+-- f2 e9 91 ff ff ff    	bnd jmpq 3020 <.plt>
    308f:	|   90                   	nop
    3090:	|   f3 0f 1e fa          	endbr64 
    3094:	|   68 06 00 00 00       	pushq  $0x6
    3099:	+-- f2 e9 81 ff ff ff    	bnd jmpq 3020 <.plt>
    309f:	|   90                   	nop
    30a0:	|   f3 0f 1e fa          	endbr64 
    30a4:	|   68 07 00 00 00       	pushq  $0x7
    30a9:	+-- f2 e9 71 ff ff ff    	bnd jmpq 3020 <.plt>
    30af:	|   90                   	nop
    30b0:	|   f3 0f 1e fa          	endbr64 
    30b4:	|   68 08 00 00 00       	pushq  $0x8
    30b9:	+-- f2 e9 61 ff ff ff    	bnd jmpq 3020 <.plt>
    30bf:	|   90                   	nop
    30c0:	|   f3 0f 1e fa          	endbr64 
    30c4:	|   68 09 00 00 00       	pushq  $0x9
    30c9:	+-- f2 e9 51 ff ff ff    	bnd jmpq 3020 <.plt>
    30cf:	|   90                   	nop
    30d0:	|   f3 0f 1e fa          	endbr64 
    30d4:	|   68 0a 00 00 00       	pushq  $0xa
    30d9:	+-- f2 e9 41 ff ff ff    	bnd jmpq 3020 <.plt>
    30df:	|   90                   	nop
    30e0:	|   f3 0f 1e fa          	endbr64 
    30e4:	|   68 0b 00 00 00       	pushq  $0xb
    30e9:	+-- f2 e9 31 ff ff ff    	bnd jmpq 3020 <.plt>
    30ef:	|   90                   	nop
    30f0:	|   f3 0f 1e fa          	endbr64 
    30f4:	|   68 0c 00 00 00       	pushq  $0xc
    30f9:	+-- f2 e9 21 ff ff ff    	bnd jmpq 3020 <.plt>
    30ff:	|   90                   	nop
    3100:	|   f3 0f 1e fa          	endbr64 
    3104:	|   68 0d 00 00 00       	pushq  $0xd
    3109:	+-- f2 e9 11 ff ff ff    	bnd jmpq 3020 <.plt>
    310f:	|   90                   	nop
    3110:	|   f3 0f 1e fa          	endbr64 
    3114:	|   68 0e 00 00 00       	pushq  $0xe
    3119:	+-- f2 e9 01 ff ff ff    	bnd jmpq 3020 <.plt>
    311f:	|   90                   	nop
    3120:	|   f3 0f 1e fa          	endbr64 
    3124:	|   68 0f 00 00 00       	pushq  $0xf
    3129:	+-- f2 e9 f1 fe ff ff    	bnd jmpq 3020 <.plt>
    312f:	|   90                   	nop
    3130:	|   f3 0f 1e fa          	endbr64 
    3134:	|   68 10 00 00 00       	pushq  $0x10
    3139:	+-- f2 e9 e1 fe ff ff    	bnd jmpq 3020 <.plt>
    313f:	|   90                   	nop
    3140:	|   f3 0f 1e fa          	endbr64 
    3144:	|   68 11 00 00 00       	pushq  $0x11
    3149:	+-- f2 e9 d1 fe ff ff    	bnd jmpq 3020 <.plt>
    314f:	|   90                   	nop
    3150:	|   f3 0f 1e fa          	endbr64 
    3154:	|   68 12 00 00 00       	pushq  $0x12
    3159:	+-- f2 e9 c1 fe ff ff    	bnd jmpq 3020 <.plt>
    315f:	|   90                   	nop
    3160:	|   f3 0f 1e fa          	endbr64 
    3164:	|   68 13 00 00 00       	pushq  $0x13
    3169:	+-- f2 e9 b1 fe ff ff    	bnd jmpq 3020 <.plt>
    316f:	|   90                   	nop
    3170:	|   f3 0f 1e fa          	endbr64 
    3174:	|   68 14 00 00 00       	pushq  $0x14
    3179:	+-- f2 e9 a1 fe ff ff    	bnd jmpq 3020 <.plt>
    317f:	|   90                   	nop
    3180:	|   f3 0f 1e fa          	endbr64 
    3184:	|   68 15 00 00 00       	pushq  $0x15
    3189:	+-- f2 e9 91 fe ff ff    	bnd jmpq 3020 <.plt>
    318f:	|   90                   	nop
    3190:	|   f3 0f 1e fa          	endbr64 
    3194:	|   68 16 00 00 00       	pushq  $0x16
    3199:	+-- f2 e9 81 fe ff ff    	bnd jmpq 3020 <.plt>
    319f:	|   90                   	nop
    31a0:	|   f3 0f 1e fa          	endbr64 
    31a4:	|   68 17 00 00 00       	pushq  $0x17
    31a9:	+-- f2 e9 71 fe ff ff    	bnd jmpq 3020 <.plt>
    31af:	|   90                   	nop
    31b0:	|   f3 0f 1e fa          	endbr64 
    31b4:	|   68 18 00 00 00       	pushq  $0x18
    31b9:	+-- f2 e9 61 fe ff ff    	bnd jmpq 3020 <.plt>
    31bf:	|   90                   	nop
    31c0:	|   f3 0f 1e fa          	endbr64 
    31c4:	|   68 19 00 00 00       	pushq  $0x19
    31c9:	+-- f2 e9 51 fe ff ff    	bnd jmpq 3020 <.plt>
    31cf:	|   90                   	nop
    31d0:	|   f3 0f 1e fa          	endbr64 
    31d4:	|   68 1a 00 00 00       	pushq  $0x1a
    31d9:	+-- f2 e9 41 fe ff ff    	bnd jmpq 3020 <.plt>
    31df:	|   90                   	nop
    31e0:	|   f3 0f 1e fa          	endbr64 
    31e4:	|   68 1b 00 00 00       	pushq  $0x1b
    31e9:	+-- f2 e9 31 fe ff ff    	bnd jmpq 3020 <.plt>
    31ef:	|   90                   	nop
    31f0:	|   f3 0f 1e fa          	endbr64 
    31f4:	|   68 1c 00 00 00       	pushq  $0x1c
    31f9:	+-- f2 e9 21 fe ff ff    	bnd jmpq 3020 <.plt>
    31ff:	|   90                   	nop
    3200:	|   f3 0f 1e fa          	endbr64 
    3204:	|   68 1d 00 00 00       	pushq  $0x1d
    3209:	+-- f2 e9 11 fe ff ff    	bnd jmpq 3020 <.plt>
    320f:	|   90                   	nop
    3210:	|   f3 0f 1e fa          	endbr64 
    3214:	|   68 1e 00 00 00       	pushq  $0x1e
    3219:	+-- f2 e9 01 fe ff ff    	bnd jmpq 3020 <.plt>
    321f:	|   90                   	nop
    3220:	|   f3 0f 1e fa          	endbr64 
    3224:	|   68 1f 00 00 00       	pushq  $0x1f
    3229:	+-- f2 e9 f1 fd ff ff    	bnd jmpq 3020 <.plt>
    322f:	|   90                   	nop
    3230:	|   f3 0f 1e fa          	endbr64 
    3234:	|   68 20 00 00 00       	pushq  $0x20
    3239:	+-- f2 e9 e1 fd ff ff    	bnd jmpq 3020 <.plt>
    323f:	|   90                   	nop
    3240:	|   f3 0f 1e fa          	endbr64 
    3244:	|   68 21 00 00 00       	pushq  $0x21
    3249:	+-- f2 e9 d1 fd ff ff    	bnd jmpq 3020 <.plt>
    324f:	|   90                   	nop
    3250:	|   f3 0f 1e fa          	endbr64 
    3254:	|   68 22 00 00 00       	pushq  $0x22
    3259:	+-- f2 e9 c1 fd ff ff    	bnd jmpq 3020 <.plt>
    325f:	|   90                   	nop
    3260:	|   f3 0f 1e fa          	endbr64 
    3264:	|   68 23 00 00 00       	pushq  $0x23
    3269:	+-- f2 e9 b1 fd ff ff    	bnd jmpq 3020 <.plt>
    326f:	|   90                   	nop
    3270:	|   f3 0f 1e fa          	endbr64 
    3274:	|   68 24 00 00 00       	pushq  $0x24
    3279:	+-- f2 e9 a1 fd ff ff    	bnd jmpq 3020 <.plt>
    327f:	|   90                   	nop
    3280:	|   f3 0f 1e fa          	endbr64 
    3284:	|   68 25 00 00 00       	pushq  $0x25
    3289:	+-- f2 e9 91 fd ff ff    	bnd jmpq 3020 <.plt>
    328f:	|   90                   	nop
    3290:	|   f3 0f 1e fa          	endbr64 
    3294:	|   68 26 00 00 00       	pushq  $0x26
    3299:	+-- f2 e9 81 fd ff ff    	bnd jmpq 3020 <.plt>
    329f:	|   90                   	nop
    32a0:	|   f3 0f 1e fa          	endbr64 
    32a4:	|   68 27 00 00 00       	pushq  $0x27
    32a9:	+-- f2 e9 71 fd ff ff    	bnd jmpq 3020 <.plt>
    32af:	|   90                   	nop
    32b0:	|   f3 0f 1e fa          	endbr64 
    32b4:	|   68 28 00 00 00       	pushq  $0x28
    32b9:	+-- f2 e9 61 fd ff ff    	bnd jmpq 3020 <.plt>
    32bf:	|   90                   	nop
    32c0:	|   f3 0f 1e fa          	endbr64 
    32c4:	|   68 29 00 00 00       	pushq  $0x29
    32c9:	+-- f2 e9 51 fd ff ff    	bnd jmpq 3020 <.plt>
    32cf:	|   90                   	nop
    32d0:	|   f3 0f 1e fa          	endbr64 
    32d4:	|   68 2a 00 00 00       	pushq  $0x2a
    32d9:	+-- f2 e9 41 fd ff ff    	bnd jmpq 3020 <.plt>
    32df:	|   90                   	nop
    32e0:	|   f3 0f 1e fa          	endbr64 
    32e4:	|   68 2b 00 00 00       	pushq  $0x2b
    32e9:	+-- f2 e9 31 fd ff ff    	bnd jmpq 3020 <.plt>
    32ef:	|   90                   	nop
    32f0:	|   f3 0f 1e fa          	endbr64 
    32f4:	|   68 2c 00 00 00       	pushq  $0x2c
    32f9:	+-- f2 e9 21 fd ff ff    	bnd jmpq 3020 <.plt>
    32ff:	|   90                   	nop
    3300:	|   f3 0f 1e fa          	endbr64 
    3304:	|   68 2d 00 00 00       	pushq  $0x2d
    3309:	+-- f2 e9 11 fd ff ff    	bnd jmpq 3020 <.plt>
    330f:	|   90                   	nop
    3310:	|   f3 0f 1e fa          	endbr64 
    3314:	|   68 2e 00 00 00       	pushq  $0x2e
    3319:	+-- f2 e9 01 fd ff ff    	bnd jmpq 3020 <.plt>
    331f:	|   90                   	nop
    3320:	|   f3 0f 1e fa          	endbr64 
    3324:	|   68 2f 00 00 00       	pushq  $0x2f
    3329:	+-- f2 e9 f1 fc ff ff    	bnd jmpq 3020 <.plt>
    332f:	|   90                   	nop
    3330:	|   f3 0f 1e fa          	endbr64 
    3334:	|   68 30 00 00 00       	pushq  $0x30
    3339:	+-- f2 e9 e1 fc ff ff    	bnd jmpq 3020 <.plt>
    333f:	|   90                   	nop
    3340:	|   f3 0f 1e fa          	endbr64 
    3344:	|   68 31 00 00 00       	pushq  $0x31
    3349:	+-- f2 e9 d1 fc ff ff    	bnd jmpq 3020 <.plt>
    334f:	|   90                   	nop
    3350:	|   f3 0f 1e fa          	endbr64 
    3354:	|   68 32 00 00 00       	pushq  $0x32
    3359:	+-- f2 e9 c1 fc ff ff    	bnd jmpq 3020 <.plt>
    335f:	|   90                   	nop
    3360:	|   f3 0f 1e fa          	endbr64 
    3364:	|   68 33 00 00 00       	pushq  $0x33
    3369:	+-- f2 e9 b1 fc ff ff    	bnd jmpq 3020 <.plt>
    336f:	|   90                   	nop
    3370:	|   f3 0f 1e fa          	endbr64 
    3374:	|   68 34 00 00 00       	pushq  $0x34
    3379:	+-- f2 e9 a1 fc ff ff    	bnd jmpq 3020 <.plt>
    337f:	|   90                   	nop
    3380:	|   f3 0f 1e fa          	endbr64 
    3384:	|   68 35 00 00 00       	pushq  $0x35
    3389:	+-- f2 e9 91 fc ff ff    	bnd jmpq 3020 <.plt>
    338f:	|   90                   	nop
    3390:	|   f3 0f 1e fa          	endbr64 
    3394:	|   68 36 00 00 00       	pushq  $0x36
    3399:	+-- f2 e9 81 fc ff ff    	bnd jmpq 3020 <.plt>
    339f:	|   90                   	nop
    33a0:	|   f3 0f 1e fa          	endbr64 
    33a4:	|   68 37 00 00 00       	pushq  $0x37
    33a9:	+-- f2 e9 71 fc ff ff    	bnd jmpq 3020 <.plt>
    33af:	|   90                   	nop
    33b0:	|   f3 0f 1e fa          	endbr64 
    33b4:	|   68 38 00 00 00       	pushq  $0x38
    33b9:	+-- f2 e9 61 fc ff ff    	bnd jmpq 3020 <.plt>
    33bf:	|   90                   	nop
    33c0:	|   f3 0f 1e fa          	endbr64 
    33c4:	|   68 39 00 00 00       	pushq  $0x39
    33c9:	+-- f2 e9 51 fc ff ff    	bnd jmpq 3020 <.plt>
    33cf:	|   90                   	nop
    33d0:	|   f3 0f 1e fa          	endbr64 
    33d4:	|   68 3a 00 00 00       	pushq  $0x3a
    33d9:	+-- f2 e9 41 fc ff ff    	bnd jmpq 3020 <.plt>
    33df:	|   90                   	nop
    33e0:	|   f3 0f 1e fa          	endbr64 
    33e4:	|   68 3b 00 00 00       	pushq  $0x3b
    33e9:	+-- f2 e9 31 fc ff ff    	bnd jmpq 3020 <.plt>
    33ef:	|   90                   	nop
    33f0:	|   f3 0f 1e fa          	endbr64 
    33f4:	|   68 3c 00 00 00       	pushq  $0x3c
    33f9:	+-- f2 e9 21 fc ff ff    	bnd jmpq 3020 <.plt>
    33ff:	|   90                   	nop
    3400:	|   f3 0f 1e fa          	endbr64 
    3404:	|   68 3d 00 00 00       	pushq  $0x3d
    3409:	+-- f2 e9 11 fc ff ff    	bnd jmpq 3020 <.plt>
    340f:	|   90                   	nop
    3410:	|   f3 0f 1e fa          	endbr64 
    3414:	|   68 3e 00 00 00       	pushq  $0x3e
    3419:	+-- f2 e9 01 fc ff ff    	bnd jmpq 3020 <.plt>
    341f:	|   90                   	nop
    3420:	|   f3 0f 1e fa          	endbr64 
    3424:	|   68 3f 00 00 00       	pushq  $0x3f
    3429:	+-- f2 e9 f1 fb ff ff    	bnd jmpq 3020 <.plt>
    342f:	|   90                   	nop
    3430:	|   f3 0f 1e fa          	endbr64 
    3434:	|   68 40 00 00 00       	pushq  $0x40
    3439:	+-- f2 e9 e1 fb ff ff    	bnd jmpq 3020 <.plt>
    343f:	|   90                   	nop
    3440:	|   f3 0f 1e fa          	endbr64 
    3444:	|   68 41 00 00 00       	pushq  $0x41
    3449:	+-- f2 e9 d1 fb ff ff    	bnd jmpq 3020 <.plt>
    344f:	|   90                   	nop
    3450:	|   f3 0f 1e fa          	endbr64 
    3454:	|   68 42 00 00 00       	pushq  $0x42
    3459:	+-- f2 e9 c1 fb ff ff    	bnd jmpq 3020 <.plt>
    345f:	|   90                   	nop
    3460:	|   f3 0f 1e fa          	endbr64 
    3464:	|   68 43 00 00 00       	pushq  $0x43
    3469:	+-- f2 e9 b1 fb ff ff    	bnd jmpq 3020 <.plt>
    346f:	|   90                   	nop
    3470:	|   f3 0f 1e fa          	endbr64 
    3474:	|   68 44 00 00 00       	pushq  $0x44
    3479:	+-- f2 e9 a1 fb ff ff    	bnd jmpq 3020 <.plt>
    347f:	|   90                   	nop
    3480:	|   f3 0f 1e fa          	endbr64 
    3484:	|   68 45 00 00 00       	pushq  $0x45
    3489:	+-- f2 e9 91 fb ff ff    	bnd jmpq 3020 <.plt>
    348f:	|   90                   	nop
    3490:	|   f3 0f 1e fa          	endbr64 
    3494:	|   68 46 00 00 00       	pushq  $0x46
    3499:	+-- f2 e9 81 fb ff ff    	bnd jmpq 3020 <.plt>
    349f:	|   90                   	nop
    34a0:	|   f3 0f 1e fa          	endbr64 
    34a4:	|   68 47 00 00 00       	pushq  $0x47
    34a9:	+-- f2 e9 71 fb ff ff    	bnd jmpq 3020 <.plt>
    34af:	|   90                   	nop
    34b0:	|   f3 0f 1e fa          	endbr64 
    34b4:	|   68 48 00 00 00       	pushq  $0x48
    34b9:	+-- f2 e9 61 fb ff ff    	bnd jmpq 3020 <.plt>
    34bf:	|   90                   	nop
    34c0:	|   f3 0f 1e fa          	endbr64 
    34c4:	|   68 49 00 00 00       	pushq  $0x49
    34c9:	\-- f2 e9 51 fb ff ff    	bnd jmpq 3020 <.plt>
    34cf:	    90                   	nop

Disassembly of section .plt.got:

00000000000034d0 <__cxa_finalize@plt>:
    34d0:	f3 0f 1e fa          	endbr64 
    34d4:	f2 ff 25 f5 4a 01 00 	bnd jmpq *0x14af5(%rip)        # 17fd0 <__cxa_finalize@GLIBC_2.2.5>
    34db:	0f 1f 44 00 00       	nopl   0x0(%rax,%rax,1)

Disassembly of section .plt.sec:

00000000000034e0 <__printf_chk@plt>:
    34e0:	f3 0f 1e fa          	endbr64 
    34e4:	f2 ff 25 95 48 01 00 	bnd jmpq *0x14895(%rip)        # 17d80 <__printf_chk@GLIBC_2.3.4>
    34eb:	0f 1f 44 00 00       	nopl   0x0(%rax,%rax,1)

00000000000034f0 <_Znam@plt>:
    34f0:	f3 0f 1e fa          	endbr64 
    34f4:	f2 ff 25 8d 48 01 00 	bnd jmpq *0x1488d(%rip)        # 17d88 <_Znam@GLIBCXX_3.4>
    34fb:	0f 1f 44 00 00       	nopl   0x0(%rax,%rax,1)

0000000000003500 <_ZNSo3putEc@plt>:
    3500:	f3 0f 1e fa          	endbr64 
    3504:	f2 ff 25 85 48 01 00 	bnd jmpq *0x14885(%rip)        # 17d90 <_ZNSo3putEc@GLIBCXX_3.4>
    350b:	0f 1f 44 00 00       	nopl   0x0(%rax,%rax,1)

0000000000003510 <_ZNSt6chrono3_V212system_clock3nowEv@plt>:
    3510:	f3 0f 1e fa          	endbr64 
    3514:	f2 ff 25 7d 48 01 00 	bnd jmpq *0x1487d(%rip)        # 17d98 <_ZNSt6chrono3_V212system_clock3nowEv@GLIBCXX_3.4.19>
    351b:	0f 1f 44 00 00       	nopl   0x0(%rax,%rax,1)

0000000000003520 <GOMP_single_start@plt>:
    3520:	f3 0f 1e fa          	endbr64 
    3524:	f2 ff 25 75 48 01 00 	bnd jmpq *0x14875(%rip)        # 17da0 <GOMP_single_start@GOMP_1.0>
    352b:	0f 1f 44 00 00       	nopl   0x0(%rax,%rax,1)

0000000000003530 <_ZNSt13basic_filebufIcSt11char_traitsIcEE5closeEv@plt>:
    3530:	f3 0f 1e fa          	endbr64 
    3534:	f2 ff 25 6d 48 01 00 	bnd jmpq *0x1486d(%rip)        # 17da8 <_ZNSt13basic_filebufIcSt11char_traitsIcEE5closeEv@GLIBCXX_3.4>
    353b:	0f 1f 44 00 00       	nopl   0x0(%rax,%rax,1)

0000000000003540 <getopt@plt>:
    3540:	f3 0f 1e fa          	endbr64 
    3544:	f2 ff 25 65 48 01 00 	bnd jmpq *0x14865(%rip)        # 17db0 <getopt@GLIBC_2.2.5>
    354b:	0f 1f 44 00 00       	nopl   0x0(%rax,%rax,1)

0000000000003550 <_ZNKSt12__basic_fileIcE7is_openEv@plt>:
    3550:	f3 0f 1e fa          	endbr64 
    3554:	f2 ff 25 5d 48 01 00 	bnd jmpq *0x1485d(%rip)        # 17db8 <_ZNKSt12__basic_fileIcE7is_openEv@GLIBCXX_3.4>
    355b:	0f 1f 44 00 00       	nopl   0x0(%rax,%rax,1)

0000000000003560 <_ZNSt14basic_ifstreamIcSt11char_traitsIcEED1Ev@plt>:
    3560:	f3 0f 1e fa          	endbr64 
    3564:	f2 ff 25 55 48 01 00 	bnd jmpq *0x14855(%rip)        # 17dc0 <_ZNSt14basic_ifstreamIcSt11char_traitsIcEED1Ev@GLIBCXX_3.4>
    356b:	0f 1f 44 00 00       	nopl   0x0(%rax,%rax,1)

0000000000003570 <_ZSt9terminatev@plt>:
    3570:	f3 0f 1e fa          	endbr64 
    3574:	f2 ff 25 4d 48 01 00 	bnd jmpq *0x1484d(%rip)        # 17dc8 <_ZSt9terminatev@GLIBCXX_3.4>
    357b:	0f 1f 44 00 00       	nopl   0x0(%rax,%rax,1)

0000000000003580 <_ZNKSt7__cxx1112basic_stringIcSt11char_traitsIcESaIcEE7compareEPKc@plt>:
    3580:	f3 0f 1e fa          	endbr64 
    3584:	f2 ff 25 45 48 01 00 	bnd jmpq *0x14845(%rip)        # 17dd0 <_ZNKSt7__cxx1112basic_stringIcSt11char_traitsIcESaIcEE7compareEPKc@GLIBCXX_3.4.21>
    358b:	0f 1f 44 00 00       	nopl   0x0(%rax,%rax,1)

0000000000003590 <_ZNSt8ios_baseC2Ev@plt>:
    3590:	f3 0f 1e fa          	endbr64 
    3594:	f2 ff 25 3d 48 01 00 	bnd jmpq *0x1483d(%rip)        # 17dd8 <_ZNSt8ios_baseC2Ev@GLIBCXX_3.4>
    359b:	0f 1f 44 00 00       	nopl   0x0(%rax,%rax,1)

00000000000035a0 <_ZNSt7__cxx1112basic_stringIcSt11char_traitsIcESaIcEE9_M_appendEPKcm@plt>:
    35a0:	f3 0f 1e fa          	endbr64 
    35a4:	f2 ff 25 35 48 01 00 	bnd jmpq *0x14835(%rip)        # 17de0 <_ZNSt7__cxx1112basic_stringIcSt11char_traitsIcESaIcEE9_M_appendEPKcm@GLIBCXX_3.4.21>
    35ab:	0f 1f 44 00 00       	nopl   0x0(%rax,%rax,1)

00000000000035b0 <_ZNSt8ios_baseD2Ev@plt>:
    35b0:	f3 0f 1e fa          	endbr64 
    35b4:	f2 ff 25 2d 48 01 00 	bnd jmpq *0x1482d(%rip)        # 17de8 <_ZNSt8ios_baseD2Ev@GLIBCXX_3.4>
    35bb:	0f 1f 44 00 00       	nopl   0x0(%rax,%rax,1)

00000000000035c0 <_ZNSi4peekEv@plt>:
    35c0:	f3 0f 1e fa          	endbr64 
    35c4:	f2 ff 25 25 48 01 00 	bnd jmpq *0x14825(%rip)        # 17df0 <_ZNSi4peekEv@GLIBCXX_3.4>
    35cb:	0f 1f 44 00 00       	nopl   0x0(%rax,%rax,1)

00000000000035d0 <__cxa_begin_catch@plt>:
    35d0:	f3 0f 1e fa          	endbr64 
    35d4:	f2 ff 25 1d 48 01 00 	bnd jmpq *0x1481d(%rip)        # 17df8 <__cxa_begin_catch@CXXABI_1.3>
    35db:	0f 1f 44 00 00       	nopl   0x0(%rax,%rax,1)

00000000000035e0 <strlen@plt>:
    35e0:	f3 0f 1e fa          	endbr64 
    35e4:	f2 ff 25 15 48 01 00 	bnd jmpq *0x14815(%rip)        # 17e00 <strlen@GLIBC_2.2.5>
    35eb:	0f 1f 44 00 00       	nopl   0x0(%rax,%rax,1)

00000000000035f0 <_ZNSt7__cxx1119basic_istringstreamIcSt11char_traitsIcESaIcEED1Ev@plt>:
    35f0:	f3 0f 1e fa          	endbr64 
    35f4:	f2 ff 25 0d 48 01 00 	bnd jmpq *0x1480d(%rip)        # 17e08 <_ZNSt7__cxx1119basic_istringstreamIcSt11char_traitsIcESaIcEED1Ev@GLIBCXX_3.4.21>
    35fb:	0f 1f 44 00 00       	nopl   0x0(%rax,%rax,1)

0000000000003600 <GOMP_loop_end_nowait@plt>:
    3600:	f3 0f 1e fa          	endbr64 
    3604:	f2 ff 25 05 48 01 00 	bnd jmpq *0x14805(%rip)        # 17e10 <GOMP_loop_end_nowait@GOMP_1.0>
    360b:	0f 1f 44 00 00       	nopl   0x0(%rax,%rax,1)

0000000000003610 <_ZSt20__throw_length_errorPKc@plt>:
    3610:	f3 0f 1e fa          	endbr64 
    3614:	f2 ff 25 fd 47 01 00 	bnd jmpq *0x147fd(%rip)        # 17e18 <_ZSt20__throw_length_errorPKc@GLIBCXX_3.4>
    361b:	0f 1f 44 00 00       	nopl   0x0(%rax,%rax,1)

0000000000003620 <memset@plt>:
    3620:	f3 0f 1e fa          	endbr64 
    3624:	f2 ff 25 f5 47 01 00 	bnd jmpq *0x147f5(%rip)        # 17e20 <memset@GLIBC_2.2.5>
    362b:	0f 1f 44 00 00       	nopl   0x0(%rax,%rax,1)

0000000000003630 <__snprintf_chk@plt>:
    3630:	f3 0f 1e fa          	endbr64 
    3634:	f2 ff 25 ed 47 01 00 	bnd jmpq *0x147ed(%rip)        # 17e28 <__snprintf_chk@GLIBC_2.3.4>
    363b:	0f 1f 44 00 00       	nopl   0x0(%rax,%rax,1)

0000000000003640 <_ZNSirsERi@plt>:
    3640:	f3 0f 1e fa          	endbr64 
    3644:	f2 ff 25 e5 47 01 00 	bnd jmpq *0x147e5(%rip)        # 17e30 <_ZNSirsERi@GLIBCXX_3.4>
    364b:	0f 1f 44 00 00       	nopl   0x0(%rax,%rax,1)

0000000000003650 <_ZNSi6ignoreEli@plt>:
    3650:	f3 0f 1e fa          	endbr64 
    3654:	f2 ff 25 dd 47 01 00 	bnd jmpq *0x147dd(%rip)        # 17e38 <_ZNSi6ignoreEli@GLIBCXX_3.4>
    365b:	0f 1f 44 00 00       	nopl   0x0(%rax,%rax,1)

0000000000003660 <_ZNSo9_M_insertImEERSoT_@plt>:
    3660:	f3 0f 1e fa          	endbr64 
    3664:	f2 ff 25 d5 47 01 00 	bnd jmpq *0x147d5(%rip)        # 17e40 <_ZNSo9_M_insertImEERSoT_@GLIBCXX_3.4.9>
    366b:	0f 1f 44 00 00       	nopl   0x0(%rax,%rax,1)

0000000000003670 <_ZNSo5flushEv@plt>:
    3670:	f3 0f 1e fa          	endbr64 
    3674:	f2 ff 25 cd 47 01 00 	bnd jmpq *0x147cd(%rip)        # 17e48 <_ZNSo5flushEv@GLIBCXX_3.4>
    367b:	0f 1f 44 00 00       	nopl   0x0(%rax,%rax,1)

0000000000003680 <GOMP_critical_end@plt>:
    3680:	f3 0f 1e fa          	endbr64 
    3684:	f2 ff 25 c5 47 01 00 	bnd jmpq *0x147c5(%rip)        # 17e50 <GOMP_critical_end@GOMP_1.0>
    368b:	0f 1f 44 00 00       	nopl   0x0(%rax,%rax,1)

0000000000003690 <_ZSt19__throw_logic_errorPKc@plt>:
    3690:	f3 0f 1e fa          	endbr64 
    3694:	f2 ff 25 bd 47 01 00 	bnd jmpq *0x147bd(%rip)        # 17e58 <_ZSt19__throw_logic_errorPKc@GLIBCXX_3.4>
    369b:	0f 1f 44 00 00       	nopl   0x0(%rax,%rax,1)

00000000000036a0 <memcpy@plt>:
    36a0:	f3 0f 1e fa          	endbr64 
    36a4:	f2 ff 25 b5 47 01 00 	bnd jmpq *0x147b5(%rip)        # 17e60 <memcpy@GLIBC_2.14>
    36ab:	0f 1f 44 00 00       	nopl   0x0(%rax,%rax,1)

00000000000036b0 <_ZSt2wsIcSt11char_traitsIcEERSt13basic_istreamIT_T0_ES6_@plt>:
    36b0:	f3 0f 1e fa          	endbr64 
    36b4:	f2 ff 25 ad 47 01 00 	bnd jmpq *0x147ad(%rip)        # 17e68 <_ZSt2wsIcSt11char_traitsIcEERSt13basic_istreamIT_T0_ES6_@GLIBCXX_3.4>
    36bb:	0f 1f 44 00 00       	nopl   0x0(%rax,%rax,1)

00000000000036c0 <__cxa_atexit@plt>:
    36c0:	f3 0f 1e fa          	endbr64 
    36c4:	f2 ff 25 a5 47 01 00 	bnd jmpq *0x147a5(%rip)        # 17e70 <__cxa_atexit@GLIBC_2.2.5>
    36cb:	0f 1f 44 00 00       	nopl   0x0(%rax,%rax,1)

00000000000036d0 <_ZNSt13basic_filebufIcSt11char_traitsIcEE4openEPKcSt13_Ios_Openmode@plt>:
    36d0:	f3 0f 1e fa          	endbr64 
    36d4:	f2 ff 25 9d 47 01 00 	bnd jmpq *0x1479d(%rip)        # 17e78 <_ZNSt13basic_filebufIcSt11char_traitsIcEE4openEPKcSt13_Ios_Openmode@GLIBCXX_3.4>
    36db:	0f 1f 44 00 00       	nopl   0x0(%rax,%rax,1)

00000000000036e0 <GOMP_critical_start@plt>:
    36e0:	f3 0f 1e fa          	endbr64 
    36e4:	f2 ff 25 95 47 01 00 	bnd jmpq *0x14795(%rip)        # 17e80 <GOMP_critical_start@GOMP_1.0>
    36eb:	0f 1f 44 00 00       	nopl   0x0(%rax,%rax,1)

00000000000036f0 <_ZdlPv@plt>:
    36f0:	f3 0f 1e fa          	endbr64 
    36f4:	f2 ff 25 8d 47 01 00 	bnd jmpq *0x1478d(%rip)        # 17e88 <_ZdlPv@GLIBCXX_3.4>
    36fb:	0f 1f 44 00 00       	nopl   0x0(%rax,%rax,1)

0000000000003700 <_ZNSo9_M_insertIlEERSoT_@plt>:
    3700:	f3 0f 1e fa          	endbr64 
    3704:	f2 ff 25 85 47 01 00 	bnd jmpq *0x14785(%rip)        # 17e90 <_ZNSo9_M_insertIlEERSoT_@GLIBCXX_3.4.9>
    370b:	0f 1f 44 00 00       	nopl   0x0(%rax,%rax,1)

0000000000003710 <_Znwm@plt>:
    3710:	f3 0f 1e fa          	endbr64 
    3714:	f2 ff 25 7d 47 01 00 	bnd jmpq *0x1477d(%rip)        # 17e98 <_Znwm@GLIBCXX_3.4>
    371b:	0f 1f 44 00 00       	nopl   0x0(%rax,%rax,1)

0000000000003720 <_ZNSi10_M_extractIlEERSiRT_@plt>:
    3720:	f3 0f 1e fa          	endbr64 
    3724:	f2 ff 25 75 47 01 00 	bnd jmpq *0x14775(%rip)        # 17ea0 <_ZNSi10_M_extractIlEERSiRT_@GLIBCXX_3.4.9>
    372b:	0f 1f 44 00 00       	nopl   0x0(%rax,%rax,1)

0000000000003730 <_ZNSt13basic_filebufIcSt11char_traitsIcEEC1Ev@plt>:
    3730:	f3 0f 1e fa          	endbr64 
    3734:	f2 ff 25 6d 47 01 00 	bnd jmpq *0x1476d(%rip)        # 17ea8 <_ZNSt13basic_filebufIcSt11char_traitsIcEEC1Ev@GLIBCXX_3.4>
    373b:	0f 1f 44 00 00       	nopl   0x0(%rax,%rax,1)

0000000000003740 <GOMP_loop_ull_nonmonotonic_dynamic_start@plt>:
    3740:	f3 0f 1e fa          	endbr64 
    3744:	f2 ff 25 65 47 01 00 	bnd jmpq *0x14765(%rip)        # 17eb0 <GOMP_loop_ull_nonmonotonic_dynamic_start@GOMP_4.5>
    374b:	0f 1f 44 00 00       	nopl   0x0(%rax,%rax,1)

0000000000003750 <__stack_chk_fail@plt>:
    3750:	f3 0f 1e fa          	endbr64 
    3754:	f2 ff 25 5d 47 01 00 	bnd jmpq *0x1475d(%rip)        # 17eb8 <__stack_chk_fail@GLIBC_2.4>
    375b:	0f 1f 44 00 00       	nopl   0x0(%rax,%rax,1)

0000000000003760 <_ZSt16__ostream_insertIcSt11char_traitsIcEERSt13basic_ostreamIT_T0_ES6_PKS3_l@plt>:
    3760:	f3 0f 1e fa          	endbr64 
    3764:	f2 ff 25 55 47 01 00 	bnd jmpq *0x14755(%rip)        # 17ec0 <_ZSt16__ostream_insertIcSt11char_traitsIcEERSt13basic_ostreamIT_T0_ES6_PKS3_l@GLIBCXX_3.4.9>
    376b:	0f 1f 44 00 00       	nopl   0x0(%rax,%rax,1)

0000000000003770 <_ZNKSt5ctypeIcE13_M_widen_initEv@plt>:
    3770:	f3 0f 1e fa          	endbr64 
    3774:	f2 ff 25 4d 47 01 00 	bnd jmpq *0x1474d(%rip)        # 17ec8 <_ZNKSt5ctypeIcE13_M_widen_initEv@GLIBCXX_3.4.11>
    377b:	0f 1f 44 00 00       	nopl   0x0(%rax,%rax,1)

0000000000003780 <_ZNSt7__cxx1112basic_stringIcSt11char_traitsIcESaIcEE12_M_constructEmc@plt>:
    3780:	f3 0f 1e fa          	endbr64 
    3784:	f2 ff 25 45 47 01 00 	bnd jmpq *0x14745(%rip)        # 17ed0 <_ZNSt7__cxx1112basic_stringIcSt11char_traitsIcESaIcEE12_M_constructEmc@GLIBCXX_3.4.21>
    378b:	0f 1f 44 00 00       	nopl   0x0(%rax,%rax,1)

0000000000003790 <exit@plt>:
    3790:	f3 0f 1e fa          	endbr64 
    3794:	f2 ff 25 3d 47 01 00 	bnd jmpq *0x1473d(%rip)        # 17ed8 <exit@GLIBC_2.2.5>
    379b:	0f 1f 44 00 00       	nopl   0x0(%rax,%rax,1)

00000000000037a0 <_ZNSi4readEPcl@plt>:
    37a0:	f3 0f 1e fa          	endbr64 
    37a4:	f2 ff 25 35 47 01 00 	bnd jmpq *0x14735(%rip)        # 17ee0 <_ZNSi4readEPcl@GLIBCXX_3.4>
    37ab:	0f 1f 44 00 00       	nopl   0x0(%rax,%rax,1)

00000000000037b0 <_ZSt16__throw_bad_castv@plt>:
    37b0:	f3 0f 1e fa          	endbr64 
    37b4:	f2 ff 25 2d 47 01 00 	bnd jmpq *0x1472d(%rip)        # 17ee8 <_ZSt16__throw_bad_castv@GLIBCXX_3.4>
    37bb:	0f 1f 44 00 00       	nopl   0x0(%rax,%rax,1)

00000000000037c0 <_ZStrsIcSt11char_traitsIcESaIcEERSt13basic_istreamIT_T0_ES7_RNSt7__cxx1112basic_stringIS4_S5_T1_EE@plt>:
    37c0:	f3 0f 1e fa          	endbr64 
    37c4:	f2 ff 25 25 47 01 00 	bnd jmpq *0x14725(%rip)        # 17ef0 <_ZStrsIcSt11char_traitsIcESaIcEERSt13basic_istreamIT_T0_ES7_RNSt7__cxx1112basic_stringIS4_S5_T1_EE@GLIBCXX_3.4.21>
    37cb:	0f 1f 44 00 00       	nopl   0x0(%rax,%rax,1)

00000000000037d0 <_ZdaPv@plt>:
    37d0:	f3 0f 1e fa          	endbr64 
    37d4:	f2 ff 25 1d 47 01 00 	bnd jmpq *0x1471d(%rip)        # 17ef8 <_ZdaPv@GLIBCXX_3.4>
    37db:	0f 1f 44 00 00       	nopl   0x0(%rax,%rax,1)

00000000000037e0 <_ZNSt7__cxx1115basic_stringbufIcSt11char_traitsIcESaIcEE7_M_syncEPcmm@plt>:
    37e0:	f3 0f 1e fa          	endbr64 
    37e4:	f2 ff 25 15 47 01 00 	bnd jmpq *0x14715(%rip)        # 17f00 <_ZNSt7__cxx1115basic_stringbufIcSt11char_traitsIcESaIcEE7_M_syncEPcmm@GLIBCXX_3.4.21>
    37eb:	0f 1f 44 00 00       	nopl   0x0(%rax,%rax,1)

00000000000037f0 <_ZStrsIcSt11char_traitsIcEERSt13basic_istreamIT_T0_ES6_RS3_@plt>:
    37f0:	f3 0f 1e fa          	endbr64 
    37f4:	f2 ff 25 0d 47 01 00 	bnd jmpq *0x1470d(%rip)        # 17f08 <_ZStrsIcSt11char_traitsIcEERSt13basic_istreamIT_T0_ES6_RS3_@GLIBCXX_3.4>
    37fb:	0f 1f 44 00 00       	nopl   0x0(%rax,%rax,1)

0000000000003800 <_ZNSt9basic_iosIcSt11char_traitsIcEE4initEPSt15basic_streambufIcS1_E@plt>:
    3800:	f3 0f 1e fa          	endbr64 
    3804:	f2 ff 25 05 47 01 00 	bnd jmpq *0x14705(%rip)        # 17f10 <_ZNSt9basic_iosIcSt11char_traitsIcEE4initEPSt15basic_streambufIcS1_E@GLIBCXX_3.4>
    380b:	0f 1f 44 00 00       	nopl   0x0(%rax,%rax,1)

0000000000003810 <strtol@plt>:
    3810:	f3 0f 1e fa          	endbr64 
    3814:	f2 ff 25 fd 46 01 00 	bnd jmpq *0x146fd(%rip)        # 17f18 <strtol@GLIBC_2.2.5>
    381b:	0f 1f 44 00 00       	nopl   0x0(%rax,%rax,1)

0000000000003820 <_ZNSt6localeD1Ev@plt>:
    3820:	f3 0f 1e fa          	endbr64 
    3824:	f2 ff 25 f5 46 01 00 	bnd jmpq *0x146f5(%rip)        # 17f20 <_ZNSt6localeD1Ev@GLIBCXX_3.4>
    382b:	0f 1f 44 00 00       	nopl   0x0(%rax,%rax,1)

0000000000003830 <__cxa_throw_bad_array_new_length@plt>:
    3830:	f3 0f 1e fa          	endbr64 
    3834:	f2 ff 25 ed 46 01 00 	bnd jmpq *0x146ed(%rip)        # 17f28 <__cxa_throw_bad_array_new_length@CXXABI_1.3.8>
    383b:	0f 1f 44 00 00       	nopl   0x0(%rax,%rax,1)

0000000000003840 <GOMP_parallel@plt>:
    3840:	f3 0f 1e fa          	endbr64 
    3844:	f2 ff 25 e5 46 01 00 	bnd jmpq *0x146e5(%rip)        # 17f30 <GOMP_parallel@GOMP_4.0>
    384b:	0f 1f 44 00 00       	nopl   0x0(%rax,%rax,1)

0000000000003850 <_ZSt24__throw_out_of_range_fmtPKcz@plt>:
    3850:	f3 0f 1e fa          	endbr64 
    3854:	f2 ff 25 dd 46 01 00 	bnd jmpq *0x146dd(%rip)        # 17f38 <_ZSt24__throw_out_of_range_fmtPKcz@GLIBCXX_3.4.20>
    385b:	0f 1f 44 00 00       	nopl   0x0(%rax,%rax,1)

0000000000003860 <_ZNSt8ios_base4InitC1Ev@plt>:
    3860:	f3 0f 1e fa          	endbr64 
    3864:	f2 ff 25 d5 46 01 00 	bnd jmpq *0x146d5(%rip)        # 17f40 <_ZNSt8ios_base4InitC1Ev@GLIBCXX_3.4>
    386b:	0f 1f 44 00 00       	nopl   0x0(%rax,%rax,1)

0000000000003870 <_ZNSt13basic_filebufIcSt11char_traitsIcEED1Ev@plt>:
    3870:	f3 0f 1e fa          	endbr64 
    3874:	f2 ff 25 cd 46 01 00 	bnd jmpq *0x146cd(%rip)        # 17f48 <_ZNSt13basic_filebufIcSt11char_traitsIcEED1Ev@GLIBCXX_3.4>
    387b:	0f 1f 44 00 00       	nopl   0x0(%rax,%rax,1)

0000000000003880 <_ZNSt7__cxx1112basic_stringIcSt11char_traitsIcESaIcEE7reserveEm@plt>:
    3880:	f3 0f 1e fa          	endbr64 
    3884:	f2 ff 25 c5 46 01 00 	bnd jmpq *0x146c5(%rip)        # 17f50 <_ZNSt7__cxx1112basic_stringIcSt11char_traitsIcESaIcEE7reserveEm@GLIBCXX_3.4.21>
    388b:	0f 1f 44 00 00       	nopl   0x0(%rax,%rax,1)

0000000000003890 <omp_get_thread_num@plt>:
    3890:	f3 0f 1e fa          	endbr64 
    3894:	f2 ff 25 bd 46 01 00 	bnd jmpq *0x146bd(%rip)        # 17f58 <omp_get_thread_num@OMP_1.0>
    389b:	0f 1f 44 00 00       	nopl   0x0(%rax,%rax,1)

00000000000038a0 <memmove@plt>:
    38a0:	f3 0f 1e fa          	endbr64 
    38a4:	f2 ff 25 b5 46 01 00 	bnd jmpq *0x146b5(%rip)        # 17f60 <memmove@GLIBC_2.2.5>
    38ab:	0f 1f 44 00 00       	nopl   0x0(%rax,%rax,1)

00000000000038b0 <__cxa_end_catch@plt>:
    38b0:	f3 0f 1e fa          	endbr64 
    38b4:	f2 ff 25 ad 46 01 00 	bnd jmpq *0x146ad(%rip)        # 17f68 <__cxa_end_catch@CXXABI_1.3>
    38bb:	0f 1f 44 00 00       	nopl   0x0(%rax,%rax,1)

00000000000038c0 <realloc@plt>:
    38c0:	f3 0f 1e fa          	endbr64 
    38c4:	f2 ff 25 a5 46 01 00 	bnd jmpq *0x146a5(%rip)        # 17f70 <realloc@GLIBC_2.2.5>
    38cb:	0f 1f 44 00 00       	nopl   0x0(%rax,%rax,1)

00000000000038d0 <_ZNSt9basic_iosIcSt11char_traitsIcEE5clearESt12_Ios_Iostate@plt>:
    38d0:	f3 0f 1e fa          	endbr64 
    38d4:	f2 ff 25 9d 46 01 00 	bnd jmpq *0x1469d(%rip)        # 17f78 <_ZNSt9basic_iosIcSt11char_traitsIcEE5clearESt12_Ios_Iostate@GLIBCXX_3.4>
    38db:	0f 1f 44 00 00       	nopl   0x0(%rax,%rax,1)

00000000000038e0 <_ZNSolsEi@plt>:
    38e0:	f3 0f 1e fa          	endbr64 
    38e4:	f2 ff 25 95 46 01 00 	bnd jmpq *0x14695(%rip)        # 17f80 <_ZNSolsEi@GLIBCXX_3.4>
    38eb:	0f 1f 44 00 00       	nopl   0x0(%rax,%rax,1)

00000000000038f0 <_Unwind_Resume@plt>:
    38f0:	f3 0f 1e fa          	endbr64 
    38f4:	f2 ff 25 8d 46 01 00 	bnd jmpq *0x1468d(%rip)        # 17f88 <_Unwind_Resume@GCC_3.0>
    38fb:	0f 1f 44 00 00       	nopl   0x0(%rax,%rax,1)

0000000000003900 <_ZNSt7__cxx1112basic_stringIcSt11char_traitsIcESaIcEE9_M_createERmm@plt>:
    3900:	f3 0f 1e fa          	endbr64 
    3904:	f2 ff 25 85 46 01 00 	bnd jmpq *0x14685(%rip)        # 17f90 <_ZNSt7__cxx1112basic_stringIcSt11char_traitsIcESaIcEE9_M_createERmm@GLIBCXX_3.4.21>
    390b:	0f 1f 44 00 00       	nopl   0x0(%rax,%rax,1)

0000000000003910 <GOMP_barrier@plt>:
    3910:	f3 0f 1e fa          	endbr64 
    3914:	f2 ff 25 7d 46 01 00 	bnd jmpq *0x1467d(%rip)        # 17f98 <GOMP_barrier@GOMP_1.0>
    391b:	0f 1f 44 00 00       	nopl   0x0(%rax,%rax,1)

0000000000003920 <_ZSt7getlineIcSt11char_traitsIcESaIcEERSt13basic_istreamIT_T0_ES7_RNSt7__cxx1112basic_stringIS4_S5_T1_EES4_@plt>:
    3920:	f3 0f 1e fa          	endbr64 
    3924:	f2 ff 25 75 46 01 00 	bnd jmpq *0x14675(%rip)        # 17fa0 <_ZSt7getlineIcSt11char_traitsIcESaIcEERSt13basic_istreamIT_T0_ES7_RNSt7__cxx1112basic_stringIS4_S5_T1_EES4_@GLIBCXX_3.4.21>
    392b:	0f 1f 44 00 00       	nopl   0x0(%rax,%rax,1)

0000000000003930 <_ZNSt12__basic_fileIcED1Ev@plt>:
    3930:	f3 0f 1e fa          	endbr64 
    3934:	f2 ff 25 6d 46 01 00 	bnd jmpq *0x1466d(%rip)        # 17fa8 <_ZNSt12__basic_fileIcED1Ev@GLIBCXX_3.4>
    393b:	0f 1f 44 00 00       	nopl   0x0(%rax,%rax,1)

0000000000003940 <omp_get_num_threads@plt>:
    3940:	f3 0f 1e fa          	endbr64 
    3944:	f2 ff 25 65 46 01 00 	bnd jmpq *0x14665(%rip)        # 17fb0 <omp_get_num_threads@OMP_1.0>
    394b:	0f 1f 44 00 00       	nopl   0x0(%rax,%rax,1)

0000000000003950 <GOMP_loop_ull_nonmonotonic_dynamic_next@plt>:
    3950:	f3 0f 1e fa          	endbr64 
    3954:	f2 ff 25 5d 46 01 00 	bnd jmpq *0x1465d(%rip)        # 17fb8 <GOMP_loop_ull_nonmonotonic_dynamic_next@GOMP_4.5>
    395b:	0f 1f 44 00 00       	nopl   0x0(%rax,%rax,1)

0000000000003960 <_ZNKSt7__cxx1112basic_stringIcSt11char_traitsIcESaIcEE5rfindEcm@plt>:
    3960:	f3 0f 1e fa          	endbr64 
    3964:	f2 ff 25 55 46 01 00 	bnd jmpq *0x14655(%rip)        # 17fc0 <_ZNKSt7__cxx1112basic_stringIcSt11char_traitsIcESaIcEE5rfindEcm@GLIBCXX_3.4.21>
    396b:	0f 1f 44 00 00       	nopl   0x0(%rax,%rax,1)

0000000000003970 <_ZNSt6localeC1Ev@plt>:
    3970:	f3 0f 1e fa          	endbr64 
    3974:	f2 ff 25 4d 46 01 00 	bnd jmpq *0x1464d(%rip)        # 17fc8 <_ZNSt6localeC1Ev@GLIBCXX_3.4>
    397b:	0f 1f 44 00 00       	nopl   0x0(%rax,%rax,1)

Disassembly of section .text:

0000000000003980 <_Z10PrintLabelRKNSt7__cxx1112basic_stringIcSt11char_traitsIcESaIcEEES6_.cold>:
_ZNKSt7__cxx1112basic_stringIcSt11char_traitsIcESaIcEE7_M_dataEv():
/usr/include/c++/10/bits/basic_string.h:195 (discriminator 1)
      _M_length(size_type __length)
      { _M_string_length = __length; }

      pointer
      _M_data() const
      { return _M_dataplus._M_p; }
    3980:	    48 8b 7c 24 10       	mov    0x10(%rsp),%rdi
_ZNSt7__cxx1112basic_stringIcSt11char_traitsIcESaIcEE10_M_disposeEv():
/usr/include/c++/10/bits/basic_string.h:239 (discriminator 1)
      _M_create(size_type&, size_type);

      void
      _M_dispose()
      {
	if (!_M_is_local())
    3985:	    48 39 df             	cmp    %rbx,%rdi
    3988:	/-- 74 05                	je     398f <_Z10PrintLabelRKNSt7__cxx1112basic_stringIcSt11char_traitsIcESaIcEEES6_.cold+0xf>
_ZN9__gnu_cxx13new_allocatorIcE10deallocateEPcm():
/usr/include/c++/10/ext/new_allocator.h:139
# endif
			      std::align_val_t(alignof(_Tp)));
	    return;
	  }
#endif
	::operator delete(__p
    398a:	|   e8 61 fd ff ff       	callq  36f0 <_ZdlPv@plt>
_ZN9__gnu_cxx13new_allocatorIcED4Ev():
/usr/include/c++/10/ext/new_allocator.h:89
      ~new_allocator() _GLIBCXX_USE_NOEXCEPT { }
    398f:	\-> 48 89 ef             	mov    %rbp,%rdi
    3992:	    e8 59 ff ff ff       	callq  38f0 <_Unwind_Resume@plt>

0000000000003997 <_Z9PrintTimeRKNSt7__cxx1112basic_stringIcSt11char_traitsIcESaIcEEEd.cold>:
_ZNKSt7__cxx1112basic_stringIcSt11char_traitsIcESaIcEE7_M_dataEv():
/usr/include/c++/10/bits/basic_string.h:195 (discriminator 1)
      { return _M_dataplus._M_p; }
    3997:	    48 8b 7c 24 10       	mov    0x10(%rsp),%rdi
_ZNSt7__cxx1112basic_stringIcSt11char_traitsIcESaIcEE10_M_disposeEv():
/usr/include/c++/10/bits/basic_string.h:239 (discriminator 1)
	if (!_M_is_local())
    399c:	    48 39 df             	cmp    %rbx,%rdi
    399f:	/-- 74 05                	je     39a6 <_Z9PrintTimeRKNSt7__cxx1112basic_stringIcSt11char_traitsIcESaIcEEEd.cold+0xf>
_ZN9__gnu_cxx13new_allocatorIcE10deallocateEPcm():
/usr/include/c++/10/ext/new_allocator.h:139
	::operator delete(__p
    39a1:	|   e8 4a fd ff ff       	callq  36f0 <_ZdlPv@plt>
_ZN9__gnu_cxx13new_allocatorIcED4Ev():
/usr/include/c++/10/ext/new_allocator.h:89
      ~new_allocator() _GLIBCXX_USE_NOEXCEPT { }
    39a6:	\-> 48 89 ef             	mov    %rbp,%rdi
    39a9:	    e8 42 ff ff ff       	callq  38f0 <_Unwind_Resume@plt>

00000000000039ae <_Z9PrintStepRKNSt7__cxx1112basic_stringIcSt11char_traitsIcESaIcEEEl.cold>:
_ZNKSt7__cxx1112basic_stringIcSt11char_traitsIcESaIcEE7_M_dataEv():
/usr/include/c++/10/bits/basic_string.h:195 (discriminator 1)
      { return _M_dataplus._M_p; }
    39ae:	    48 8b 7c 24 10       	mov    0x10(%rsp),%rdi
_ZNSt7__cxx1112basic_stringIcSt11char_traitsIcESaIcEE10_M_disposeEv():
/usr/include/c++/10/bits/basic_string.h:239 (discriminator 1)
	if (!_M_is_local())
    39b3:	    48 39 df             	cmp    %rbx,%rdi
    39b6:	/-- 74 05                	je     39bd <_Z9PrintStepRKNSt7__cxx1112basic_stringIcSt11char_traitsIcESaIcEEEl.cold+0xf>
_ZN9__gnu_cxx13new_allocatorIcE10deallocateEPcm():
/usr/include/c++/10/ext/new_allocator.h:139
	::operator delete(__p
    39b8:	|   e8 33 fd ff ff       	callq  36f0 <_ZdlPv@plt>
_ZN9__gnu_cxx13new_allocatorIcED4Ev():
/usr/include/c++/10/ext/new_allocator.h:89
      ~new_allocator() _GLIBCXX_USE_NOEXCEPT { }
    39bd:	\-> 48 89 ef             	mov    %rbp,%rdi
    39c0:	    e8 2b ff ff ff       	callq  38f0 <_Unwind_Resume@plt>

00000000000039c5 <_Z9PrintStepidl.cold>:
_ZNKSt7__cxx1112basic_stringIcSt11char_traitsIcESaIcEE7_M_dataEv():
/usr/include/c++/10/bits/basic_string.h:195 (discriminator 1)
      { return _M_dataplus._M_p; }
    39c5:	    48 8b 7c 24 10       	mov    0x10(%rsp),%rdi
_ZNSt7__cxx1112basic_stringIcSt11char_traitsIcESaIcEE10_M_disposeEv():
/usr/include/c++/10/bits/basic_string.h:239 (discriminator 1)
	if (!_M_is_local())
    39ca:	    48 39 ef             	cmp    %rbp,%rdi
    39cd:	/-- 74 05                	je     39d4 <_Z9PrintStepidl.cold+0xf>
_ZN9__gnu_cxx13new_allocatorIcE10deallocateEPcm():
/usr/include/c++/10/ext/new_allocator.h:139
	::operator delete(__p
    39cf:	|   e8 1c fd ff ff       	callq  36f0 <_ZdlPv@plt>
_ZN9__gnu_cxx13new_allocatorIcED4Ev():
/usr/include/c++/10/ext/new_allocator.h:89
      ~new_allocator() _GLIBCXX_USE_NOEXCEPT { }
    39d4:	\-> 4c 89 e7             	mov    %r12,%rdi
    39d7:	    e8 14 ff ff ff       	callq  38f0 <_Unwind_Resume@plt>

00000000000039dc <_Z9DeltaStepRK8CSRGraphIi10NodeWeightIiiELb1EEiib.cold>:
_ZN7pvectorIiEC4Em():
/home/aliha951/forked_gapbs/gapbs/src/pvector.h:30
  typedef T_* iterator;

  pvector() : start_(nullptr), end_size_(nullptr), end_capacity_(nullptr) {}

  explicit pvector(size_t num_elements) {
    start_ = new T_[num_elements];
    39dc:	    e8 4f fe ff ff       	callq  3830 <__cxa_throw_bad_array_new_length@plt>
    39e1:	    e8 4a fe ff ff       	callq  3830 <__cxa_throw_bad_array_new_length@plt>
    39e6:	    f3 0f 1e fa          	endbr64 
_ZN7pvectorIiE16ReleaseResourcesEv():
/home/aliha951/forked_gapbs/gapbs/src/pvector.h:73
    }
    return *this;
  }

  void ReleaseResources(){
    if (start_ != nullptr) {
    39ea:	    49 8b 3c 24          	mov    (%r12),%rdi
    39ee:	    48 89 c5             	mov    %rax,%rbp
    39f1:	    48 85 ff             	test   %rdi,%rdi
    39f4:	/-- 74 05                	je     39fb <_Z9DeltaStepRK8CSRGraphIi10NodeWeightIiiELb1EEiib.cold+0x1f>
/home/aliha951/forked_gapbs/gapbs/src/pvector.h:74
      delete[] start_;
    39f6:	|   e8 d5 fd ff ff       	callq  37d0 <_ZdaPv@plt>
    39fb:	\-> 48 89 ef             	mov    %rbp,%rdi
    39fe:	    e8 ed fe ff ff       	callq  38f0 <_Unwind_Resume@plt>

0000000000003a03 <_Z9DeltaStepRK8CSRGraphIi10NodeWeightIiiELb1EEiib._omp_fn.0.cold>:
_Z9DeltaStepRK8CSRGraphIi10NodeWeightIiiELb1EEiib._omp_fn.0.cold():
/home/aliha951/forked_gapbs/gapbs/src/pvector.h:74
    3a03:	e8 68 fb ff ff       	callq  3570 <_ZSt9terminatev@plt>

0000000000003a08 <_Z12SSSPVerifierRK8CSRGraphIi10NodeWeightIiiELb1EEiRK7pvectorIiE.cold>:
_ZN7pvectorIiEC4Em():
/home/aliha951/forked_gapbs/gapbs/src/pvector.h:30
    start_ = new T_[num_elements];
    3a08:	    e8 23 fe ff ff       	callq  3830 <__cxa_throw_bad_array_new_length@plt>
_ZNSt6vectorISt4pairIiiESaIS1_EED4Ev():
/usr/include/c++/10/bits/stl_vector.h:680
       *  not touched in any way.  Managing the pointer is the user's
       *  responsibility.
       */
      ~vector() _GLIBCXX_NOEXCEPT
      {
	std::_Destroy(this->_M_impl._M_start, this->_M_impl._M_finish,
    3a0d:	    48 8b 7c 24 60       	mov    0x60(%rsp),%rdi
_ZNSt12_Vector_baseISt4pairIiiESaIS1_EE13_M_deallocateEPS1_m():
/usr/include/c++/10/bits/stl_vector.h:353
	if (__p)
    3a12:	    48 85 ff             	test   %rdi,%rdi
    3a15:	/-- 74 05                	je     3a1c <_Z12SSSPVerifierRK8CSRGraphIi10NodeWeightIiiELb1EEiRK7pvectorIiE.cold+0x14>
_ZN9__gnu_cxx13new_allocatorISt4pairIiiEE10deallocateEPS2_m():
/usr/include/c++/10/ext/new_allocator.h:139
	::operator delete(__p
    3a17:	|   e8 d4 fc ff ff       	callq  36f0 <_ZdlPv@plt>
_ZN7pvectorIiE16ReleaseResourcesEv():
/home/aliha951/forked_gapbs/gapbs/src/pvector.h:73
    if (start_ != nullptr) {
    3a1c:	\-> 48 8b 7c 24 40       	mov    0x40(%rsp),%rdi
    3a21:	    48 85 ff             	test   %rdi,%rdi
    3a24:	/-- 74 05                	je     3a2b <_Z12SSSPVerifierRK8CSRGraphIi10NodeWeightIiiELb1EEiRK7pvectorIiE.cold+0x23>
/home/aliha951/forked_gapbs/gapbs/src/pvector.h:74
      delete[] start_;
    3a26:	|   e8 a5 fd ff ff       	callq  37d0 <_ZdaPv@plt>
    3a2b:	\-> 48 89 ef             	mov    %rbp,%rdi
    3a2e:	    e8 bd fe ff ff       	callq  38f0 <_Unwind_Resume@plt>

0000000000003a33 <main.cold>:
_ZNKSt7__cxx1112basic_stringIcSt11char_traitsIcESaIcEE7_M_dataEv():
/usr/include/c++/10/bits/basic_string.h:195
      { return _M_dataplus._M_p; }
    3a33:	                48 8b bc 24 e0 00 00 	mov    0xe0(%rsp),%rdi
    3a3a:	00 
_ZNSt7__cxx1112basic_stringIcSt11char_traitsIcESaIcEE10_M_disposeEv():
/usr/include/c++/10/bits/basic_string.h:239
	if (!_M_is_local())
    3a3b:	                4c 39 ef             	cmp    %r13,%rdi
    3a3e:	            /-- 74 05                	je     3a45 <main.cold+0x12>
_ZN9__gnu_cxx13new_allocatorIcE10deallocateEPcm():
/usr/include/c++/10/ext/new_allocator.h:139
    3a40:	            |   e8 ab fc ff ff       	callq  36f0 <_ZdlPv@plt>
_ZNKSt7__cxx1112basic_stringIcSt11char_traitsIcESaIcEE7_M_dataEv():
/usr/include/c++/10/bits/basic_string.h:195
      { return _M_dataplus._M_p; }
    3a45:	            \-> 48 8b bc 24 c0 00 00 	mov    0xc0(%rsp),%rdi
    3a4c:	00 
_ZNSt7__cxx1112basic_stringIcSt11char_traitsIcESaIcEE10_M_disposeEv():
/usr/include/c++/10/bits/basic_string.h:239
	if (!_M_is_local())
    3a4d:	                48 3b 7c 24 08       	cmp    0x8(%rsp),%rdi
    3a52:	   /----------- 74 05                	je     3a59 <main.cold+0x26>
_ZN9__gnu_cxx13new_allocatorIcE10deallocateEPcm():
/usr/include/c++/10/ext/new_allocator.h:139
    3a54:	   |  /-------> e8 97 fc ff ff       	callq  36f0 <_ZdlPv@plt>
_ZN7pvectorIiE16ReleaseResourcesEv():
/home/aliha951/forked_gapbs/gapbs/src/pvector.h:73
    if (start_ != nullptr) {
    3a59:	   >--|-------> 48 8b 7c 24 60       	mov    0x60(%rsp),%rdi
    3a5e:	   |  |         48 85 ff             	test   %rdi,%rdi
    3a61:	   |  |  /----- 75 4b                	jne    3aae <main.cold+0x7b>
_ZN8CSRGraphIi10NodeWeightIiiELb1EED4Ev():
/home/aliha951/forked_gapbs/gapbs/src/graph.h:166
      other.in_index_ = nullptr;
      other.in_neighbors_ = nullptr;
  }

  ~CSRGraph() {
    ReleaseResources();
    3a63:	/--|--|--|----> 4c 89 ff             	mov    %r15,%rdi
    3a66:	|  |  |  |      e8 d5 54 00 00       	callq  8f40 <_ZN8CSRGraphIi10NodeWeightIiiELb1EE16ReleaseResourcesEv>
_ZN5CLAppD4Ev():
/home/aliha951/forked_gapbs/gapbs/src/command_line.h:114
  bool in_place() const { return in_place_; }
};



class CLApp : public CLBase {
    3a6b:	|  |  |  |      48 8b 7c 24 28       	mov    0x28(%rsp),%rdi
    3a70:	|  |  |  |      48 8d 05 f1 3d 01 00 	lea    0x13df1(%rip),%rax        # 17868 <_ZTV5CLApp+0x10>
    3a77:	|  |  |  |      48 89 84 24 00 01 00 	mov    %rax,0x100(%rsp)
    3a7e:	00 
    3a7f:	|  |  |  |      e8 fc 4c 00 00       	callq  8780 <_ZN6CLBaseD1Ev>
    3a84:	|  |  |  |      48 89 df             	mov    %rbx,%rdi
    3a87:	|  |  |  |      e8 64 fe ff ff       	callq  38f0 <_Unwind_Resume@plt>
_ZNKSt7__cxx1112basic_stringIcSt11char_traitsIcESaIcEE7_M_dataEv():
/usr/include/c++/10/bits/basic_string.h:195
      { return _M_dataplus._M_p; }
    3a8c:	|  |  |  |      48 8b bc 24 a0 0b 00 	mov    0xba0(%rsp),%rdi
    3a93:	00 
_ZNSt7__cxx1112basic_stringIcSt11char_traitsIcESaIcEE10_M_disposeEv():
/usr/include/c++/10/bits/basic_string.h:239
	if (!_M_is_local())
    3a94:	|  |  |  |      48 8d 84 24 b0 0b 00 	lea    0xbb0(%rsp),%rax
    3a9b:	00 
    3a9c:	|  |  |  |      48 39 c7             	cmp    %rax,%rdi
    3a9f:	|  |  |  |  /-- 74 05                	je     3aa6 <main.cold+0x73>
_ZN9__gnu_cxx13new_allocatorIcE10deallocateEPcm():
/usr/include/c++/10/ext/new_allocator.h:139
    3aa1:	|  |  |  |  |   e8 4a fc ff ff       	callq  36f0 <_ZdlPv@plt>
_ZN9__gnu_cxx13new_allocatorIcED4Ev():
/usr/include/c++/10/ext/new_allocator.h:89
      ~new_allocator() _GLIBCXX_USE_NOEXCEPT { }
    3aa6:	|  |  |  |  \-> 48 89 ef             	mov    %rbp,%rdi
    3aa9:	|  |  |  |      e8 42 fe ff ff       	callq  38f0 <_Unwind_Resume@plt>
_ZN7pvectorIiE16ReleaseResourcesEv():
/home/aliha951/forked_gapbs/gapbs/src/pvector.h:74
      delete[] start_;
    3aae:	|  |  |  \----> e8 1d fd ff ff       	callq  37d0 <_ZdaPv@plt>
    3ab3:	+--|--|-------- eb ae                	jmp    3a63 <main.cold+0x30>
_ZNKSt7__cxx1112basic_stringIcSt11char_traitsIcESaIcEE7_M_dataEv():
/usr/include/c++/10/bits/basic_string.h:195
      { return _M_dataplus._M_p; }
    3ab5:	|  |  |         48 8b bc 24 e0 00 00 	mov    0xe0(%rsp),%rdi
    3abc:	00 
_ZNSt7__cxx1112basic_stringIcSt11char_traitsIcESaIcEE10_M_disposeEv():
/usr/include/c++/10/bits/basic_string.h:239
	if (!_M_is_local())
    3abd:	|  |  |         4c 39 ef             	cmp    %r13,%rdi
    3ac0:	|  |  \-------- 75 92                	jne    3a54 <main.cold+0x21>
    3ac2:	|  \----------- eb 95                	jmp    3a59 <main.cold+0x26>
_ZNKSt7__cxx1112basic_stringIcSt11char_traitsIcESaIcEE7_M_dataEv():
/usr/include/c++/10/bits/basic_string.h:195
      { return _M_dataplus._M_p; }
    3ac4:	|               48 8b bc 24 e0 00 00 	mov    0xe0(%rsp),%rdi
    3acb:	00 
_ZNSt7__cxx1112basic_stringIcSt11char_traitsIcESaIcEE10_M_disposeEv():
/usr/include/c++/10/bits/basic_string.h:239
	if (!_M_is_local())
    3acc:	|               48 8d 84 24 f0 00 00 	lea    0xf0(%rsp),%rax
    3ad3:	00 
    3ad4:	|               48 39 c7             	cmp    %rax,%rdi
    3ad7:	+-------------- 74 8a                	je     3a63 <main.cold+0x30>
_ZN9__gnu_cxx13new_allocatorIcE10deallocateEPcm():
/usr/include/c++/10/ext/new_allocator.h:139
	::operator delete(__p
    3ad9:	|               e8 12 fc ff ff       	callq  36f0 <_ZdlPv@plt>
_ZNSt7__cxx1112basic_stringIcSt11char_traitsIcESaIcEE10_M_destroyEm():
/usr/include/c++/10/bits/basic_string.h:245
	  _M_destroy(_M_allocated_capacity);
      }

      void
      _M_destroy(size_type __size) throw()
      { _Alloc_traits::deallocate(_M_get_allocator(), _M_data(), __size + 1); }
    3ade:	\-------------- eb 83                	jmp    3a63 <main.cold+0x30>

0000000000003ae0 <main>:
main():
/home/aliha951/forked_gapbs/gapbs/src/sssp.cc:197
  }
  return all_ok;
}


int main(int argc, char* argv[]) {
    3ae0:	                                                       f3 0f 1e fa          	endbr64 
    3ae4:	                                                       41 57                	push   %r15
    3ae6:	                                                       41 56                	push   %r14
    3ae8:	                                                       41 55                	push   %r13
    3aea:	                                                       41 54                	push   %r12
    3aec:	                                                       55                   	push   %rbp
    3aed:	                                                       53                   	push   %rbx
    3aee:	                                                       48 81 ec 00 10 00 00 	sub    $0x1000,%rsp
    3af5:	                                                       48 83 0c 24 00       	orq    $0x0,(%rsp)
    3afa:	                                                       48 81 ec a8 05 00 00 	sub    $0x5a8,%rsp
    3b01:	                                                       64 48 8b 04 25 28 00 	mov    %fs:0x28,%rax
    3b08:	00 00 
    3b0a:	                                                       48 89 84 24 98 15 00 	mov    %rax,0x1598(%rsp)
    3b11:	00 
    3b12:	                                                       31 c0                	xor    %eax,%eax
/home/aliha951/forked_gapbs/gapbs/src/sssp.cc:198
  CLDelta<WeightT> cli(argc, argv, "single-source shortest-path");
    3b14:	                                                       4c 8d a4 24 a0 0b 00 	lea    0xba0(%rsp),%r12
    3b1b:	00 
/home/aliha951/forked_gapbs/gapbs/src/sssp.cc:197
int main(int argc, char* argv[]) {
    3b1c:	                                                       89 fd                	mov    %edi,%ebp
    3b1e:	                                                       49 89 f5             	mov    %rsi,%r13
/home/aliha951/forked_gapbs/gapbs/src/sssp.cc:198
  CLDelta<WeightT> cli(argc, argv, "single-source shortest-path");
    3b21:	                                                       4c 89 e7             	mov    %r12,%rdi
    3b24:	                                                       48 8d 35 31 06 01 00 	lea    0x10631(%rip),%rsi        # 1415c <_IO_stdin_used+0x15c>
    3b2b:	                                                       e8 f0 1a 00 00       	callq  5620 <_ZNSt7__cxx1112basic_stringIcSt11char_traitsIcESaIcEEC2EPKcRKS3_.constprop.0>
    3b30:	                                                       4c 89 e1             	mov    %r12,%rcx
    3b33:	                                                       4c 89 ea             	mov    %r13,%rdx
    3b36:	                                                       89 ee                	mov    %ebp,%esi
    3b38:	                                                       48 8d 84 24 00 01 00 	lea    0x100(%rsp),%rax
    3b3f:	00 
    3b40:	                                                       48 89 c7             	mov    %rax,%rdi
    3b43:	                                                       48 89 44 24 28       	mov    %rax,0x28(%rsp)
    3b48:	                                                       e8 93 72 00 00       	callq  ade0 <_ZN7CLDeltaIiEC1EiPPcNSt7__cxx1112basic_stringIcSt11char_traitsIcESaIcEEE>
_ZNKSt7__cxx1112basic_stringIcSt11char_traitsIcESaIcEE7_M_dataEv():
/usr/include/c++/10/bits/basic_string.h:195
      { return _M_dataplus._M_p; }
    3b4d:	                                                       48 8b bc 24 a0 0b 00 	mov    0xba0(%rsp),%rdi
    3b54:	00 
_ZNSt7__cxx1112basic_stringIcSt11char_traitsIcESaIcEE10_M_disposeEv():
/usr/include/c++/10/bits/basic_string.h:239
	if (!_M_is_local())
    3b55:	                                                       4c 8d ac 24 b0 0b 00 	lea    0xbb0(%rsp),%r13
    3b5c:	00 
    3b5d:	                                                       4c 39 ef             	cmp    %r13,%rdi
    3b60:	                                                   /-- 74 05                	je     3b67 <main+0x87>
_ZN9__gnu_cxx13new_allocatorIcE10deallocateEPcm():
/usr/include/c++/10/ext/new_allocator.h:139
    3b62:	                                                   |   e8 89 fb ff ff       	callq  36f0 <_ZdlPv@plt>
_ZNSt7__cxx1112basic_stringIcSt11char_traitsIcESaIcEEaSEOS4_():
/usr/include/c++/10/bits/basic_string.h:745
	    || _M_get_allocator() == __str._M_get_allocator())
	  {
	    // Just move the allocated pointer, our allocator can free it.
	    pointer __data = nullptr;
	    size_type __capacity;
	    if (!_M_is_local())
    3b67:	                                                   \-> 48 8d 84 24 88 01 00 	lea    0x188(%rsp),%rax
    3b6e:	00 
_ZN6CLBase9HandleArgEaPc():
/home/aliha951/forked_gapbs/gapbs/src/command_line.h:85
    switch (opt) {
    3b6f:	                                                       4c 8d 35 46 0b 01 00 	lea    0x10b46(%rip),%r14        # 146bc <_IO_stdin_used+0x6bc>
_ZNSt7__cxx1112basic_stringIcSt11char_traitsIcESaIcEEaSEOS4_():
/usr/include/c++/10/bits/basic_string.h:745
    3b76:	                                                       48 89 04 24          	mov    %rax,(%rsp)
_ZNSt7__cxx1112basic_stringIcSt11char_traitsIcESaIcEE12_M_constructIPKcEEvT_S8_St20forward_iterator_tag():
/usr/include/c++/10/bits/basic_string.tcc:219

	size_type __dnew = static_cast<size_type>(std::distance(__beg, __end));

	if (__dnew > size_type(_S_local_capacity))
	  {
	    _M_data(_M_create(__dnew, size_type(0)));
    3b7a:	                                                       4c 8d bc 24 80 00 00 	lea    0x80(%rsp),%r15
    3b81:	00 
_ZN5CLApp9HandleArgEaPc():
/home/aliha951/forked_gapbs/gapbs/src/command_line.h:132
    AddHelpLine('v', "", "verify the output of each run", "false");
    AddHelpLine('l', "", "log performance within each trial", "false");
  }

  void HandleArg(signed char opt, char* opt_arg) override {
    switch (opt) {
    3b82:	                                                       48 8d 1d db 0a 01 00 	lea    0x10adb(%rip),%rbx        # 14664 <_IO_stdin_used+0x664>
    3b89:	                                                       0f 1f 80 00 00 00 00 	nopl   0x0(%rax)
_ZN6CLBase9ParseArgsEv():
/home/aliha951/forked_gapbs/gapbs/src/command_line.h:72
    while ((c_opt = getopt(argc_, argv_, get_args_.c_str())) != -1) {
    3b90:	/----------------------------------------------------> 48 8b 94 24 38 01 00 	mov    0x138(%rsp),%rdx
    3b97:	00 
    3b98:	|                                                      48 8b b4 24 10 01 00 	mov    0x110(%rsp),%rsi
    3b9f:	00 
    3ba0:	|                                                      8b bc 24 08 01 00 00 	mov    0x108(%rsp),%edi
    3ba7:	|                                                      e8 94 f9 ff ff       	callq  3540 <getopt@plt>
    3bac:	|                                                      3c ff                	cmp    $0xff,%al
    3bae:	|                                            /-------- 0f 84 b7 00 00 00    	je     3c6b <main+0x18b>
/home/aliha951/forked_gapbs/gapbs/src/command_line.h:73
      HandleArg(c_opt, optarg);
    3bb4:	|                                            |         48 8b 2d 85 44 01 00 	mov    0x14485(%rip),%rbp        # 18040 <optarg@@GLIBC_2.2.5>
_ZN7CLDeltaIiE9HandleArgEaPc():
/home/aliha951/forked_gapbs/gapbs/src/command_line.h:212
    get_args_ += "d:";
    AddHelpLine('d', "d", "delta parameter", std::to_string(delta_));
  }

  void HandleArg(signed char opt, char* opt_arg) override {
    switch (opt) {
    3bbb:	|                                            |         3c 64                	cmp    $0x64,%al
    3bbd:	|                                            |  /----- 0f 84 8d 00 00 00    	je     3c50 <main+0x170>
_ZN5CLApp9HandleArgEaPc():
/home/aliha951/forked_gapbs/gapbs/src/command_line.h:132
    switch (opt) {
    3bc3:	|                                            |  |      8d 50 9f             	lea    -0x61(%rax),%edx
    3bc6:	|                                            |  |      80 fa 15             	cmp    $0x15,%dl
    3bc9:	|                                            |  |  /-- 77 15                	ja     3be0 <main+0x100>
    3bcb:	|                                            |  |  |   0f b6 d2             	movzbl %dl,%edx
    3bce:	|                                            |  |  |   48 63 14 93          	movslq (%rbx,%rdx,4),%rdx
    3bd2:	|                                            |  |  |   48 01 da             	add    %rbx,%rdx
    3bd5:	|                                            |  |  |   3e ff e2             	notrack jmpq *%rdx
    3bd8:	|                                            |  |  |   0f 1f 84 00 00 00 00 	nopl   0x0(%rax,%rax,1)
    3bdf:	00 
_ZN6CLBase9HandleArgEaPc():
/home/aliha951/forked_gapbs/gapbs/src/command_line.h:85
    switch (opt) {
    3be0:	|                                            |  |  \-> 83 e8 66             	sub    $0x66,%eax
    3be3:	|                                            |  |      3c 0f                	cmp    $0xf,%al
    3be5:	+--------------------------------------------|--|----- 77 a9                	ja     3b90 <main+0xb0>
    3be7:	|                                            |  |      0f b6 c0             	movzbl %al,%eax
    3bea:	|                                            |  |      49 63 04 86          	movslq (%r14,%rax,4),%rax
    3bee:	|                                            |  |      4c 01 f0             	add    %r14,%rax
    3bf1:	|                                            |  |      3e ff e0             	notrack jmpq *%rax
_ZN5CLApp9HandleArgEaPc():
/home/aliha951/forked_gapbs/gapbs/src/command_line.h:136
      case 'v': do_verify_ = true;                      break;
    3bf4:	|                                            |  |      c6 84 24 a8 01 00 00 	movb   $0x1,0x1a8(%rsp)
    3bfb:	01 
    3bfc:	+--------------------------------------------|--|----- eb 92                	jmp    3b90 <main+0xb0>
main():
/usr/include/stdlib.h:368
  return (int) strtol (__nptr, (char **) NULL, 10);
}
__extern_inline long int
__NTH (atol (const char *__nptr))
{
  return strtol (__nptr, (char **) NULL, 10);
    3bfe:	|                                            |  |      ba 0a 00 00 00       	mov    $0xa,%edx
atol():
/usr/include/stdlib.h:368
    3c03:	|                                            |  |      31 f6                	xor    %esi,%esi
    3c05:	|                                            |  |      48 89 ef             	mov    %rbp,%rdi
    3c08:	|                                            |  |      e8 03 fc ff ff       	callq  3810 <strtol@plt>
_ZN5CLApp9HandleArgEaPc():
/home/aliha951/forked_gapbs/gapbs/src/command_line.h:135
      case 'r': start_vertex_ = atol(opt_arg);          break;
    3c0d:	|                                            |  |      48 89 84 24 a0 01 00 	mov    %rax,0x1a0(%rsp)
    3c14:	00 
    3c15:	+--------------------------------------------|--|----- e9 76 ff ff ff       	jmpq   3b90 <main+0xb0>
main():
/usr/include/stdlib.h:363
  return (int) strtol (__nptr, (char **) NULL, 10);
    3c1a:	|                                            |  |      ba 0a 00 00 00       	mov    $0xa,%edx
atoi():
/usr/include/stdlib.h:363
    3c1f:	|                                            |  |      31 f6                	xor    %esi,%esi
    3c21:	|                                            |  |      48 89 ef             	mov    %rbp,%rdi
    3c24:	|                                            |  |      e8 e7 fb ff ff       	callq  3810 <strtol@plt>
    3c29:	|                                            |  |      89 84 24 9c 01 00 00 	mov    %eax,0x19c(%rsp)
_ZN5CLApp9HandleArgEaPc():
/home/aliha951/forked_gapbs/gapbs/src/command_line.h:134
      case 'n': num_trials_ = atoi(opt_arg);            break;
    3c30:	+--------------------------------------------|--|----- e9 5b ff ff ff       	jmpq   3b90 <main+0xb0>
/home/aliha951/forked_gapbs/gapbs/src/command_line.h:137
      case 'l': enable_logging_ = true;                 break;
    3c35:	|                                            |  |      c6 84 24 a9 01 00 00 	movb   $0x1,0x1a9(%rsp)
    3c3c:	01 
    3c3d:	+--------------------------------------------|--|----- e9 4e ff ff ff       	jmpq   3b90 <main+0xb0>
/home/aliha951/forked_gapbs/gapbs/src/command_line.h:133
      case 'a': do_analysis_ = true;                    break;
    3c42:	|                                            |  |      c6 84 24 9b 01 00 00 	movb   $0x1,0x19b(%rsp)
    3c49:	01 
    3c4a:	+--------------------------------------------|--|----- e9 41 ff ff ff       	jmpq   3b90 <main+0xb0>
    3c4f:	|                                            |  |      90                   	nop
main():
/usr/include/stdlib.h:368
  return strtol (__nptr, (char **) NULL, 10);
    3c50:	|                                            |  \----> ba 0a 00 00 00       	mov    $0xa,%edx
atol():
/usr/include/stdlib.h:368
    3c55:	|                                            |         31 f6                	xor    %esi,%esi
    3c57:	|                                            |         48 89 ef             	mov    %rbp,%rdi
    3c5a:	|                                            |         e8 b1 fb ff ff       	callq  3810 <strtol@plt>
_ZN7CLDeltaIiE9HandleArgEaPc():
/home/aliha951/forked_gapbs/gapbs/src/command_line.h:217
      case 'd':
        if (std::is_floating_point<WeightT_>::value)
          delta_ = static_cast<WeightT_>(atof(opt_arg));
        else
          delta_ = static_cast<WeightT_>(atol(opt_arg));
    3c5f:	|                                            |         89 84 24 ac 01 00 00 	mov    %eax,0x1ac(%rsp)
/home/aliha951/forked_gapbs/gapbs/src/command_line.h:218
        break;
    3c66:	+--------------------------------------------|-------- e9 25 ff ff ff       	jmpq   3b90 <main+0xb0>
_ZSteqIcSt11char_traitsIcESaIcEEbRKNSt7__cxx1112basic_stringIT_T0_T1_EEPKS5_():
/usr/include/c++/10/bits/basic_string.h:6199
   */
  template<typename _CharT, typename _Traits, typename _Alloc>
    inline bool
    operator==(const basic_string<_CharT, _Traits, _Alloc>& __lhs,
	       const _CharT* __rhs)
    { return __lhs.compare(__rhs) == 0; }
    3c6b:	|                                            \-------> 48 8d bc 24 78 01 00 	lea    0x178(%rsp),%rdi
    3c72:	00 
    3c73:	|                                                      48 8d 35 76 04 01 00 	lea    0x10476(%rip),%rsi        # 140f0 <_IO_stdin_used+0xf0>
    3c7a:	|                                                      e8 01 f9 ff ff       	callq  3580 <_ZNKSt7__cxx1112basic_stringIcSt11char_traitsIcESaIcEE7compareEPKc@plt>
_ZN6CLBase9ParseArgsEv():
/home/aliha951/forked_gapbs/gapbs/src/command_line.h:75
    if ((filename_ == "") && (scale_ == -1)) {
    3c7f:	|                                                      85 c0                	test   %eax,%eax
    3c81:	|                       /----------------------------- 0f 84 3c 03 00 00    	je     3fc3 <main+0x4e3>
/home/aliha951/forked_gapbs/gapbs/src/command_line.h:79
    if (scale_ != -1)
    3c87:	|                       |                              83 bc 24 70 01 00 00 	cmpl   $0xffffffff,0x170(%rsp)
    3c8e:	ff 
    3c8f:	|                    /--|----------------------------- 0f 85 40 03 00 00    	jne    3fd5 <main+0x4f5>
_ZN11BuilderBaseIi10NodeWeightIiiEiLb1EEC4ERK6CLBase():
/home/aliha951/forked_gapbs/gapbs/src/builder.h:50
  bool needs_weights_;
  bool in_place_ = false;
  int64_t num_nodes_ = -1;

 public:
  explicit BuilderBase(const CLBase &cli) : cli_(cli) {
    3c95:	|                 /--|--|----------------------------> 48 8b 44 24 28       	mov    0x28(%rsp),%rax
/home/aliha951/forked_gapbs/gapbs/src/builder.h:52
    symmetrize_ = cli_.symmetrize();
    needs_weights_ = !std::is_same<NodeID_, DestID_>::value;
    3c9a:	|                 |  |  |                              c6 44 24 49 01       	movb   $0x1,0x49(%rsp)
/home/aliha951/forked_gapbs/gapbs/src/builder.h:50
  explicit BuilderBase(const CLBase &cli) : cli_(cli) {
    3c9f:	|                 |  |  |                              48 c7 44 24 50 ff ff 	movq   $0xffffffffffffffff,0x50(%rsp)
    3ca6:	ff ff 
    3ca8:	|                 |  |  |                              48 89 44 24 40       	mov    %rax,0x40(%rsp)
/home/aliha951/forked_gapbs/gapbs/src/builder.h:51
    symmetrize_ = cli_.symmetrize();
    3cad:	|                 |  |  |                              0f b6 84 24 98 01 00 	movzbl 0x198(%rsp),%eax
    3cb4:	00 
    3cb5:	|                 |  |  |                              88 44 24 48          	mov    %al,0x48(%rsp)
_ZNK6CLBase8in_placeEv():
/home/aliha951/forked_gapbs/gapbs/src/command_line.h:109
  bool in_place() const { return in_place_; }
    3cb9:	|                 |  |  |                              0f b6 84 24 9a 01 00 	movzbl 0x19a(%rsp),%eax
    3cc0:	00 
_ZN11BuilderBaseIi10NodeWeightIiiEiLb1EEC4ERK6CLBase():
/home/aliha951/forked_gapbs/gapbs/src/builder.h:53
    in_place_ = cli_.in_place();
    3cc1:	|                 |  |  |                              88 44 24 4a          	mov    %al,0x4a(%rsp)
/home/aliha951/forked_gapbs/gapbs/src/builder.h:54
    if (in_place_ && needs_weights_) {
    3cc5:	|                 |  |  |                              84 c0                	test   %al,%al
    3cc7:	|  /--------------|--|--|----------------------------- 0f 85 87 09 00 00    	jne    4654 <main+0xb74>
main():
/home/aliha951/forked_gapbs/gapbs/src/sssp.cc:202
  if (!cli.ParseArgs())
    return -1;
  WeightedBuilder b(cli);
  WGraph g = b.MakeGraph();
    3ccd:	|  |              |  |  |                              4c 8d bc 24 80 00 00 	lea    0x80(%rsp),%r15
    3cd4:	00 
    3cd5:	|  |              |  |  |                              48 8d 74 24 40       	lea    0x40(%rsp),%rsi
    3cda:	|  |              |  |  |                              4c 89 ff             	mov    %r15,%rdi
    3cdd:	|  |              |  |  |                              e8 ee d3 00 00       	callq  110d0 <_ZN11BuilderBaseIi10NodeWeightIiiEiLb1EE9MakeGraphEv>
/home/aliha951/forked_gapbs/gapbs/src/sssp.cc:203
  SourcePicker<WGraph> sp(g, cli.start_vertex());
    3ce2:	|  |              |  |  |                              8b 94 24 a0 01 00 00 	mov    0x1a0(%rsp),%edx
    3ce9:	|  |              |  |  |                              48 8d bc 24 b0 01 00 	lea    0x1b0(%rsp),%rdi
    3cf0:	00 
    3cf1:	|  |              |  |  |                              4c 89 fe             	mov    %r15,%rsi
    3cf4:	|  |              |  |  |                              e8 37 4b 00 00       	callq  8830 <_ZN12SourcePickerI8CSRGraphIi10NodeWeightIiiELb1EEEC1ERKS3_i>
/home/aliha951/forked_gapbs/gapbs/src/sssp.cc:207
  auto SSSPBound = [&sp, &cli] (const WGraph &g) {
    return DeltaStep(g, sp.PickNext(), cli.delta(), cli.logging_en());
  };
  SourcePicker<WGraph> vsp(g, cli.start_vertex());
    3cf9:	|  |              |  |  |                              8b 94 24 a0 01 00 00 	mov    0x1a0(%rsp),%edx
    3d00:	|  |              |  |  |                              4c 89 e7             	mov    %r12,%rdi
    3d03:	|  |              |  |  |                              4c 89 fe             	mov    %r15,%rsi
    3d06:	|  |              |  |  |                              e8 25 4b 00 00       	callq  8830 <_ZN12SourcePickerI8CSRGraphIi10NodeWeightIiiELb1EEEC1ERKS3_i>
/home/aliha951/forked_gapbs/gapbs/src/benchmark.h:103
template<typename GraphT_, typename GraphFunc, typename AnalysisFunc,
         typename VerifierFunc>
void BenchmarkKernel(const CLApp &cli, const GraphT_ &g,
                     GraphFunc kernel, AnalysisFunc stats,
                     VerifierFunc verify) {
  g.PrintStats();
    3d0b:	|  |              |  |  |                              4c 89 ff             	mov    %r15,%rdi
BenchmarkKernel<CSRGraph<int, NodeWeight<int, int> >, main(int, char**)::<lambda(const WGraph&)>, void (*)(const CSRGraph<int, NodeWeight<int, int> >&, const pvector<int>&), main(int, char**)::<lambda(const WGraph&, const pvector<int>&)> >():
/home/aliha951/forked_gapbs/gapbs/src/benchmark.h:103
    3d0e:	|  |              |  |  |                              e8 8d 52 00 00       	callq  8fa0 <_ZNK8CSRGraphIi10NodeWeightIiiELb1EE10PrintStatsEv>
_ZNK5CLApp10num_trialsEv():
/home/aliha951/forked_gapbs/gapbs/src/command_line.h:143
  int num_trials() const { return num_trials_; }
    3d13:	|  |              |  |  |                              8b 84 24 9c 01 00 00 	mov    0x19c(%rsp),%eax
BenchmarkKernel<CSRGraph<int, NodeWeight<int, int> >, main(int, char**)::<lambda(const WGraph&)>, void (*)(const CSRGraph<int, NodeWeight<int, int> >&, const pvector<int>&), main(int, char**)::<lambda(const WGraph&, const pvector<int>&)> >():
/home/aliha951/forked_gapbs/gapbs/src/benchmark.h:106
  double total_seconds = 0;
  Timer trial_timer;
  for (int iter=0; iter < cli.num_trials(); iter++) {
    3d1a:	|  |              |  |  |                              85 c0                	test   %eax,%eax
    3d1c:	|  |  /-----------|--|--|----------------------------- 0f 8e d0 05 00 00    	jle    42f2 <main+0x812>
/home/aliha951/forked_gapbs/gapbs/src/benchmark.h:104
  double total_seconds = 0;
    3d22:	|  |  |           |  |  |                              66 0f ef ed          	pxor   %xmm5,%xmm5
    3d26:	|  |  |           |  |  |                              48 8d 44 24 60       	lea    0x60(%rsp),%rax
/home/aliha951/forked_gapbs/gapbs/src/benchmark.h:106
  for (int iter=0; iter < cli.num_trials(); iter++) {
    3d2b:	|  |  |           |  |  |                              c7 04 24 00 00 00 00 	movl   $0x0,(%rsp)
_ZNSt23mersenne_twister_engineImLm64ELm312ELm156ELm31ELm13043109905998158313ELm29ELm6148914691236517205ELm17ELm8202884508482404352ELm37ELm18444473444759240704ELm43ELm6364136223846793005EEclEv():
/usr/include/c++/10/bits/random.tcc:460
      if (_M_p >= state_size)
	_M_gen_rand();

      // Calculate o(x(i)).
      result_type __z = _M_x[_M_p++];
      __z ^= (__z >> __u) & __d;
    3d32:	|  |  |           |  |  |                              48 bb 55 55 55 55 55 	movabs $0x5555555555555555,%rbx
    3d39:	55 55 55 
/usr/include/c++/10/bits/random.tcc:461
      __z ^= (__z << __s) & __b;
    3d3c:	|  |  |           |  |  |                              48 bd 00 00 a6 ed ff 	movabs $0x71d67fffeda60000,%rbp
    3d43:	7f d6 71 
    3d46:	|  |  |           |  |  |                              48 89 44 24 20       	mov    %rax,0x20(%rsp)
/usr/include/c++/10/bits/random.tcc:462
      __z ^= (__z << __t) & __c;
    3d4b:	|  |  |           |  |  |                              49 bc 00 00 00 00 e0 	movabs $0xfff7eee000000000,%r12
    3d52:	ee f7 ff 
BenchmarkKernel<CSRGraph<int, NodeWeight<int, int> >, main(int, char**)::<lambda(const WGraph&)>, void (*)(const CSRGraph<int, NodeWeight<int, int> >&, const pvector<int>&), main(int, char**)::<lambda(const WGraph&, const pvector<int>&)> >():
/home/aliha951/forked_gapbs/gapbs/src/benchmark.h:104
  double total_seconds = 0;
    3d55:	|  |  |           |  |  |                              f2 0f 11 6c 24 10    	movsd  %xmm5,0x10(%rsp)
    3d5b:	|  |  |           |  |  |                       /----- e9 fd 00 00 00       	jmpq   3e5d <main+0x37d>
main():
/home/aliha951/forked_gapbs/gapbs/src/sssp.cc:205
    return DeltaStep(g, sp.PickNext(), cli.delta(), cli.logging_en());
    3d60:	|  |  |           |  |  |        /--------------|----> 44 8b 44 24 08       	mov    0x8(%rsp),%r8d
operator()():
/home/aliha951/forked_gapbs/gapbs/src/sssp.cc:205
    3d65:	|  |  |           |  |  |        |              |      48 8b 7c 24 20       	mov    0x20(%rsp),%rdi
    3d6a:	|  |  |           |  |  |        |              |      44 89 f1             	mov    %r14d,%ecx
    3d6d:	|  |  |           |  |  |        |              |      4c 89 fe             	mov    %r15,%rsi
    3d70:	|  |  |           |  |  |        |              |      e8 bb 22 00 00       	callq  6030 <_Z9DeltaStepRK8CSRGraphIi10NodeWeightIiiELb1EEiib>
_ZN5Timer4StopEv():
/home/aliha951/forked_gapbs/gapbs/src/timer.h:27
  void Start() {
    elapsed_time_ = start_time_ = std::chrono::high_resolution_clock::now();
  }

  void Stop() {
    elapsed_time_ = std::chrono::high_resolution_clock::now();
    3d75:	|  |  |           |  |  |        |              |      e8 96 f7 ff ff       	callq  3510 <_ZNSt6chrono3_V212system_clock3nowEv@plt>
_ZNSt6chrono20__duration_cast_implINS_8durationIdSt5ratioILl1ELl1EEEES2_ILl1ELl1000000000EEdLb1ELb0EE6__castIlS5_EES4_RKNS1_IT_T0_EE():
/usr/include/c++/10/chrono:214
	  static constexpr _ToDur
	  __cast(const duration<_Rep, _Period>& __d)
	  {
	    typedef typename _ToDur::rep			__to_rep;
	    return _ToDur(static_cast<__to_rep>(
	      static_cast<_CR>(__d.count()) / static_cast<_CR>(_CF::den)));
    3d7a:	|  |  |           |  |  |        |              |      66 0f ef c0          	pxor   %xmm0,%xmm0
_ZNSt6chronomiIlSt5ratioILl1ELl1000000000EElS2_EENSt11common_typeIJNS_8durationIT_T0_EENS4_IT1_T2_EEEE4typeERKS7_RKSA_():
/usr/include/c++/10/chrono:614
		const duration<_Rep2, _Period2>& __rhs)
      {
	typedef duration<_Rep1, _Period1>			__dur1;
	typedef duration<_Rep2, _Period2>			__dur2;
	typedef typename common_type<__dur1,__dur2>::type	__cd;
	return __cd(__cd(__lhs).count() - __cd(__rhs).count());
    3d7e:	|  |  |           |  |  |        |              |      48 2b 44 24 18       	sub    0x18(%rsp),%rax
_ZNSt7__cxx1112basic_stringIcSt11char_traitsIcESaIcEE12_Alloc_hiderC4EPcRKS3_():
/usr/include/c++/10/bits/basic_string.h:165
	: allocator_type(__a), _M_p(__dat) { }
    3d83:	|  |  |           |  |  |        |              |      4c 8d b4 24 e0 00 00 	lea    0xe0(%rsp),%r14
    3d8a:	00 
_ZNSt6chrono20__duration_cast_implINS_8durationIdSt5ratioILl1ELl1EEEES2_ILl1ELl1000000000EEdLb1ELb0EE6__castIlS5_EES4_RKNS1_IT_T0_EE():
/usr/include/c++/10/chrono:214
	      static_cast<_CR>(__d.count()) / static_cast<_CR>(_CF::den)));
    3d8b:	|  |  |           |  |  |        |              |      f2 48 0f 2a c0       	cvtsi2sd %rax,%xmm0
BenchmarkKernel<CSRGraph<int, NodeWeight<int, int> >, main(int, char**)::<lambda(const WGraph&)>, void (*)(const CSRGraph<int, NodeWeight<int, int> >&, const pvector<int>&), main(int, char**)::<lambda(const WGraph&, const pvector<int>&)> >():
/home/aliha951/forked_gapbs/gapbs/src/benchmark.h:110
    trial_timer.Start();
    auto result = kernel(g);
    trial_timer.Stop();
    PrintTime("Trial Time", trial_timer.Seconds());
    3d90:	|  |  |           |  |  |        |              |      4c 89 f7             	mov    %r14,%rdi
_ZNSt11char_traitsIcE4copyEPcPKcm():
/usr/include/c++/10/bits/char_traits.h:437
	  return __s1;
#ifdef __cpp_lib_is_constant_evaluated
	if (std::is_constant_evaluated())
	  return __gnu_cxx::char_traits<char_type>::copy(__s1, __s2, __n);
#endif
	return static_cast<char_type*>(__builtin_memcpy(__s1, __s2, __n));
    3d93:	|  |  |           |  |  |        |              |      48 b8 54 72 69 61 6c 	movabs $0x6954206c61697254,%rax
    3d9a:	20 54 69 
_ZNSt6chrono20__duration_cast_implINS_8durationIdSt5ratioILl1ELl1EEEES2_ILl1ELl1000000000EEdLb1ELb0EE6__castIlS5_EES4_RKNS1_IT_T0_EE():
/usr/include/c++/10/chrono:214
    3d9d:	|  |  |           |  |  |        |              |      f2 0f 5e 05 db 0b 01 	divsd  0x10bdb(%rip),%xmm0        # 14980 <_ZZNSt8__detail18__to_chars_10_implIjEEvPcjT_E8__digits+0x260>
    3da4:	00 
_ZNSt11char_traitsIcE4copyEPcPKcm():
/usr/include/c++/10/bits/char_traits.h:437
    3da5:	|  |  |           |  |  |        |              |      48 89 84 24 f0 00 00 	mov    %rax,0xf0(%rsp)
    3dac:	00 
_ZNSt7__cxx1112basic_stringIcSt11char_traitsIcESaIcEE12_Alloc_hiderC4EPcRKS3_():
/usr/include/c++/10/bits/basic_string.h:165
    3dad:	|  |  |           |  |  |        |              |      4c 8d ac 24 f0 00 00 	lea    0xf0(%rsp),%r13
    3db4:	00 
_ZNSt11char_traitsIcE4copyEPcPKcm():
/usr/include/c++/10/bits/char_traits.h:437
    3db5:	|  |  |           |  |  |        |              |      b8 6d 65 00 00       	mov    $0x656d,%eax
_ZNSt7__cxx1112basic_stringIcSt11char_traitsIcESaIcEE12_Alloc_hiderC4EPcRKS3_():
/usr/include/c++/10/bits/basic_string.h:165
    3dba:	|  |  |           |  |  |        |              |      4c 89 ac 24 e0 00 00 	mov    %r13,0xe0(%rsp)
    3dc1:	00 
_ZNSt11char_traitsIcE4copyEPcPKcm():
/usr/include/c++/10/bits/char_traits.h:437
    3dc2:	|  |  |           |  |  |        |              |      66 89 84 24 f8 00 00 	mov    %ax,0xf8(%rsp)
    3dc9:	00 
_ZNSt7__cxx1112basic_stringIcSt11char_traitsIcESaIcEE9_M_lengthEm():
/usr/include/c++/10/bits/basic_string.h:191
      { _M_string_length = __length; }
    3dca:	|  |  |           |  |  |        |              |      48 c7 84 24 e8 00 00 	movq   $0xa,0xe8(%rsp)
    3dd1:	00 0a 00 00 00 
_ZNSt11char_traitsIcE6assignERcRKc():
/usr/include/c++/10/bits/char_traits.h:357
      { __c1 = __c2; }
    3dd6:	|  |  |           |  |  |        |              |      c6 84 24 fa 00 00 00 	movb   $0x0,0xfa(%rsp)
    3ddd:	00 
_ZNSt6chrono20__duration_cast_implINS_8durationIdSt5ratioILl1ELl1EEEES2_ILl1ELl1000000000EEdLb1ELb0EE6__castIlS5_EES4_RKNS1_IT_T0_EE():
/usr/include/c++/10/chrono:214
    3dde:	|  |  |           |  |  |        |              |      f2 0f 11 44 24 08    	movsd  %xmm0,0x8(%rsp)
BenchmarkKernel<CSRGraph<int, NodeWeight<int, int> >, main(int, char**)::<lambda(const WGraph&)>, void (*)(const CSRGraph<int, NodeWeight<int, int> >&, const pvector<int>&), main(int, char**)::<lambda(const WGraph&, const pvector<int>&)> >():
/home/aliha951/forked_gapbs/gapbs/src/benchmark.h:110
    3de4:	|  |  |           |  |  |        |              |      e8 17 1b 00 00       	callq  5900 <_Z9PrintTimeRKNSt7__cxx1112basic_stringIcSt11char_traitsIcESaIcEEEd>
_ZNKSt7__cxx1112basic_stringIcSt11char_traitsIcESaIcEE7_M_dataEv():
/usr/include/c++/10/bits/basic_string.h:195
      { return _M_dataplus._M_p; }
    3de9:	|  |  |           |  |  |        |              |      48 8b bc 24 e0 00 00 	mov    0xe0(%rsp),%rdi
    3df0:	00 
_ZNSt7__cxx1112basic_stringIcSt11char_traitsIcESaIcEE10_M_disposeEv():
/usr/include/c++/10/bits/basic_string.h:239
	if (!_M_is_local())
    3df1:	|  |  |           |  |  |        |              |      4c 39 ef             	cmp    %r13,%rdi
    3df4:	|  |  |           |  |  |        |              |  /-- 74 05                	je     3dfb <main+0x31b>
_ZN9__gnu_cxx13new_allocatorIcE10deallocateEPcm():
/usr/include/c++/10/ext/new_allocator.h:139
    3df6:	|  |  |           |  |  |        |              |  |   e8 f5 f8 ff ff       	callq  36f0 <_ZdlPv@plt>
BenchmarkKernel<CSRGraph<int, NodeWeight<int, int> >, main(int, char**)::<lambda(const WGraph&)>, void (*)(const CSRGraph<int, NodeWeight<int, int> >&, const pvector<int>&), main(int, char**)::<lambda(const WGraph&, const pvector<int>&)> >():
/home/aliha951/forked_gapbs/gapbs/src/benchmark.h:111
    total_seconds += trial_timer.Seconds();
    3dfb:	|  |  |           |  |  |        |              |  \-> f2 0f 10 54 24 10    	movsd  0x10(%rsp),%xmm2
    3e01:	|  |  |           |  |  |        |              |      f2 0f 58 54 24 08    	addsd  0x8(%rsp),%xmm2
/home/aliha951/forked_gapbs/gapbs/src/benchmark.h:112
    if (cli.do_analysis() && (iter == (cli.num_trials()-1)))
    3e07:	|  |  |           |  |  |        |              |      80 bc 24 9b 01 00 00 	cmpb   $0x0,0x19b(%rsp)
    3e0e:	00 
/home/aliha951/forked_gapbs/gapbs/src/benchmark.h:111
    total_seconds += trial_timer.Seconds();
    3e0f:	|  |  |           |  |  |        |              |      f2 0f 11 54 24 10    	movsd  %xmm2,0x10(%rsp)
/home/aliha951/forked_gapbs/gapbs/src/benchmark.h:112
    if (cli.do_analysis() && (iter == (cli.num_trials()-1)))
    3e15:	|  |  |  /--------|--|--|--------|--------------|----- 74 13                	je     3e2a <main+0x34a>
    3e17:	|  |  |  |        |  |  |        |              |      8b 84 24 9c 01 00 00 	mov    0x19c(%rsp),%eax
    3e1e:	|  |  |  |        |  |  |        |              |      83 e8 01             	sub    $0x1,%eax
    3e21:	|  |  |  |        |  |  |        |              |      3b 04 24             	cmp    (%rsp),%eax
    3e24:	|  |  |  |  /-----|--|--|--------|--------------|----- 0f 84 b6 04 00 00    	je     42e0 <main+0x800>
/home/aliha951/forked_gapbs/gapbs/src/benchmark.h:114
      stats(g, result);
    if (cli.do_verify()) {
    3e2a:	|  |  |  >--|-----|--|--|--------|--------------|----> 80 bc 24 a8 01 00 00 	cmpb   $0x0,0x1a8(%rsp)
    3e31:	00 
    3e32:	|  |  |  |  |     |  |  |     /--|--------------|----- 0f 85 d0 01 00 00    	jne    4008 <main+0x528>
_ZN7pvectorIiE16ReleaseResourcesEv():
/home/aliha951/forked_gapbs/gapbs/src/pvector.h:73
    if (start_ != nullptr) {
    3e38:	|  |  |  |  |     |  |  |  /--|--|--------------|----> 48 8b 7c 24 60       	mov    0x60(%rsp),%rdi
    3e3d:	|  |  |  |  |     |  |  |  |  |  |              |      48 85 ff             	test   %rdi,%rdi
    3e40:	|  |  |  |  |     |  |  |  |  |  |              |  /-- 74 05                	je     3e47 <main+0x367>
/home/aliha951/forked_gapbs/gapbs/src/pvector.h:74
      delete[] start_;
    3e42:	|  |  |  |  |     |  |  |  |  |  |              |  |   e8 89 f9 ff ff       	callq  37d0 <_ZdaPv@plt>
BenchmarkKernel<CSRGraph<int, NodeWeight<int, int> >, main(int, char**)::<lambda(const WGraph&)>, void (*)(const CSRGraph<int, NodeWeight<int, int> >&, const pvector<int>&), main(int, char**)::<lambda(const WGraph&, const pvector<int>&)> >():
/home/aliha951/forked_gapbs/gapbs/src/benchmark.h:106
  for (int iter=0; iter < cli.num_trials(); iter++) {
    3e47:	|  |  |  |  |     |  |  |  |  |  |              |  \-> 83 04 24 01          	addl   $0x1,(%rsp)
_ZNK5CLApp10num_trialsEv():
/home/aliha951/forked_gapbs/gapbs/src/command_line.h:143
    3e4b:	|  |  |  |  |     |  |  |  |  |  |              |      8b 84 24 9c 01 00 00 	mov    0x19c(%rsp),%eax
BenchmarkKernel<CSRGraph<int, NodeWeight<int, int> >, main(int, char**)::<lambda(const WGraph&)>, void (*)(const CSRGraph<int, NodeWeight<int, int> >&, const pvector<int>&), main(int, char**)::<lambda(const WGraph&, const pvector<int>&)> >():
/home/aliha951/forked_gapbs/gapbs/src/benchmark.h:106
    3e52:	|  |  |  |  |     |  |  |  |  |  |              |      8b 3c 24             	mov    (%rsp),%edi
    3e55:	|  |  |  |  |     |  |  |  |  |  |              |      39 f8                	cmp    %edi,%eax
    3e57:	|  |  |  |  |  /--|--|--|--|--|--|--------------|----- 0f 8e a7 04 00 00    	jle    4304 <main+0x824>
_ZN5Timer5StartEv():
/home/aliha951/forked_gapbs/gapbs/src/timer.h:23
    elapsed_time_ = start_time_ = std::chrono::high_resolution_clock::now();
    3e5d:	|  |  |  |  |  |  |  |  |  |  |  |              \----> e8 ae f6 ff ff       	callq  3510 <_ZNSt6chrono3_V212system_clock3nowEv@plt>
_ZN12SourcePickerI8CSRGraphIi10NodeWeightIiiELb1EEE8PickNextEv():
/home/aliha951/forked_gapbs/gapbs/src/benchmark.h:54
    if (given_source_ != -1)
    3e62:	|  |  |  |  |  |  |  |  |  |  |  |                     8b 94 24 b0 01 00 00 	mov    0x1b0(%rsp),%edx
_ZNK7CLDeltaIiE5deltaEv():
/home/aliha951/forked_gapbs/gapbs/src/command_line.h:223
      default: CLApp::HandleArg(opt, opt_arg);
    }
  }

  WeightT_ delta() const { return delta_; }
    3e69:	|  |  |  |  |  |  |  |  |  |  |  |                     44 8b b4 24 ac 01 00 	mov    0x1ac(%rsp),%r14d
    3e70:	00 
_ZN5Timer5StartEv():
/home/aliha951/forked_gapbs/gapbs/src/timer.h:23
    3e71:	|  |  |  |  |  |  |  |  |  |  |  |                     48 89 44 24 18       	mov    %rax,0x18(%rsp)
operator()():
/home/aliha951/forked_gapbs/gapbs/src/sssp.cc:205
    3e76:	|  |  |  |  |  |  |  |  |  |  |  |                     0f b6 84 24 a9 01 00 	movzbl 0x1a9(%rsp),%eax
    3e7d:	00 
    3e7e:	|  |  |  |  |  |  |  |  |  |  |  |                     89 44 24 08          	mov    %eax,0x8(%rsp)
_ZN12SourcePickerI8CSRGraphIi10NodeWeightIiiELb1EEE8PickNextEv():
/home/aliha951/forked_gapbs/gapbs/src/benchmark.h:54
    3e82:	|  |  |  |  |  |  |  |  |  |  |  |                     83 fa ff             	cmp    $0xffffffff,%edx
    3e85:	|  |  |  |  |  |  |  |  |  |  |  +-------------------- 0f 85 d5 fe ff ff    	jne    3d60 <main+0x280>
    3e8b:	|  |  |  |  |  |  |  |  |  |  |  |              /----- e9 92 00 00 00       	jmpq   3f22 <main+0x442>
_ZNSt23mersenne_twister_engineImLm64ELm312ELm156ELm31ELm13043109905998158313ELm29ELm6148914691236517205ELm17ELm8202884508482404352ELm37ELm18444473444759240704ELm43ELm6364136223846793005EEclEv():
/usr/include/c++/10/bits/random.tcc:456
	_M_gen_rand();
    3e90:	|  |  |  |  |  |  |  |  |  |  |  |  /-----------|----> 4c 89 ef             	mov    %r13,%rdi
    3e93:	|  |  |  |  |  |  |  |  |  |  |  |  |           |      e8 18 a8 00 00       	callq  e6b0 <_ZNSt23mersenne_twister_engineImLm64ELm312ELm156ELm31ELm13043109905998158313ELm29ELm6148914691236517205ELm17ELm8202884508482404352ELm37ELm18444473444759240704ELm43ELm6364136223846793005EE11_M_gen_randEv>
/usr/include/c++/10/bits/random.tcc:459
      result_type __z = _M_x[_M_p++];
    3e98:	|  |  |  |  |  |  |  |  |  |  |  |  |           |      49 8b 95 c0 09 00 00 	mov    0x9c0(%r13),%rdx
    3e9f:	|  |  |  |  |  |  |  |  |  |  |  |  |        /--|----> 48 8d 4a 01          	lea    0x1(%rdx),%rcx
    3ea3:	|  |  |  |  |  |  |  |  |  |  |  |  |        |  |      49 8b 54 d5 00       	mov    0x0(%r13,%rdx,8),%rdx
    3ea8:	|  |  |  |  |  |  |  |  |  |  |  |  |        |  |      49 89 8d c0 09 00 00 	mov    %rcx,0x9c0(%r13)
/usr/include/c++/10/bits/random.tcc:460
      __z ^= (__z >> __u) & __d;
    3eaf:	|  |  |  |  |  |  |  |  |  |  |  |  |        |  |      48 89 d0             	mov    %rdx,%rax
    3eb2:	|  |  |  |  |  |  |  |  |  |  |  |  |        |  |      48 c1 e8 1d          	shr    $0x1d,%rax
    3eb6:	|  |  |  |  |  |  |  |  |  |  |  |  |        |  |      48 21 d8             	and    %rbx,%rax
    3eb9:	|  |  |  |  |  |  |  |  |  |  |  |  |        |  |      48 31 c2             	xor    %rax,%rdx
/usr/include/c++/10/bits/random.tcc:461
      __z ^= (__z << __s) & __b;
    3ebc:	|  |  |  |  |  |  |  |  |  |  |  |  |        |  |      48 89 d0             	mov    %rdx,%rax
    3ebf:	|  |  |  |  |  |  |  |  |  |  |  |  |        |  |      48 c1 e0 11          	shl    $0x11,%rax
    3ec3:	|  |  |  |  |  |  |  |  |  |  |  |  |        |  |      48 21 e8             	and    %rbp,%rax
    3ec6:	|  |  |  |  |  |  |  |  |  |  |  |  |        |  |      48 31 c2             	xor    %rax,%rdx
/usr/include/c++/10/bits/random.tcc:462
      __z ^= (__z << __t) & __c;
    3ec9:	|  |  |  |  |  |  |  |  |  |  |  |  |        |  |      48 89 d0             	mov    %rdx,%rax
    3ecc:	|  |  |  |  |  |  |  |  |  |  |  |  |        |  |      48 c1 e0 25          	shl    $0x25,%rax
    3ed0:	|  |  |  |  |  |  |  |  |  |  |  |  |        |  |      4c 21 e0             	and    %r12,%rax
    3ed3:	|  |  |  |  |  |  |  |  |  |  |  |  |        |  |      48 31 c2             	xor    %rax,%rdx
/usr/include/c++/10/bits/random.tcc:463
      __z ^= (__z >> __l);
    3ed6:	|  |  |  |  |  |  |  |  |  |  |  |  |        |  |      48 89 d0             	mov    %rdx,%rax
    3ed9:	|  |  |  |  |  |  |  |  |  |  |  |  |        |  |      48 c1 e8 2b          	shr    $0x2b,%rax
    3edd:	|  |  |  |  |  |  |  |  |  |  |  |  |        |  |      48 31 c2             	xor    %rax,%rdx
_ZN7UniDistIiSt23mersenne_twister_engineImLm64ELm312ELm156ELm31ELm13043109905998158313ELm29ELm6148914691236517205ELm17ELm8202884508482404352ELm37ELm18444473444759240704ELm43ELm6364136223846793005EEjEclEv():
/home/aliha951/forked_gapbs/gapbs/src/generator.h:50
      cutoff_ = rng_.max() - remainder_sub_1;
  }

  NodeID_ operator()() {
    uNodeID_ rand_num = rng_();
    if (no_mod_)
    3ee0:	|  |  |  |  |  |  |  |  |  |  |  |  |        |  |      80 bc 24 88 0b 00 00 	cmpb   $0x0,0xb88(%rsp)
    3ee7:	00 
    3ee8:	|  |  |  |  |  |  |  |  |  |  |  |  |        |  |  /-- 75 1a                	jne    3f04 <main+0x424>
/home/aliha951/forked_gapbs/gapbs/src/generator.h:52
      return rand_num;
    if (cutoff_ != 0) {
    3eea:	|  |  |  |  |  |  |  |  |  |  |  |  |        |  |  |   8b 8c 24 90 0b 00 00 	mov    0xb90(%rsp),%ecx
/home/aliha951/forked_gapbs/gapbs/src/generator.h:49
    uNodeID_ rand_num = rng_();
    3ef1:	|  |  |  |  |  |  |  |  |  |  |  |  |        |  |  |   89 d0                	mov    %edx,%eax
/home/aliha951/forked_gapbs/gapbs/src/generator.h:52
    if (cutoff_ != 0) {
    3ef3:	|  |  |  |  |  |  |  |  |  |  |  |  |        |  |  |   85 c9                	test   %ecx,%ecx
    3ef5:	|  |  |  |  |  |  |  |  |  |  |  |  |  /-----|--|--|-- 0f 85 a6 00 00 00    	jne    3fa1 <main+0x4c1>
/home/aliha951/forked_gapbs/gapbs/src/generator.h:56
      while (rand_num >= cutoff_)
        rand_num = rng_();
    }
    return rand_num % mod_;
    3efb:	|  |  |  |  |  |  |  |  |  |  |  |  |  |  /--|--|--|-> 31 d2                	xor    %edx,%edx
    3efd:	|  |  |  |  |  |  |  |  |  |  |  |  |  |  |  |  |  |   f7 b4 24 8c 0b 00 00 	divl   0xb8c(%rsp)
_ZNK8CSRGraphIi10NodeWeightIiiELb1EE10out_degreeEi():
/home/aliha951/forked_gapbs/gapbs/src/graph.h:206
  int64_t num_edges_directed() const {
    return directed_ ? num_edges_ : 2*num_edges_;
  }

  int64_t out_degree(NodeID_ v) const {
    return out_index_[v+1] - out_index_[v];
    3f04:	|  |  |  |  |  |  |  |  |  |  |  |  |  |  |  |  |  \-> 48 8b 84 24 98 0b 00 	mov    0xb98(%rsp),%rax
    3f0b:	00 
    3f0c:	|  |  |  |  |  |  |  |  |  |  |  |  |  |  |  |  |      48 8b 40 18          	mov    0x18(%rax),%rax
    3f10:	|  |  |  |  |  |  |  |  |  |  |  |  |  |  |  |  |      48 63 ca             	movslq %edx,%rcx
_ZN12SourcePickerI8CSRGraphIi10NodeWeightIiiELb1EEE8PickNextEv():
/home/aliha951/forked_gapbs/gapbs/src/benchmark.h:59
    } while (g_.out_degree(source) == 0);
    3f13:	|  |  |  |  |  |  |  |  |  |  |  |  |  |  |  |  |      48 8b 3c c8          	mov    (%rax,%rcx,8),%rdi
    3f17:	|  |  |  |  |  |  |  |  |  |  |  |  |  |  |  |  |      48 39 7c c8 08       	cmp    %rdi,0x8(%rax,%rcx,8)
    3f1c:	|  |  |  |  |  |  |  |  |  |  |  \--|--|--|--|--|----- 0f 85 3e fe ff ff    	jne    3d60 <main+0x280>
_ZN7UniDistIiSt23mersenne_twister_engineImLm64ELm312ELm156ELm31ELm13043109905998158313ELm29ELm6148914691236517205ELm17ELm8202884508482404352ELm37ELm18444473444759240704ELm43ELm6364136223846793005EEjEclEv():
/home/aliha951/forked_gapbs/gapbs/src/generator.h:49
    uNodeID_ rand_num = rng_();
    3f22:	|  |  |  |  |  |  |  |  |  |  |     |  |  |  |  \----> 4c 8b ac 24 80 0b 00 	mov    0xb80(%rsp),%r13
    3f29:	00 
_ZNSt23mersenne_twister_engineImLm64ELm312ELm156ELm31ELm13043109905998158313ELm29ELm6148914691236517205ELm17ELm8202884508482404352ELm37ELm18444473444759240704ELm43ELm6364136223846793005EEclEv():
/usr/include/c++/10/bits/random.tcc:455
      if (_M_p >= state_size)
    3f2a:	|  |  |  |  |  |  |  |  |  |  |     |  |  |  |         49 8b 95 c0 09 00 00 	mov    0x9c0(%r13),%rdx
    3f31:	|  |  |  |  |  |  |  |  |  |  |     |  |  |  |         48 81 fa 37 01 00 00 	cmp    $0x137,%rdx
    3f38:	|  |  |  |  |  |  |  |  |  |  |     |  |  |  \-------- 0f 86 61 ff ff ff    	jbe    3e9f <main+0x3bf>
    3f3e:	|  |  |  |  |  |  |  |  |  |  |     \--|--|----------- e9 4d ff ff ff       	jmpq   3e90 <main+0x3b0>
    3f43:	|  |  |  |  |  |  |  |  |  |  |        |  |            0f 1f 44 00 00       	nopl   0x0(%rax,%rax,1)
/usr/include/c++/10/bits/random.tcc:456
	_M_gen_rand();
    3f48:	|  |  |  |  |  |  |  |  |  |  |        |  |     /----> 4c 89 ef             	mov    %r13,%rdi
    3f4b:	|  |  |  |  |  |  |  |  |  |  |        |  |     |      e8 60 a7 00 00       	callq  e6b0 <_ZNSt23mersenne_twister_engineImLm64ELm312ELm156ELm31ELm13043109905998158313ELm29ELm6148914691236517205ELm17ELm8202884508482404352ELm37ELm18444473444759240704ELm43ELm6364136223846793005EE11_M_gen_randEv>
_ZN7UniDistIiSt23mersenne_twister_engineImLm64ELm312ELm156ELm31ELm13043109905998158313ELm29ELm6148914691236517205ELm17ELm8202884508482404352ELm37ELm18444473444759240704ELm43ELm6364136223846793005EEjEclEv():
/home/aliha951/forked_gapbs/gapbs/src/generator.h:53
      while (rand_num >= cutoff_)
    3f50:	|  |  |  |  |  |  |  |  |  |  |        |  |     |      8b 8c 24 90 0b 00 00 	mov    0xb90(%rsp),%ecx
_ZNSt23mersenne_twister_engineImLm64ELm312ELm156ELm31ELm13043109905998158313ELm29ELm6148914691236517205ELm17ELm8202884508482404352ELm37ELm18444473444759240704ELm43ELm6364136223846793005EEclEv():
/usr/include/c++/10/bits/random.tcc:459
      result_type __z = _M_x[_M_p++];
    3f57:	|  |  |  |  |  |  |  |  |  |  |        |  |     |      49 8b 95 c0 09 00 00 	mov    0x9c0(%r13),%rdx
    3f5e:	|  |  |  |  |  |  |  |  |  |  |        |  |     |  /-> 48 8d 72 01          	lea    0x1(%rdx),%rsi
    3f62:	|  |  |  |  |  |  |  |  |  |  |        |  |     |  |   49 8b 54 d5 00       	mov    0x0(%r13,%rdx,8),%rdx
    3f67:	|  |  |  |  |  |  |  |  |  |  |        |  |     |  |   49 89 b5 c0 09 00 00 	mov    %rsi,0x9c0(%r13)
/usr/include/c++/10/bits/random.tcc:460
      __z ^= (__z >> __u) & __d;
    3f6e:	|  |  |  |  |  |  |  |  |  |  |        |  |     |  |   48 89 d0             	mov    %rdx,%rax
    3f71:	|  |  |  |  |  |  |  |  |  |  |        |  |     |  |   48 c1 e8 1d          	shr    $0x1d,%rax
    3f75:	|  |  |  |  |  |  |  |  |  |  |        |  |     |  |   48 21 d8             	and    %rbx,%rax
    3f78:	|  |  |  |  |  |  |  |  |  |  |        |  |     |  |   48 31 c2             	xor    %rax,%rdx
/usr/include/c++/10/bits/random.tcc:461
      __z ^= (__z << __s) & __b;
    3f7b:	|  |  |  |  |  |  |  |  |  |  |        |  |     |  |   48 89 d0             	mov    %rdx,%rax
    3f7e:	|  |  |  |  |  |  |  |  |  |  |        |  |     |  |   48 c1 e0 11          	shl    $0x11,%rax
    3f82:	|  |  |  |  |  |  |  |  |  |  |        |  |     |  |   48 21 e8             	and    %rbp,%rax
    3f85:	|  |  |  |  |  |  |  |  |  |  |        |  |     |  |   48 31 c2             	xor    %rax,%rdx
/usr/include/c++/10/bits/random.tcc:462
      __z ^= (__z << __t) & __c;
    3f88:	|  |  |  |  |  |  |  |  |  |  |        |  |     |  |   48 89 d0             	mov    %rdx,%rax
    3f8b:	|  |  |  |  |  |  |  |  |  |  |        |  |     |  |   48 c1 e0 25          	shl    $0x25,%rax
    3f8f:	|  |  |  |  |  |  |  |  |  |  |        |  |     |  |   4c 21 e0             	and    %r12,%rax
    3f92:	|  |  |  |  |  |  |  |  |  |  |        |  |     |  |   48 31 c2             	xor    %rax,%rdx
/usr/include/c++/10/bits/random.tcc:463
      __z ^= (__z >> __l);
    3f95:	|  |  |  |  |  |  |  |  |  |  |        |  |     |  |   48 89 d0             	mov    %rdx,%rax
    3f98:	|  |  |  |  |  |  |  |  |  |  |        |  |     |  |   48 c1 e8 2b          	shr    $0x2b,%rax
    3f9c:	|  |  |  |  |  |  |  |  |  |  |        |  |     |  |   48 31 c2             	xor    %rax,%rdx
_ZN7UniDistIiSt23mersenne_twister_engineImLm64ELm312ELm156ELm31ELm13043109905998158313ELm29ELm6148914691236517205ELm17ELm8202884508482404352ELm37ELm18444473444759240704ELm43ELm6364136223846793005EEjEclEv():
/home/aliha951/forked_gapbs/gapbs/src/generator.h:54
        rand_num = rng_();
    3f9f:	|  |  |  |  |  |  |  |  |  |  |        |  |     |  |   89 d0                	mov    %edx,%eax
/home/aliha951/forked_gapbs/gapbs/src/generator.h:53
      while (rand_num >= cutoff_)
    3fa1:	|  |  |  |  |  |  |  |  |  |  |        \--|-----|--|-> 39 ca                	cmp    %ecx,%edx
    3fa3:	|  |  |  |  |  |  |  |  |  |  |           \-----|--|-- 0f 82 52 ff ff ff    	jb     3efb <main+0x41b>
/home/aliha951/forked_gapbs/gapbs/src/generator.h:54
        rand_num = rng_();
    3fa9:	|  |  |  |  |  |  |  |  |  |  |                 |  |   4c 8b ac 24 80 0b 00 	mov    0xb80(%rsp),%r13
    3fb0:	00 
_ZNSt23mersenne_twister_engineImLm64ELm312ELm156ELm31ELm13043109905998158313ELm29ELm6148914691236517205ELm17ELm8202884508482404352ELm37ELm18444473444759240704ELm43ELm6364136223846793005EEclEv():
/usr/include/c++/10/bits/random.tcc:455
      if (_M_p >= state_size)
    3fb1:	|  |  |  |  |  |  |  |  |  |  |                 |  |   49 8b 95 c0 09 00 00 	mov    0x9c0(%r13),%rdx
    3fb8:	|  |  |  |  |  |  |  |  |  |  |                 |  |   48 81 fa 37 01 00 00 	cmp    $0x137,%rdx
    3fbf:	|  |  |  |  |  |  |  |  |  |  |                 |  \-- 76 9d                	jbe    3f5e <main+0x47e>
    3fc1:	|  |  |  |  |  |  |  |  |  |  |                 \----- eb 85                	jmp    3f48 <main+0x468>
_ZN6CLBase9ParseArgsEv():
/home/aliha951/forked_gapbs/gapbs/src/command_line.h:75
    if ((filename_ == "") && (scale_ == -1)) {
    3fc3:	|  |  |  |  |  |  |  |  \--|--|----------------------> 44 8b ac 24 70 01 00 	mov    0x170(%rsp),%r13d
    3fca:	00 
    3fcb:	|  |  |  |  |  |  |  |     |  |                        41 83 fd ff          	cmp    $0xffffffff,%r13d
    3fcf:	|  |  |  |  |  |  |  |     |  |     /----------------- 0f 84 4d 04 00 00    	je     4422 <main+0x942>
/home/aliha951/forked_gapbs/gapbs/src/command_line.h:80
      symmetrize_ = true;
    3fd5:	|  |  |  |  |  |  |  \-----|--|-----|----------------> c6 84 24 98 01 00 00 	movb   $0x1,0x198(%rsp)
    3fdc:	01 
/home/aliha951/forked_gapbs/gapbs/src/command_line.h:77
      return false;
    3fdd:	|  |  |  |  |  |  \--------|--|-----|----------------- e9 b3 fc ff ff       	jmpq   3c95 <main+0x1b5>
_ZN6CLBase9HandleArgEaPc():
/home/aliha951/forked_gapbs/gapbs/src/command_line.h:91
      case 'u': uniform_ = true; scale_ = atoi(opt_arg);    break;
    3fe2:	|  |  |  |  |  |           |  |     |                  c6 84 24 99 01 00 00 	movb   $0x1,0x199(%rsp)
    3fe9:	01 
main():
/usr/include/stdlib.h:363
  return (int) strtol (__nptr, (char **) NULL, 10);
    3fea:	|  |  |  |  |  |           |  |     |                  ba 0a 00 00 00       	mov    $0xa,%edx
atoi():
/usr/include/stdlib.h:363
    3fef:	|  |  |  |  |  |           |  |     |                  31 f6                	xor    %esi,%esi
    3ff1:	|  |  |  |  |  |           |  |     |                  48 89 ef             	mov    %rbp,%rdi
    3ff4:	|  |  |  |  |  |           |  |     |                  e8 17 f8 ff ff       	callq  3810 <strtol@plt>
    3ff9:	|  |  |  |  |  |           |  |     |                  89 84 24 70 01 00 00 	mov    %eax,0x170(%rsp)
_ZN6CLBase9HandleArgEaPc():
/home/aliha951/forked_gapbs/gapbs/src/command_line.h:91
    4000:	+--|--|--|--|--|-----------|--|-----|----------------- e9 8b fb ff ff       	jmpq   3b90 <main+0xb0>
    4005:	|  |  |  |  |  |           |  |     |                  0f 1f 00             	nopl   (%rax)
_ZN5Timer5StartEv():
/home/aliha951/forked_gapbs/gapbs/src/timer.h:23
    4008:	|  |  |  |  |  |           |  \-----|----------------> e8 03 f5 ff ff       	callq  3510 <_ZNSt6chrono3_V212system_clock3nowEv@plt>
_ZN12SourcePickerI8CSRGraphIi10NodeWeightIiiELb1EEE8PickNextEv():
/home/aliha951/forked_gapbs/gapbs/src/benchmark.h:54
    if (given_source_ != -1)
    400d:	|  |  |  |  |  |           |        |                  8b b4 24 a0 0b 00 00 	mov    0xba0(%rsp),%esi
_ZN5Timer5StartEv():
/home/aliha951/forked_gapbs/gapbs/src/timer.h:23
    4014:	|  |  |  |  |  |           |        |                  48 89 44 24 18       	mov    %rax,0x18(%rsp)
_ZN12SourcePickerI8CSRGraphIi10NodeWeightIiiELb1EEE8PickNextEv():
/home/aliha951/forked_gapbs/gapbs/src/benchmark.h:54
    4019:	|  |  |  |  |  |           |        |                  83 fe ff             	cmp    $0xffffffff,%esi
    401c:	|  |  |  |  |  |           |        |     /----------- 0f 84 87 01 00 00    	je     41a9 <main+0x6c9>
main():
/home/aliha951/forked_gapbs/gapbs/src/sssp.cc:209
  auto VerifierBound = [&vsp] (const WGraph &g, const pvector<WeightT> &dist) {
    return SSSPVerifier(g, vsp.PickNext(), dist);
    4022:	|  |  |  |  |  |           |        |     |     /----> 48 8b 54 24 20       	mov    0x20(%rsp),%rdx
operator()():
/home/aliha951/forked_gapbs/gapbs/src/sssp.cc:209
    4027:	|  |  |  |  |  |           |        |     |     |      4c 89 ff             	mov    %r15,%rdi
    402a:	|  |  |  |  |  |           |        |     |     |      e8 21 2d 00 00       	callq  6d50 <_Z12SSSPVerifierRK8CSRGraphIi10NodeWeightIiiELb1EEiRK7pvectorIiE>
BenchmarkKernel<CSRGraph<int, NodeWeight<int, int> >, main(int, char**)::<lambda(const WGraph&)>, void (*)(const CSRGraph<int, NodeWeight<int, int> >&, const pvector<int>&), main(int, char**)::<lambda(const WGraph&, const pvector<int>&)> >():
/home/aliha951/forked_gapbs/gapbs/src/benchmark.h:116
      trial_timer.Start();
      PrintLabel("Verification",
    402f:	|  |  |  |  |  |           |        |     |     |      3c 01                	cmp    $0x1,%al
_ZNSt7__cxx1112basic_stringIcSt11char_traitsIcESaIcEE12_Alloc_hiderC4EPcRKS3_():
/usr/include/c++/10/bits/basic_string.h:165
	: allocator_type(__a), _M_p(__dat) { }
    4031:	|  |  |  |  |  |           |        |     |     |      4c 89 ac 24 e0 00 00 	mov    %r13,0xe0(%rsp)
    4038:	00 
    4039:	|  |  |  |  |  |           |        |     |     |      48 8d bc 24 d0 00 00 	lea    0xd0(%rsp),%rdi
    4040:	00 
    4041:	|  |  |  |  |  |           |        |     |     |      48 8d b4 24 c0 00 00 	lea    0xc0(%rsp),%rsi
    4048:	00 
BenchmarkKernel<CSRGraph<int, NodeWeight<int, int> >, main(int, char**)::<lambda(const WGraph&)>, void (*)(const CSRGraph<int, NodeWeight<int, int> >&, const pvector<int>&), main(int, char**)::<lambda(const WGraph&, const pvector<int>&)> >():
/home/aliha951/forked_gapbs/gapbs/src/benchmark.h:116
    4049:	|  |  |  |  |  |           |        |     |     |      19 c0                	sbb    %eax,%eax
_ZNSt11char_traitsIcE4copyEPcPKcm():
/usr/include/c++/10/bits/char_traits.h:437
	return static_cast<char_type*>(__builtin_memcpy(__s1, __s2, __n));
    404b:	|  |  |  |  |  |           |        |     |     |      41 c7 45 08 74 69 6f 	movl   $0x6e6f6974,0x8(%r13)
    4052:	6e 
BenchmarkKernel<CSRGraph<int, NodeWeight<int, int> >, main(int, char**)::<lambda(const WGraph&)>, void (*)(const CSRGraph<int, NodeWeight<int, int> >&, const pvector<int>&), main(int, char**)::<lambda(const WGraph&, const pvector<int>&)> >():
/home/aliha951/forked_gapbs/gapbs/src/benchmark.h:116
    4053:	|  |  |  |  |  |           |        |     |     |      25 f6 ff f5 f8       	and    $0xf8f5fff6,%eax
_ZNSt7__cxx1112basic_stringIcSt11char_traitsIcESaIcEE12_Alloc_hiderC4EPcRKS3_():
/usr/include/c++/10/bits/basic_string.h:165
    4058:	|  |  |  |  |  |           |        |     |     |      48 89 7c 24 08       	mov    %rdi,0x8(%rsp)
BenchmarkKernel<CSRGraph<int, NodeWeight<int, int> >, main(int, char**)::<lambda(const WGraph&)>, void (*)(const CSRGraph<int, NodeWeight<int, int> >&, const pvector<int>&), main(int, char**)::<lambda(const WGraph&, const pvector<int>&)> >():
/home/aliha951/forked_gapbs/gapbs/src/benchmark.h:116
    405d:	|  |  |  |  |  |           |        |     |     |      05 50 41 53 53       	add    $0x53534150,%eax
_ZNSt7__cxx1112basic_stringIcSt11char_traitsIcESaIcEE12_Alloc_hiderC4EPcRKS3_():
/usr/include/c++/10/bits/basic_string.h:165
    4062:	|  |  |  |  |  |           |        |     |     |      48 89 bc 24 c0 00 00 	mov    %rdi,0xc0(%rsp)
    4069:	00 
BenchmarkKernel<CSRGraph<int, NodeWeight<int, int> >, main(int, char**)::<lambda(const WGraph&)>, void (*)(const CSRGraph<int, NodeWeight<int, int> >&, const pvector<int>&), main(int, char**)::<lambda(const WGraph&, const pvector<int>&)> >():
/home/aliha951/forked_gapbs/gapbs/src/benchmark.h:116
    406a:	|  |  |  |  |  |           |        |     |     |      4c 89 f7             	mov    %r14,%rdi
_ZNSt11char_traitsIcE4copyEPcPKcm():
/usr/include/c++/10/bits/char_traits.h:437
    406d:	|  |  |  |  |  |           |        |     |     |      89 84 24 d0 00 00 00 	mov    %eax,0xd0(%rsp)
    4074:	|  |  |  |  |  |           |        |     |     |      48 b8 56 65 72 69 66 	movabs $0x6163696669726556,%rax
    407b:	69 63 61 
    407e:	|  |  |  |  |  |           |        |     |     |      49 89 45 00          	mov    %rax,0x0(%r13)
_ZNSt7__cxx1112basic_stringIcSt11char_traitsIcESaIcEE9_M_lengthEm():
/usr/include/c++/10/bits/basic_string.h:191
      { _M_string_length = __length; }
    4082:	|  |  |  |  |  |           |        |     |     |      48 c7 84 24 c8 00 00 	movq   $0x4,0xc8(%rsp)
    4089:	00 04 00 00 00 
_ZNSt11char_traitsIcE6assignERcRKc():
/usr/include/c++/10/bits/char_traits.h:357
      { __c1 = __c2; }
    408e:	|  |  |  |  |  |           |        |     |     |      c6 84 24 d4 00 00 00 	movb   $0x0,0xd4(%rsp)
    4095:	00 
_ZNSt7__cxx1112basic_stringIcSt11char_traitsIcESaIcEE9_M_lengthEm():
/usr/include/c++/10/bits/basic_string.h:191
    4096:	|  |  |  |  |  |           |        |     |     |      48 c7 84 24 e8 00 00 	movq   $0xc,0xe8(%rsp)
    409d:	00 0c 00 00 00 
_ZNSt11char_traitsIcE6assignERcRKc():
/usr/include/c++/10/bits/char_traits.h:357
    40a2:	|  |  |  |  |  |           |        |     |     |      c6 84 24 fc 00 00 00 	movb   $0x0,0xfc(%rsp)
    40a9:	00 
BenchmarkKernel<CSRGraph<int, NodeWeight<int, int> >, main(int, char**)::<lambda(const WGraph&)>, void (*)(const CSRGraph<int, NodeWeight<int, int> >&, const pvector<int>&), main(int, char**)::<lambda(const WGraph&, const pvector<int>&)> >():
/home/aliha951/forked_gapbs/gapbs/src/benchmark.h:116
    40aa:	|  |  |  |  |  |           |        |     |     |      e8 e1 16 00 00       	callq  5790 <_Z10PrintLabelRKNSt7__cxx1112basic_stringIcSt11char_traitsIcESaIcEEES6_>
_ZNKSt7__cxx1112basic_stringIcSt11char_traitsIcESaIcEE7_M_dataEv():
/usr/include/c++/10/bits/basic_string.h:195
      { return _M_dataplus._M_p; }
    40af:	|  |  |  |  |  |           |        |     |     |      48 8b bc 24 e0 00 00 	mov    0xe0(%rsp),%rdi
    40b6:	00 
_ZNSt7__cxx1112basic_stringIcSt11char_traitsIcESaIcEE10_M_disposeEv():
/usr/include/c++/10/bits/basic_string.h:239
	if (!_M_is_local())
    40b7:	|  |  |  |  |  |           |        |     |     |      4c 39 ef             	cmp    %r13,%rdi
    40ba:	|  |  |  |  |  |           |        |     |     |  /-- 74 05                	je     40c1 <main+0x5e1>
_ZN9__gnu_cxx13new_allocatorIcE10deallocateEPcm():
/usr/include/c++/10/ext/new_allocator.h:139
    40bc:	|  |  |  |  |  |           |        |     |     |  |   e8 2f f6 ff ff       	callq  36f0 <_ZdlPv@plt>
_ZNKSt7__cxx1112basic_stringIcSt11char_traitsIcESaIcEE7_M_dataEv():
/usr/include/c++/10/bits/basic_string.h:195
      { return _M_dataplus._M_p; }
    40c1:	|  |  |  |  |  |           |        |     |     |  \-> 48 8b bc 24 c0 00 00 	mov    0xc0(%rsp),%rdi
    40c8:	00 
_ZNSt7__cxx1112basic_stringIcSt11char_traitsIcESaIcEE10_M_disposeEv():
/usr/include/c++/10/bits/basic_string.h:239
	if (!_M_is_local())
    40c9:	|  |  |  |  |  |           |        |     |     |      48 3b 7c 24 08       	cmp    0x8(%rsp),%rdi
    40ce:	|  |  |  |  |  |           |        |     |     |  /-- 74 05                	je     40d5 <main+0x5f5>
_ZN9__gnu_cxx13new_allocatorIcE10deallocateEPcm():
/usr/include/c++/10/ext/new_allocator.h:139
    40d0:	|  |  |  |  |  |           |        |     |     |  |   e8 1b f6 ff ff       	callq  36f0 <_ZdlPv@plt>
_ZN5Timer4StopEv():
/home/aliha951/forked_gapbs/gapbs/src/timer.h:27
    elapsed_time_ = std::chrono::high_resolution_clock::now();
    40d5:	|  |  |  |  |  |           |        |     |     |  \-> e8 36 f4 ff ff       	callq  3510 <_ZNSt6chrono3_V212system_clock3nowEv@plt>
_ZNSt6chrono20__duration_cast_implINS_8durationIdSt5ratioILl1ELl1EEEES2_ILl1ELl1000000000EEdLb1ELb0EE6__castIlS5_EES4_RKNS1_IT_T0_EE():
/usr/include/c++/10/chrono:214
    40da:	|  |  |  |  |  |           |        |     |     |      66 0f ef c0          	pxor   %xmm0,%xmm0
_ZNSt6chronomiIlSt5ratioILl1ELl1000000000EElS2_EENSt11common_typeIJNS_8durationIT_T0_EENS4_IT1_T2_EEEE4typeERKS7_RKSA_():
/usr/include/c++/10/chrono:614
	return __cd(__cd(__lhs).count() - __cd(__rhs).count());
    40de:	|  |  |  |  |  |           |        |     |     |      48 2b 44 24 18       	sub    0x18(%rsp),%rax
_ZNSt7__cxx1112basic_stringIcSt11char_traitsIcESaIcEE12_M_constructIPKcEEvT_S8_St20forward_iterator_tag():
/usr/include/c++/10/bits/basic_string.tcc:219
    40e3:	|  |  |  |  |  |           |        |     |     |      31 d2                	xor    %edx,%edx
    40e5:	|  |  |  |  |  |           |        |     |     |      48 8d 74 24 38       	lea    0x38(%rsp),%rsi
    40ea:	|  |  |  |  |  |           |        |     |     |      4c 89 f7             	mov    %r14,%rdi
_ZNSt7__cxx1112basic_stringIcSt11char_traitsIcESaIcEE12_Alloc_hiderC4EPcRKS3_():
/usr/include/c++/10/bits/basic_string.h:165
	: allocator_type(__a), _M_p(__dat) { }
    40ed:	|  |  |  |  |  |           |        |     |     |      4c 89 ac 24 e0 00 00 	mov    %r13,0xe0(%rsp)
    40f4:	00 
_ZNSt7__cxx1112basic_stringIcSt11char_traitsIcESaIcEE12_M_constructIPKcEEvT_S8_St20forward_iterator_tag():
/usr/include/c++/10/bits/basic_string.tcc:215
	size_type __dnew = static_cast<size_type>(std::distance(__beg, __end));
    40f5:	|  |  |  |  |  |           |        |     |     |      48 c7 44 24 38 11 00 	movq   $0x11,0x38(%rsp)
    40fc:	00 00 
_ZNSt6chrono20__duration_cast_implINS_8durationIdSt5ratioILl1ELl1EEEES2_ILl1ELl1000000000EEdLb1ELb0EE6__castIlS5_EES4_RKNS1_IT_T0_EE():
/usr/include/c++/10/chrono:214
	      static_cast<_CR>(__d.count()) / static_cast<_CR>(_CF::den)));
    40fe:	|  |  |  |  |  |           |        |     |     |      f2 48 0f 2a c0       	cvtsi2sd %rax,%xmm0
    4103:	|  |  |  |  |  |           |        |     |     |      f2 0f 5e 05 75 08 01 	divsd  0x10875(%rip),%xmm0        # 14980 <_ZZNSt8__detail18__to_chars_10_implIjEEvPcjT_E8__digits+0x260>
    410a:	00 
    410b:	|  |  |  |  |  |           |        |     |     |      f2 0f 11 44 24 08    	movsd  %xmm0,0x8(%rsp)
_ZNSt7__cxx1112basic_stringIcSt11char_traitsIcESaIcEE12_M_constructIPKcEEvT_S8_St20forward_iterator_tag():
/usr/include/c++/10/bits/basic_string.tcc:219
	    _M_data(_M_create(__dnew, size_type(0)));
    4111:	|  |  |  |  |  |           |        |     |     |      e8 ea f7 ff ff       	callq  3900 <_ZNSt7__cxx1112basic_stringIcSt11char_traitsIcESaIcEE9_M_createERmm@plt>
_ZNSt7__cxx1112basic_stringIcSt11char_traitsIcESaIcEE11_M_capacityEm():
/usr/include/c++/10/bits/basic_string.h:219
      { _M_allocated_capacity = __capacity; }
    4116:	|  |  |  |  |  |           |        |     |     |      48 8b 54 24 38       	mov    0x38(%rsp),%rdx
_ZNSt11char_traitsIcE4copyEPcPKcm():
/usr/include/c++/10/bits/char_traits.h:437
	return static_cast<char_type*>(__builtin_memcpy(__s1, __s2, __n));
    411b:	|  |  |  |  |  |           |        |     |     |      66 0f 6f 05 3d 08 01 	movdqa 0x1083d(%rip),%xmm0        # 14960 <_ZZNSt8__detail18__to_chars_10_implIjEEvPcjT_E8__digits+0x240>
    4122:	00 
_ZNSt7__cxx1112basic_stringIcSt11char_traitsIcESaIcEE7_M_dataEPc():
/usr/include/c++/10/bits/basic_string.h:187
      { _M_dataplus._M_p = __p; }
    4123:	|  |  |  |  |  |           |        |     |     |      48 89 84 24 e0 00 00 	mov    %rax,0xe0(%rsp)
    412a:	00 
BenchmarkKernel<CSRGraph<int, NodeWeight<int, int> >, main(int, char**)::<lambda(const WGraph&)>, void (*)(const CSRGraph<int, NodeWeight<int, int> >&, const pvector<int>&), main(int, char**)::<lambda(const WGraph&, const pvector<int>&)> >():
/home/aliha951/forked_gapbs/gapbs/src/benchmark.h:119
                 verify(std::ref(g), std::ref(result)) ? "PASS" : "FAIL");
      trial_timer.Stop();
      PrintTime("Verification Time", trial_timer.Seconds());
    412b:	|  |  |  |  |  |           |        |     |     |      4c 89 f7             	mov    %r14,%rdi
_ZNSt7__cxx1112basic_stringIcSt11char_traitsIcESaIcEE11_M_capacityEm():
/usr/include/c++/10/bits/basic_string.h:219
      { _M_allocated_capacity = __capacity; }
    412e:	|  |  |  |  |  |           |        |     |     |      48 89 94 24 f0 00 00 	mov    %rdx,0xf0(%rsp)
    4135:	00 
_ZNSt11char_traitsIcE4copyEPcPKcm():
/usr/include/c++/10/bits/char_traits.h:437
    4136:	|  |  |  |  |  |           |        |     |     |      0f 11 00             	movups %xmm0,(%rax)
BenchmarkKernel<CSRGraph<int, NodeWeight<int, int> >, main(int, char**)::<lambda(const WGraph&)>, void (*)(const CSRGraph<int, NodeWeight<int, int> >&, const pvector<int>&), main(int, char**)::<lambda(const WGraph&, const pvector<int>&)> >():
/home/aliha951/forked_gapbs/gapbs/src/benchmark.h:119
    4139:	|  |  |  |  |  |           |        |     |     |      f2 0f 10 44 24 08    	movsd  0x8(%rsp),%xmm0
_ZNSt11char_traitsIcE4copyEPcPKcm():
/usr/include/c++/10/bits/char_traits.h:437
    413f:	|  |  |  |  |  |           |        |     |     |      c6 40 10 65          	movb   $0x65,0x10(%rax)
_ZNSt7__cxx1112basic_stringIcSt11char_traitsIcESaIcEE12_M_constructIPKcEEvT_S8_St20forward_iterator_tag():
/usr/include/c++/10/bits/basic_string.tcc:232
	  {
	    _M_dispose();
	    __throw_exception_again;
	  }

	_M_set_length(__dnew);
    4143:	|  |  |  |  |  |           |        |     |     |      48 8b 44 24 38       	mov    0x38(%rsp),%rax
_ZNSt11char_traitsIcE6assignERcRKc():
/usr/include/c++/10/bits/char_traits.h:357
      { __c1 = __c2; }
    4148:	|  |  |  |  |  |           |        |     |     |      48 8b 94 24 e0 00 00 	mov    0xe0(%rsp),%rdx
    414f:	00 
_ZNSt7__cxx1112basic_stringIcSt11char_traitsIcESaIcEE9_M_lengthEm():
/usr/include/c++/10/bits/basic_string.h:191
      { _M_string_length = __length; }
    4150:	|  |  |  |  |  |           |        |     |     |      48 89 84 24 e8 00 00 	mov    %rax,0xe8(%rsp)
    4157:	00 
_ZNSt11char_traitsIcE6assignERcRKc():
/usr/include/c++/10/bits/char_traits.h:357
    4158:	|  |  |  |  |  |           |        |     |     |      c6 04 02 00          	movb   $0x0,(%rdx,%rax,1)
BenchmarkKernel<CSRGraph<int, NodeWeight<int, int> >, main(int, char**)::<lambda(const WGraph&)>, void (*)(const CSRGraph<int, NodeWeight<int, int> >&, const pvector<int>&), main(int, char**)::<lambda(const WGraph&, const pvector<int>&)> >():
/home/aliha951/forked_gapbs/gapbs/src/benchmark.h:119
    415c:	|  |  |  |  |  |           |        |     |     |      e8 9f 17 00 00       	callq  5900 <_Z9PrintTimeRKNSt7__cxx1112basic_stringIcSt11char_traitsIcESaIcEEEd>
_ZNKSt7__cxx1112basic_stringIcSt11char_traitsIcESaIcEE7_M_dataEv():
/usr/include/c++/10/bits/basic_string.h:195
      { return _M_dataplus._M_p; }
    4161:	|  |  |  |  |  |           |        |     |     |      48 8b bc 24 e0 00 00 	mov    0xe0(%rsp),%rdi
    4168:	00 
_ZNSt7__cxx1112basic_stringIcSt11char_traitsIcESaIcEE10_M_disposeEv():
/usr/include/c++/10/bits/basic_string.h:239
	if (!_M_is_local())
    4169:	|  |  |  |  |  |           |        |     |     |      4c 39 ef             	cmp    %r13,%rdi
    416c:	|  |  |  |  |  |           +--------|-----|-----|----- 0f 84 c6 fc ff ff    	je     3e38 <main+0x358>
_ZN9__gnu_cxx13new_allocatorIcE10deallocateEPcm():
/usr/include/c++/10/ext/new_allocator.h:139
    4172:	|  |  |  |  |  |           |        |     |     |      e8 79 f5 ff ff       	callq  36f0 <_ZdlPv@plt>
_ZNSt7__cxx1112basic_stringIcSt11char_traitsIcESaIcEE10_M_destroyEm():
/usr/include/c++/10/bits/basic_string.h:245
      { _Alloc_traits::deallocate(_M_get_allocator(), _M_data(), __size + 1); }
    4177:	|  |  |  |  |  |           \--------|-----|-----|----- e9 bc fc ff ff       	jmpq   3e38 <main+0x358>
    417c:	|  |  |  |  |  |                    |     |     |      0f 1f 40 00          	nopl   0x0(%rax)
_ZN7UniDistIiSt23mersenne_twister_engineImLm64ELm312ELm156ELm31ELm13043109905998158313ELm29ELm6148914691236517205ELm17ELm8202884508482404352ELm37ELm18444473444759240704ELm43ELm6364136223846793005EEjEclEv():
/home/aliha951/forked_gapbs/gapbs/src/generator.h:56
    return rand_num % mod_;
    4180:	|  |  |  |  |  |                    |     |  /--|----> 31 d2                	xor    %edx,%edx
    4182:	|  |  |  |  |  |                    |     |  |  |      f7 b4 24 7c 15 00 00 	divl   0x157c(%rsp)
    4189:	|  |  |  |  |  |                    |     |  |  |      89 d6                	mov    %edx,%esi
_ZNK8CSRGraphIi10NodeWeightIiiELb1EE10out_degreeEi():
/home/aliha951/forked_gapbs/gapbs/src/graph.h:206
    418b:	|  |  |  |  |  |                    |     |  |  |  /-> 48 8b 84 24 88 15 00 	mov    0x1588(%rsp),%rax
    4192:	00 
    4193:	|  |  |  |  |  |                    |     |  |  |  |   48 63 d6             	movslq %esi,%rdx
    4196:	|  |  |  |  |  |                    |     |  |  |  |   48 8b 40 18          	mov    0x18(%rax),%rax
_ZN12SourcePickerI8CSRGraphIi10NodeWeightIiiELb1EEE8PickNextEv():
/home/aliha951/forked_gapbs/gapbs/src/benchmark.h:59
    } while (g_.out_degree(source) == 0);
    419a:	|  |  |  |  |  |                    |     |  |  |  |   48 8b 3c d0          	mov    (%rax,%rdx,8),%rdi
    419e:	|  |  |  |  |  |                    |     |  |  |  |   48 39 7c d0 08       	cmp    %rdi,0x8(%rax,%rdx,8)
    41a3:	|  |  |  |  |  |                    |     |  |  \--|-- 0f 85 79 fe ff ff    	jne    4022 <main+0x542>
_ZN7UniDistIiSt23mersenne_twister_engineImLm64ELm312ELm156ELm31ELm13043109905998158313ELm29ELm6148914691236517205ELm17ELm8202884508482404352ELm37ELm18444473444759240704ELm43ELm6364136223846793005EEjEclEv():
/home/aliha951/forked_gapbs/gapbs/src/generator.h:49
    uNodeID_ rand_num = rng_();
    41a9:	|  |  |  |  |  |                    |     \--|-----|-> 48 8b 84 24 70 15 00 	mov    0x1570(%rsp),%rax
    41b0:	00 
_ZNSt23mersenne_twister_engineImLm64ELm312ELm156ELm31ELm13043109905998158313ELm29ELm6148914691236517205ELm17ELm8202884508482404352ELm37ELm18444473444759240704ELm43ELm6364136223846793005EEclEv():
/usr/include/c++/10/bits/random.tcc:455
    41b1:	|  |  |  |  |  |                    |        |     |   48 8b 90 c0 09 00 00 	mov    0x9c0(%rax),%rdx
    41b8:	|  |  |  |  |  |                    |        |     |   48 81 fa 37 01 00 00 	cmp    $0x137,%rdx
    41bf:	|  |  |  |  |  |                    |     /--|-----|-- 0f 87 fb 00 00 00    	ja     42c0 <main+0x7e0>
/usr/include/c++/10/bits/random.tcc:459
      result_type __z = _M_x[_M_p++];
    41c5:	|  |  |  |  |  |                    |  /--|--|-----|-> 48 8d 4a 01          	lea    0x1(%rdx),%rcx
    41c9:	|  |  |  |  |  |                    |  |  |  |     |   48 89 88 c0 09 00 00 	mov    %rcx,0x9c0(%rax)
    41d0:	|  |  |  |  |  |                    |  |  |  |     |   48 8b 04 d0          	mov    (%rax,%rdx,8),%rax
/usr/include/c++/10/bits/random.tcc:460
      __z ^= (__z >> __u) & __d;
    41d4:	|  |  |  |  |  |                    |  |  |  |     |   48 89 c2             	mov    %rax,%rdx
    41d7:	|  |  |  |  |  |                    |  |  |  |     |   48 c1 ea 1d          	shr    $0x1d,%rdx
    41db:	|  |  |  |  |  |                    |  |  |  |     |   48 21 da             	and    %rbx,%rdx
    41de:	|  |  |  |  |  |                    |  |  |  |     |   48 31 d0             	xor    %rdx,%rax
/usr/include/c++/10/bits/random.tcc:461
      __z ^= (__z << __s) & __b;
    41e1:	|  |  |  |  |  |                    |  |  |  |     |   48 89 c2             	mov    %rax,%rdx
    41e4:	|  |  |  |  |  |                    |  |  |  |     |   48 c1 e2 11          	shl    $0x11,%rdx
    41e8:	|  |  |  |  |  |                    |  |  |  |     |   48 21 ea             	and    %rbp,%rdx
    41eb:	|  |  |  |  |  |                    |  |  |  |     |   48 31 d0             	xor    %rdx,%rax
/usr/include/c++/10/bits/random.tcc:462
      __z ^= (__z << __t) & __c;
    41ee:	|  |  |  |  |  |                    |  |  |  |     |   48 89 c2             	mov    %rax,%rdx
    41f1:	|  |  |  |  |  |                    |  |  |  |     |   48 c1 e2 25          	shl    $0x25,%rdx
    41f5:	|  |  |  |  |  |                    |  |  |  |     |   4c 21 e2             	and    %r12,%rdx
    41f8:	|  |  |  |  |  |                    |  |  |  |     |   48 31 d0             	xor    %rdx,%rax
/usr/include/c++/10/bits/random.tcc:463
      __z ^= (__z >> __l);
    41fb:	|  |  |  |  |  |                    |  |  |  |     |   48 89 c6             	mov    %rax,%rsi
    41fe:	|  |  |  |  |  |                    |  |  |  |     |   48 c1 ee 2b          	shr    $0x2b,%rsi
    4202:	|  |  |  |  |  |                    |  |  |  |     |   48 31 c6             	xor    %rax,%rsi
_ZN7UniDistIiSt23mersenne_twister_engineImLm64ELm312ELm156ELm31ELm13043109905998158313ELm29ELm6148914691236517205ELm17ELm8202884508482404352ELm37ELm18444473444759240704ELm43ELm6364136223846793005EEjEclEv():
/home/aliha951/forked_gapbs/gapbs/src/generator.h:50
    if (no_mod_)
    4205:	|  |  |  |  |  |                    |  |  |  |     |   80 bc 24 78 15 00 00 	cmpb   $0x0,0x1578(%rsp)
    420c:	00 
    420d:	|  |  |  |  |  |                    |  |  |  |     \-- 0f 85 78 ff ff ff    	jne    418b <main+0x6ab>
/home/aliha951/forked_gapbs/gapbs/src/generator.h:52
    if (cutoff_ != 0) {
    4213:	|  |  |  |  |  |                    |  |  |  |         8b 8c 24 80 15 00 00 	mov    0x1580(%rsp),%ecx
/home/aliha951/forked_gapbs/gapbs/src/generator.h:49
    uNodeID_ rand_num = rng_();
    421a:	|  |  |  |  |  |                    |  |  |  |         89 f0                	mov    %esi,%eax
/home/aliha951/forked_gapbs/gapbs/src/generator.h:52
    if (cutoff_ != 0) {
    421c:	|  |  |  |  |  |                    |  |  |  |         85 c9                	test   %ecx,%ecx
    421e:	|  |  |  |  |  |                    |  |  |  +-------- 0f 84 5c ff ff ff    	je     4180 <main+0x6a0>
/home/aliha951/forked_gapbs/gapbs/src/generator.h:53
      while (rand_num >= cutoff_)
    4224:	|  |  |  |  |  |                    |  |  |  |         39 ce                	cmp    %ecx,%esi
    4226:	|  |  |  |  |  |                    |  |  |  |     /-- 73 52                	jae    427a <main+0x79a>
    4228:	|  |  |  |  |  |                    |  |  |  +-----|-- e9 53 ff ff ff       	jmpq   4180 <main+0x6a0>
    422d:	|  |  |  |  |  |                    |  |  |  |     |   0f 1f 00             	nopl   (%rax)
_ZNSt23mersenne_twister_engineImLm64ELm312ELm156ELm31ELm13043109905998158313ELm29ELm6148914691236517205ELm17ELm8202884508482404352ELm37ELm18444473444759240704ELm43ELm6364136223846793005EEclEv():
/usr/include/c++/10/bits/random.tcc:459
      result_type __z = _M_x[_M_p++];
    4230:	|  |  |  |  |  |                    |  |  |  |  /--|-> 48 8d 72 01          	lea    0x1(%rdx),%rsi
    4234:	|  |  |  |  |  |                    |  |  |  |  |  |   48 8b 14 d0          	mov    (%rax,%rdx,8),%rdx
    4238:	|  |  |  |  |  |                    |  |  |  |  |  |   48 89 b0 c0 09 00 00 	mov    %rsi,0x9c0(%rax)
/usr/include/c++/10/bits/random.tcc:460
      __z ^= (__z >> __u) & __d;
    423f:	|  |  |  |  |  |                    |  |  |  |  |  |   48 89 d0             	mov    %rdx,%rax
    4242:	|  |  |  |  |  |                    |  |  |  |  |  |   48 c1 e8 1d          	shr    $0x1d,%rax
    4246:	|  |  |  |  |  |                    |  |  |  |  |  |   48 21 d8             	and    %rbx,%rax
    4249:	|  |  |  |  |  |                    |  |  |  |  |  |   48 31 c2             	xor    %rax,%rdx
/usr/include/c++/10/bits/random.tcc:461
      __z ^= (__z << __s) & __b;
    424c:	|  |  |  |  |  |                    |  |  |  |  |  |   48 89 d0             	mov    %rdx,%rax
    424f:	|  |  |  |  |  |                    |  |  |  |  |  |   48 c1 e0 11          	shl    $0x11,%rax
    4253:	|  |  |  |  |  |                    |  |  |  |  |  |   48 21 e8             	and    %rbp,%rax
    4256:	|  |  |  |  |  |                    |  |  |  |  |  |   48 31 c2             	xor    %rax,%rdx
/usr/include/c++/10/bits/random.tcc:462
      __z ^= (__z << __t) & __c;
    4259:	|  |  |  |  |  |                    |  |  |  |  |  |   48 89 d0             	mov    %rdx,%rax
    425c:	|  |  |  |  |  |                    |  |  |  |  |  |   48 c1 e0 25          	shl    $0x25,%rax
    4260:	|  |  |  |  |  |                    |  |  |  |  |  |   4c 21 e0             	and    %r12,%rax
    4263:	|  |  |  |  |  |                    |  |  |  |  |  |   48 31 c2             	xor    %rax,%rdx
/usr/include/c++/10/bits/random.tcc:463
      __z ^= (__z >> __l);
    4266:	|  |  |  |  |  |                    |  |  |  |  |  |   48 89 d0             	mov    %rdx,%rax
    4269:	|  |  |  |  |  |                    |  |  |  |  |  |   48 c1 e8 2b          	shr    $0x2b,%rax
    426d:	|  |  |  |  |  |                    |  |  |  |  |  |   48 31 c2             	xor    %rax,%rdx
_ZN7UniDistIiSt23mersenne_twister_engineImLm64ELm312ELm156ELm31ELm13043109905998158313ELm29ELm6148914691236517205ELm17ELm8202884508482404352ELm37ELm18444473444759240704ELm43ELm6364136223846793005EEjEclEv():
/home/aliha951/forked_gapbs/gapbs/src/generator.h:54
        rand_num = rng_();
    4270:	|  |  |  |  |  |                    |  |  |  |  |  |   89 d0                	mov    %edx,%eax
/home/aliha951/forked_gapbs/gapbs/src/generator.h:53
      while (rand_num >= cutoff_)
    4272:	|  |  |  |  |  |                    |  |  |  |  |  |   39 ca                	cmp    %ecx,%edx
    4274:	|  |  |  |  |  |                    |  |  |  \--|--|-- 0f 82 06 ff ff ff    	jb     4180 <main+0x6a0>
/home/aliha951/forked_gapbs/gapbs/src/generator.h:54
        rand_num = rng_();
    427a:	|  |  |  |  |  |                    |  |  |     |  \-> 48 8b 84 24 70 15 00 	mov    0x1570(%rsp),%rax
    4281:	00 
_ZNSt23mersenne_twister_engineImLm64ELm312ELm156ELm31ELm13043109905998158313ELm29ELm6148914691236517205ELm17ELm8202884508482404352ELm37ELm18444473444759240704ELm43ELm6364136223846793005EEclEv():
/usr/include/c++/10/bits/random.tcc:455
      if (_M_p >= state_size)
    4282:	|  |  |  |  |  |                    |  |  |     |      48 8b 90 c0 09 00 00 	mov    0x9c0(%rax),%rdx
    4289:	|  |  |  |  |  |                    |  |  |     |      48 81 fa 37 01 00 00 	cmp    $0x137,%rdx
    4290:	|  |  |  |  |  |                    |  |  |     +----- 76 9e                	jbe    4230 <main+0x750>
/usr/include/c++/10/bits/random.tcc:456
	_M_gen_rand();
    4292:	|  |  |  |  |  |                    |  |  |     |      48 89 c7             	mov    %rax,%rdi
    4295:	|  |  |  |  |  |                    |  |  |     |      48 89 44 24 08       	mov    %rax,0x8(%rsp)
    429a:	|  |  |  |  |  |                    |  |  |     |      e8 11 a4 00 00       	callq  e6b0 <_ZNSt23mersenne_twister_engineImLm64ELm312ELm156ELm31ELm13043109905998158313ELm29ELm6148914691236517205ELm17ELm8202884508482404352ELm37ELm18444473444759240704ELm43ELm6364136223846793005EE11_M_gen_randEv>
/usr/include/c++/10/bits/random.tcc:459
      result_type __z = _M_x[_M_p++];
    429f:	|  |  |  |  |  |                    |  |  |     |      48 8b 44 24 08       	mov    0x8(%rsp),%rax
_ZN7UniDistIiSt23mersenne_twister_engineImLm64ELm312ELm156ELm31ELm13043109905998158313ELm29ELm6148914691236517205ELm17ELm8202884508482404352ELm37ELm18444473444759240704ELm43ELm6364136223846793005EEjEclEv():
/home/aliha951/forked_gapbs/gapbs/src/generator.h:53
      while (rand_num >= cutoff_)
    42a4:	|  |  |  |  |  |                    |  |  |     |      8b 8c 24 80 15 00 00 	mov    0x1580(%rsp),%ecx
_ZNSt23mersenne_twister_engineImLm64ELm312ELm156ELm31ELm13043109905998158313ELm29ELm6148914691236517205ELm17ELm8202884508482404352ELm37ELm18444473444759240704ELm43ELm6364136223846793005EEclEv():
/usr/include/c++/10/bits/random.tcc:459
    42ab:	|  |  |  |  |  |                    |  |  |     |      48 8b 90 c0 09 00 00 	mov    0x9c0(%rax),%rdx
    42b2:	|  |  |  |  |  |                    |  |  |     \----- e9 79 ff ff ff       	jmpq   4230 <main+0x750>
    42b7:	|  |  |  |  |  |                    |  |  |            66 0f 1f 84 00 00 00 	nopw   0x0(%rax,%rax,1)
    42be:	00 00 
/usr/include/c++/10/bits/random.tcc:456
	_M_gen_rand();
    42c0:	|  |  |  |  |  |                    |  |  \----------> 48 89 c7             	mov    %rax,%rdi
    42c3:	|  |  |  |  |  |                    |  |               48 89 44 24 08       	mov    %rax,0x8(%rsp)
    42c8:	|  |  |  |  |  |                    |  |               e8 e3 a3 00 00       	callq  e6b0 <_ZNSt23mersenne_twister_engineImLm64ELm312ELm156ELm31ELm13043109905998158313ELm29ELm6148914691236517205ELm17ELm8202884508482404352ELm37ELm18444473444759240704ELm43ELm6364136223846793005EE11_M_gen_randEv>
/usr/include/c++/10/bits/random.tcc:459
      result_type __z = _M_x[_M_p++];
    42cd:	|  |  |  |  |  |                    |  |               48 8b 44 24 08       	mov    0x8(%rsp),%rax
    42d2:	|  |  |  |  |  |                    |  |               48 8b 90 c0 09 00 00 	mov    0x9c0(%rax),%rdx
    42d9:	|  |  |  |  |  |                    |  \-------------- e9 e7 fe ff ff       	jmpq   41c5 <main+0x6e5>
    42de:	|  |  |  |  |  |                    |                  66 90                	xchg   %ax,%ax
BenchmarkKernel<CSRGraph<int, NodeWeight<int, int> >, main(int, char**)::<lambda(const WGraph&)>, void (*)(const CSRGraph<int, NodeWeight<int, int> >&, const pvector<int>&), main(int, char**)::<lambda(const WGraph&, const pvector<int>&)> >():
/home/aliha951/forked_gapbs/gapbs/src/benchmark.h:113
      stats(g, result);
    42e0:	|  |  |  |  \--|--------------------|----------------> 48 8b 74 24 20       	mov    0x20(%rsp),%rsi
    42e5:	|  |  |  |     |                    |                  4c 89 ff             	mov    %r15,%rdi
    42e8:	|  |  |  |     |                    |                  e8 63 1f 00 00       	callq  6250 <_Z14PrintSSSPStatsRK8CSRGraphIi10NodeWeightIiiELb1EERK7pvectorIiE>
    42ed:	|  |  |  \-----|--------------------|----------------- e9 38 fb ff ff       	jmpq   3e2a <main+0x34a>
/home/aliha951/forked_gapbs/gapbs/src/benchmark.h:104
  double total_seconds = 0;
    42f2:	|  |  \--------|--------------------|----------------> 66 0f ef f6          	pxor   %xmm6,%xmm6
    42f6:	|  |           |                    |                  4c 8d b4 24 e0 00 00 	lea    0xe0(%rsp),%r14
    42fd:	00 
    42fe:	|  |           |                    |                  f2 0f 11 74 24 10    	movsd  %xmm6,0x10(%rsp)
/home/aliha951/forked_gapbs/gapbs/src/benchmark.h:122
    }
  }
  PrintTime("Average Time", total_seconds / cli.num_trials());
    4304:	|  |           \--------------------|----------------> 66 0f ef c0          	pxor   %xmm0,%xmm0
    4308:	|  |                                |                  f2 0f 10 64 24 10    	movsd  0x10(%rsp),%xmm4
    430e:	|  |                                |                  48 8d 35 63 fe 00 00 	lea    0xfe63(%rip),%rsi        # 14178 <_IO_stdin_used+0x178>
    4315:	|  |                                |                  4c 89 f7             	mov    %r14,%rdi
    4318:	|  |                                |                  f2 0f 2a c0          	cvtsi2sd %eax,%xmm0
    431c:	|  |                                |                  f2 0f 5e e0          	divsd  %xmm0,%xmm4
    4320:	|  |                                |                  66 48 0f 7e e3       	movq   %xmm4,%rbx
    4325:	|  |                                |                  e8 f6 12 00 00       	callq  5620 <_ZNSt7__cxx1112basic_stringIcSt11char_traitsIcESaIcEEC2EPKcRKS3_.constprop.0>
    432a:	|  |                                |                  66 48 0f 6e c3       	movq   %rbx,%xmm0
    432f:	|  |                                |                  4c 89 f7             	mov    %r14,%rdi
    4332:	|  |                                |                  e8 c9 15 00 00       	callq  5900 <_Z9PrintTimeRKNSt7__cxx1112basic_stringIcSt11char_traitsIcESaIcEEEd>
_ZNKSt7__cxx1112basic_stringIcSt11char_traitsIcESaIcEE7_M_dataEv():
/usr/include/c++/10/bits/basic_string.h:195
      { return _M_dataplus._M_p; }
    4337:	|  |                                |                  48 8b bc 24 e0 00 00 	mov    0xe0(%rsp),%rdi
    433e:	00 
_ZNSt7__cxx1112basic_stringIcSt11char_traitsIcESaIcEE10_M_disposeEv():
/usr/include/c++/10/bits/basic_string.h:239
	if (!_M_is_local())
    433f:	|  |                                |                  48 8d 84 24 f0 00 00 	lea    0xf0(%rsp),%rax
    4346:	00 
    4347:	|  |                                |                  48 39 c7             	cmp    %rax,%rdi
    434a:	|  |                                |              /-- 74 05                	je     4351 <main+0x871>
_ZN9__gnu_cxx13new_allocatorIcE10deallocateEPcm():
/usr/include/c++/10/ext/new_allocator.h:139
    434c:	|  |                                |              |   e8 9f f3 ff ff       	callq  36f0 <_ZdlPv@plt>
_ZN8CSRGraphIi10NodeWeightIiiELb1EED4Ev():
/home/aliha951/forked_gapbs/gapbs/src/graph.h:166
    ReleaseResources();
    4351:	|  |                                |              \-> 4c 89 ff             	mov    %r15,%rdi
main():
/home/aliha951/forked_gapbs/gapbs/src/sssp.cc:212
  };
  BenchmarkKernel(cli, g, SSSPBound, PrintSSSPStats, VerifierBound);
  return 0;
    4354:	|  |                                |                  45 31 ed             	xor    %r13d,%r13d
_ZN8CSRGraphIi10NodeWeightIiiELb1EED4Ev():
/home/aliha951/forked_gapbs/gapbs/src/graph.h:166
    4357:	|  |                                |                  e8 e4 4b 00 00       	callq  8f40 <_ZN8CSRGraphIi10NodeWeightIiiELb1EE16ReleaseResourcesEv>
_ZN5CLAppD4Ev():
/home/aliha951/forked_gapbs/gapbs/src/command_line.h:114
class CLApp : public CLBase {
    435c:	|  |              /-----------------|----------------> 48 8b 7c 24 28       	mov    0x28(%rsp),%rdi
    4361:	|  |              |                 |                  48 8d 05 00 35 01 00 	lea    0x13500(%rip),%rax        # 17868 <_ZTV5CLApp+0x10>
    4368:	|  |              |                 |                  48 89 84 24 00 01 00 	mov    %rax,0x100(%rsp)
    436f:	00 
    4370:	|  |              |                 |                  e8 0b 44 00 00       	callq  8780 <_ZN6CLBaseD1Ev>
main():
/home/aliha951/forked_gapbs/gapbs/src/sssp.cc:213
}
    4375:	|  |              |                 |                  48 8b 84 24 98 15 00 	mov    0x1598(%rsp),%rax
    437c:	00 
    437d:	|  |              |                 |                  64 48 2b 04 25 28 00 	sub    %fs:0x28,%rax
    4384:	00 00 
    4386:	|  |        /-----|-----------------|----------------- 0f 85 03 03 00 00    	jne    468f <main+0xbaf>
    438c:	|  |        |     |                 |                  48 81 c4 a8 15 00 00 	add    $0x15a8,%rsp
    4393:	|  |        |     |                 |                  44 89 e8             	mov    %r13d,%eax
    4396:	|  |        |     |                 |                  5b                   	pop    %rbx
    4397:	|  |        |     |                 |                  5d                   	pop    %rbp
    4398:	|  |        |     |                 |                  41 5c                	pop    %r12
    439a:	|  |        |     |                 |                  41 5d                	pop    %r13
    439c:	|  |        |     |                 |                  41 5e                	pop    %r14
    439e:	|  |        |     |                 |                  41 5f                	pop    %r15
    43a0:	|  |        |     |                 |                  c3                   	retq   
_ZNSt7__cxx1112basic_stringIcSt11char_traitsIcESaIcEE12_Alloc_hiderC4EPcRKS3_():
/usr/include/c++/10/bits/basic_string.h:165
	: allocator_type(__a), _M_p(__dat) { }
    43a1:	|  |        |     |                 |                  4c 89 ac 24 a0 0b 00 	mov    %r13,0xba0(%rsp)
    43a8:	00 
_ZNSt7__cxx1112basic_stringIcSt11char_traitsIcESaIcEEC4EPKcRKS3_():
/usr/include/c++/10/bits/basic_string.h:536
	const _CharT* __end = __s ? __s + traits_type::length(__s)
    43a9:	|  |        |     |                 |                  48 85 ed             	test   %rbp,%rbp
    43ac:	|  |        |     |                 |        /-------- 0f 84 cd 01 00 00    	je     457f <main+0xa9f>
_ZNSt11char_traitsIcE6lengthEPKc():
/usr/include/c++/10/bits/char_traits.h:399
	return __builtin_strlen(__s);
    43b2:	|  |        |     |                 |        |         48 89 ef             	mov    %rbp,%rdi
    43b5:	|  |        |     |                 |        |         e8 26 f2 ff ff       	callq  35e0 <strlen@plt>
    43ba:	|  |        |     |                 |        |         48 89 44 24 08       	mov    %rax,0x8(%rsp)
_ZNSt7__cxx1112basic_stringIcSt11char_traitsIcESaIcEE12_M_constructIPKcEEvT_S8_St20forward_iterator_tag():
/usr/include/c++/10/bits/basic_string.tcc:215
	size_type __dnew = static_cast<size_type>(std::distance(__beg, __end));
    43bf:	|  |        |     |                 |        |         48 89 84 24 80 00 00 	mov    %rax,0x80(%rsp)
    43c6:	00 
/usr/include/c++/10/bits/basic_string.tcc:217
	if (__dnew > size_type(_S_local_capacity))
    43c7:	|  |        |     |                 |        |         48 83 f8 0f          	cmp    $0xf,%rax
    43cb:	|  |        |     |        /--------|--------|-------- 0f 87 fa 01 00 00    	ja     45cb <main+0xaeb>
_ZNSt7__cxx1112basic_stringIcSt11char_traitsIcESaIcEE7_S_copyEPcPKcm():
/usr/include/c++/10/bits/basic_string.h:356
	if (__n == 1)
    43d1:	|  |        |     |        |        |        |         48 83 7c 24 08 01    	cmpq   $0x1,0x8(%rsp)
    43d7:	|  |        |     |        |        |        |     /-- 0f 85 9d 00 00 00    	jne    447a <main+0x99a>
_ZNSt11char_traitsIcE6assignERcRKc():
/usr/include/c++/10/bits/char_traits.h:357
      { __c1 = __c2; }
    43dd:	|  |        |     |        |        |        |     |   0f b6 45 00          	movzbl 0x0(%rbp),%eax
    43e1:	|  |        |     |        |        |        |     |   88 84 24 b0 0b 00 00 	mov    %al,0xbb0(%rsp)
    43e8:	|  |        |     |  /-----|--------|--------|-----|-- e9 99 00 00 00       	jmpq   4486 <main+0x9a6>
main():
/usr/include/stdlib.h:363
    43ed:	|  |        |     |  |     |        |        |     |   ba 0a 00 00 00       	mov    $0xa,%edx
atoi():
/usr/include/stdlib.h:363
    43f2:	|  |        |     |  |     |        |        |     |   31 f6                	xor    %esi,%esi
    43f4:	|  |        |     |  |     |        |        |     |   48 89 ef             	mov    %rbp,%rdi
    43f7:	|  |        |     |  |     |        |        |     |   e8 14 f4 ff ff       	callq  3810 <strtol@plt>
    43fc:	|  |        |     |  |     |        |        |     |   89 84 24 74 01 00 00 	mov    %eax,0x174(%rsp)
_ZN6CLBase9HandleArgEaPc():
/home/aliha951/forked_gapbs/gapbs/src/command_line.h:89
      case 'k': degree_ = atoi(opt_arg);                    break;
    4403:	+--|--------|-----|--|-----|--------|--------|-----|-- e9 88 f7 ff ff       	jmpq   3b90 <main+0xb0>
/home/aliha951/forked_gapbs/gapbs/src/command_line.h:92
      case 'm': in_place_ = true;                           break;
    4408:	|  |        |     |  |     |        |        |     |   c6 84 24 9a 01 00 00 	movb   $0x1,0x19a(%rsp)
    440f:	01 
    4410:	+--|--------|-----|--|-----|--------|--------|-----|-- e9 7b f7 ff ff       	jmpq   3b90 <main+0xb0>
/home/aliha951/forked_gapbs/gapbs/src/command_line.h:90
      case 's': symmetrize_ = true;                         break;
    4415:	|  |        |     |  |     |        |        |     |   c6 84 24 98 01 00 00 	movb   $0x1,0x198(%rsp)
    441c:	01 
    441d:	+--|--------|-----|--|-----|--------|--------|-----|-- e9 6e f7 ff ff       	jmpq   3b90 <main+0xb0>
_ZStlsISt11char_traitsIcEERSt13basic_ostreamIcT_ES5_PKc():
/usr/include/c++/10/ostream:611
    operator<<(basic_ostream<char, _Traits>& __out, const char* __s)
    {
      if (!__s)
	__out.setstate(ios_base::badbit);
      else
	__ostream_insert(__out, __s,
    4422:	|  |        |     |  |     |        \--------|-----|-> ba 2b 00 00 00       	mov    $0x2b,%edx
    4427:	|  |        |     |  |     |                 |     |   48 8d 35 0a fc 00 00 	lea    0xfc0a(%rip),%rsi        # 14038 <_IO_stdin_used+0x38>
    442e:	|  |        |     |  |     |                 |     |   48 8d 3d 4b 3c 01 00 	lea    0x13c4b(%rip),%rdi        # 18080 <_ZSt4cout@@GLIBCXX_3.4>
    4435:	|  |        |     |  |     |                 |     |   e8 26 f3 ff ff       	callq  3760 <_ZSt16__ostream_insertIcSt11char_traitsIcEERSt13basic_ostreamIT_T0_ES6_PKS3_l@plt>
_ZSt4endlIcSt11char_traitsIcEERSt13basic_ostreamIT_T0_ES6_():
/usr/include/c++/10/ostream:682
   *  for more on this subject.
  */
  template<typename _CharT, typename _Traits>
    inline basic_ostream<_CharT, _Traits>&
    endl(basic_ostream<_CharT, _Traits>& __os)
    { return flush(__os.put(__os.widen('\n'))); }
    443a:	|  |        |     |  |     |                 |     |   48 8b 05 3f 3c 01 00 	mov    0x13c3f(%rip),%rax        # 18080 <_ZSt4cout@@GLIBCXX_3.4>
    4441:	|  |        |     |  |     |                 |     |   48 8d 15 38 3c 01 00 	lea    0x13c38(%rip),%rdx        # 18080 <_ZSt4cout@@GLIBCXX_3.4>
    4448:	|  |        |     |  |     |                 |     |   48 8b 40 e8          	mov    -0x18(%rax),%rax
    444c:	|  |        |     |  |     |                 |     |   48 8b ac 02 f0 00 00 	mov    0xf0(%rdx,%rax,1),%rbp
    4453:	00 
_ZSt13__check_facetISt5ctypeIcEERKT_PS3_():
/usr/include/c++/10/bits/basic_ios.h:49

  template<typename _Facet>
    inline const _Facet&
    __check_facet(const _Facet* __f)
    {
      if (!__f)
    4454:	|  |        |     |  |     |                 |     |   48 85 ed             	test   %rbp,%rbp
    4457:	|  |        |  /--|--|-----|-----------------|-----|-- 0f 84 25 02 00 00    	je     4682 <main+0xba2>
_ZNKSt5ctypeIcE5widenEc():
/usr/include/c++/10/bits/locale_facets.h:874
       *  @return  The converted character.
      */
      char_type
      widen(char __c) const
      {
	if (_M_widen_ok)
    445d:	|  |        |  |  |  |     |                 |     |   80 7d 38 00          	cmpb   $0x0,0x38(%rbp)
    4461:	|  |        |  |  |  |     |                 |  /--|-- 0f 84 d7 00 00 00    	je     453e <main+0xa5e>
/usr/include/c++/10/bits/locale_facets.h:875
	  return _M_widen[static_cast<unsigned char>(__c)];
    4467:	|  |        |  |  |  |     |                 |  |  |   0f b6 45 43          	movzbl 0x43(%rbp),%eax
    446b:	|  |        |  |  |  |     |  /--------------|--|--|-- e9 f3 00 00 00       	jmpq   4563 <main+0xa83>
_ZN6CLBase9HandleArgEaPc():
/home/aliha951/forked_gapbs/gapbs/src/command_line.h:88
      case 'h': PrintUsage();                               break;
    4470:	|  |        |  |  |  |     |  |              |  |  |   48 8b 7c 24 28       	mov    0x28(%rsp),%rdi
    4475:	|  |        |  |  |  |     |  |              |  |  |   e8 56 38 00 00       	callq  7cd0 <_ZN6CLBase10PrintUsageEv>
_ZNSt11char_traitsIcE4copyEPcPKcm():
/usr/include/c++/10/bits/char_traits.h:431
	if (__n == 0)
    447a:	|  |        |  |  |  |     |  |              |  |  \-> 48 83 7c 24 08 00    	cmpq   $0x0,0x8(%rsp)
    4480:	|  |        |  |  |  |  /--|--|--------------|--|----- 0f 85 01 02 00 00    	jne    4687 <main+0xba7>
_ZNSt7__cxx1112basic_stringIcSt11char_traitsIcESaIcEE12_M_constructIPKcEEvT_S8_St20forward_iterator_tag():
/usr/include/c++/10/bits/basic_string.tcc:232
	_M_set_length(__dnew);
    4486:	|  |        |  |  |  >--|--|--|--------------|--|----> 48 8b 84 24 80 00 00 	mov    0x80(%rsp),%rax
    448d:	00 
_ZNSt11char_traitsIcE6assignERcRKc():
/usr/include/c++/10/bits/char_traits.h:357
      { __c1 = __c2; }
    448e:	|  |        |  |  |  |  |  |  |              |  |      48 8b 94 24 a0 0b 00 	mov    0xba0(%rsp),%rdx
    4495:	00 
_ZNSt7__cxx1112basic_stringIcSt11char_traitsIcESaIcEE9_M_lengthEm():
/usr/include/c++/10/bits/basic_string.h:191
      { _M_string_length = __length; }
    4496:	|  |        |  |  |  |  |  |  |              |  |      48 89 84 24 a8 0b 00 	mov    %rax,0xba8(%rsp)
    449d:	00 
_ZNSt11char_traitsIcE6assignERcRKc():
/usr/include/c++/10/bits/char_traits.h:357
    449e:	|  |        |  |  |  |  |  |  |              |  |      c6 04 02 00          	movb   $0x0,(%rdx,%rax,1)
_ZNKSt7__cxx1112basic_stringIcSt11char_traitsIcESaIcEE7_M_dataEv():
/usr/include/c++/10/bits/basic_string.h:195
      { return _M_dataplus._M_p; }
    44a2:	|  |        |  |  |  |  |  |  |              |  |      48 8b 84 24 a0 0b 00 	mov    0xba0(%rsp),%rax
    44a9:	00 
    44aa:	|  |        |  |  |  |  |  |  |              |  |      48 8b bc 24 78 01 00 	mov    0x178(%rsp),%rdi
    44b1:	00 
_ZNSt7__cxx1112basic_stringIcSt11char_traitsIcESaIcEEaSEOS4_():
/usr/include/c++/10/bits/basic_string.h:731
	if (__str._M_is_local())
    44b2:	|  |        |  |  |  |  |  |  |              |  |      4c 39 e8             	cmp    %r13,%rax
    44b5:	|  |        |  |  |  |  |  |  |              |  |  /-- 0f 84 d0 00 00 00    	je     458b <main+0xaab>
/usr/include/c++/10/bits/basic_string.h:759
	    _M_capacity(__str._M_allocated_capacity);
    44bb:	|  |        |  |  |  |  |  |  |              |  |  |   f3 0f 7e 8c 24 b0 0b 	movq   0xbb0(%rsp),%xmm1
    44c2:	00 00 
_ZNKSt7__cxx1112basic_stringIcSt11char_traitsIcESaIcEE4sizeEv():
/usr/include/c++/10/bits/basic_string.h:915
      { return _M_string_length; }
    44c4:	|  |        |  |  |  |  |  |  |              |  |  |   f3 0f 7e 84 24 a8 0b 	movq   0xba8(%rsp),%xmm0
    44cb:	00 00 
_ZNSt7__cxx1112basic_stringIcSt11char_traitsIcESaIcEEaSEOS4_():
/usr/include/c++/10/bits/basic_string.h:745
	    if (!_M_is_local())
    44cd:	|  |        |  |  |  |  |  |  |              |  |  |   48 3b 3c 24          	cmp    (%rsp),%rdi
    44d1:	|  |        |  |  |  |  |  |  |  /-----------|--|--|-- 0f 84 2e 01 00 00    	je     4605 <main+0xb25>
_ZNSt7__cxx1112basic_stringIcSt11char_traitsIcESaIcEE9_M_lengthEm():
/usr/include/c++/10/bits/basic_string.h:191
      { _M_string_length = __length; }
    44d7:	|  |        |  |  |  |  |  |  |  |           |  |  |   66 0f 6c c1          	punpcklqdq %xmm1,%xmm0
_ZNSt7__cxx1112basic_stringIcSt11char_traitsIcESaIcEEaSEOS4_():
/usr/include/c++/10/bits/basic_string.h:751
		    __capacity = _M_allocated_capacity;
    44db:	|  |        |  |  |  |  |  |  |  |           |  |  |   48 8b 94 24 88 01 00 	mov    0x188(%rsp),%rdx
    44e2:	00 
_ZNSt7__cxx1112basic_stringIcSt11char_traitsIcESaIcEE7_M_dataEPc():
/usr/include/c++/10/bits/basic_string.h:187
      { _M_dataplus._M_p = __p; }
    44e3:	|  |        |  |  |  |  |  |  |  |           |  |  |   48 89 84 24 78 01 00 	mov    %rax,0x178(%rsp)
    44ea:	00 
_ZNSt7__cxx1112basic_stringIcSt11char_traitsIcESaIcEE9_M_lengthEm():
/usr/include/c++/10/bits/basic_string.h:191
      { _M_string_length = __length; }
    44eb:	|  |        |  |  |  |  |  |  |  |           |  |  |   0f 29 84 24 80 01 00 	movaps %xmm0,0x180(%rsp)
    44f2:	00 
_ZNSt7__cxx1112basic_stringIcSt11char_traitsIcESaIcEEaSEOS4_():
/usr/include/c++/10/bits/basic_string.h:760
	    if (__data)
    44f3:	|  |        |  |  |  |  |  |  |  |           |  |  |   48 85 ff             	test   %rdi,%rdi
    44f6:	|  |        |  |  |  |  |  |  |  |  /--------|--|--|-- 0f 84 1d 01 00 00    	je     4619 <main+0xb39>
_ZNSt7__cxx1112basic_stringIcSt11char_traitsIcESaIcEE7_M_dataEPc():
/usr/include/c++/10/bits/basic_string.h:187
      { _M_dataplus._M_p = __p; }
    44fc:	|  |        |  |  |  |  |  |  |  |  |        |  |  |   48 89 bc 24 a0 0b 00 	mov    %rdi,0xba0(%rsp)
    4503:	00 
_ZNSt7__cxx1112basic_stringIcSt11char_traitsIcESaIcEE11_M_capacityEm():
/usr/include/c++/10/bits/basic_string.h:219
      { _M_allocated_capacity = __capacity; }
    4504:	|  |        |  |  |  |  |  |  |  |  |        |  |  |   48 89 94 24 b0 0b 00 	mov    %rdx,0xbb0(%rsp)
    450b:	00 
_ZNKSt7__cxx1112basic_stringIcSt11char_traitsIcESaIcEE7_M_dataEv():
/usr/include/c++/10/bits/basic_string.h:195
      { return _M_dataplus._M_p; }
    450c:	|  |        |  |  |  |  |  |  |  |  |  /-----|--|--|-> 48 8b 84 24 a0 0b 00 	mov    0xba0(%rsp),%rax
    4513:	00 
_ZNSt7__cxx1112basic_stringIcSt11char_traitsIcESaIcEE9_M_lengthEm():
/usr/include/c++/10/bits/basic_string.h:191
      { _M_string_length = __length; }
    4514:	|  |        |  |  |  |  |  |  |  |  |  |     |  |  |   48 c7 84 24 a8 0b 00 	movq   $0x0,0xba8(%rsp)
    451b:	00 00 00 00 00 
_ZNSt11char_traitsIcE6assignERcRKc():
/usr/include/c++/10/bits/char_traits.h:357
    4520:	|  |        |  |  |  |  |  |  |  |  |  |     |  |  |   c6 00 00             	movb   $0x0,(%rax)
_ZNKSt7__cxx1112basic_stringIcSt11char_traitsIcESaIcEE7_M_dataEv():
/usr/include/c++/10/bits/basic_string.h:195
      { return _M_dataplus._M_p; }
    4523:	|  |        |  |  |  |  |  |  |  |  |  |     |  |  |   48 8b bc 24 a0 0b 00 	mov    0xba0(%rsp),%rdi
    452a:	00 
_ZNSt7__cxx1112basic_stringIcSt11char_traitsIcESaIcEE10_M_disposeEv():
/usr/include/c++/10/bits/basic_string.h:239
	if (!_M_is_local())
    452b:	|  |        |  |  |  |  |  |  |  |  |  |     |  |  |   4c 39 ef             	cmp    %r13,%rdi
    452e:	+--|--------|--|--|--|--|--|--|--|--|--|-----|--|--|-- 0f 84 5c f6 ff ff    	je     3b90 <main+0xb0>
_ZN9__gnu_cxx13new_allocatorIcE10deallocateEPcm():
/usr/include/c++/10/ext/new_allocator.h:139
    4534:	|  |        |  |  |  |  |  |  |  |  |  |     |  |  |   e8 b7 f1 ff ff       	callq  36f0 <_ZdlPv@plt>
_ZN6CLBase9HandleArgEaPc():
/home/aliha951/forked_gapbs/gapbs/src/command_line.h:94
  }
    4539:	\--|--------|--|--|--|--|--|--|--|--|--|-----|--|--|-- e9 52 f6 ff ff       	jmpq   3b90 <main+0xb0>
_ZNKSt5ctypeIcE5widenEc():
/usr/include/c++/10/bits/locale_facets.h:876
	this->_M_widen_init();
    453e:	   |        |  |  |  |  |  |  |  |  |  |     |  \--|-> 48 89 ef             	mov    %rbp,%rdi
    4541:	   |        |  |  |  |  |  |  |  |  |  |     |     |   e8 2a f2 ff ff       	callq  3770 <_ZNKSt5ctypeIcE13_M_widen_initEv@plt>
/usr/include/c++/10/bits/locale_facets.h:877
	return this->do_widen(__c);
    4546:	   |        |  |  |  |  |  |  |  |  |  |     |     |   48 8b 45 00          	mov    0x0(%rbp),%rax
    454a:	   |        |  |  |  |  |  |  |  |  |  |     |     |   48 8d 0d 4f 2e 00 00 	lea    0x2e4f(%rip),%rcx        # 73a0 <_ZNKSt5ctypeIcE8do_widenEc>
    4551:	   |        |  |  |  |  |  |  |  |  |  |     |     |   48 8b 50 30          	mov    0x30(%rax),%rdx
    4555:	   |        |  |  |  |  |  |  |  |  |  |     |     |   b8 0a 00 00 00       	mov    $0xa,%eax
    455a:	   |        |  |  |  |  |  |  |  |  |  |     |     |   48 39 ca             	cmp    %rcx,%rdx
    455d:	   |        |  |  |  |  |  |  |  |  |  |  /--|-----|-- 0f 85 e2 00 00 00    	jne    4645 <main+0xb65>
_ZSt4endlIcSt11char_traitsIcEERSt13basic_ostreamIT_T0_ES6_():
/usr/include/c++/10/ostream:682
    4563:	   |        |  |  |  |  |  |  >--|--|--|--|--|-----|-> 0f be f0             	movsbl %al,%esi
    4566:	   |        |  |  |  |  |  |  |  |  |  |  |  |     |   48 8d 3d 13 3b 01 00 	lea    0x13b13(%rip),%rdi        # 18080 <_ZSt4cout@@GLIBCXX_3.4>
    456d:	   |        |  |  |  |  |  |  |  |  |  |  |  |     |   e8 8e ef ff ff       	callq  3500 <_ZNSo3putEc@plt>
    4572:	   |        |  |  |  |  |  |  |  |  |  |  |  |     |   48 89 c7             	mov    %rax,%rdi
_ZSt5flushIcSt11char_traitsIcEERSt13basic_ostreamIT_T0_ES6_():
/usr/include/c++/10/ostream:704
   *  This manipulator simply calls the stream's @c flush() member function.
  */
  template<typename _CharT, typename _Traits>
    inline basic_ostream<_CharT, _Traits>&
    flush(basic_ostream<_CharT, _Traits>& __os)
    { return __os.flush(); }
    4575:	   |        |  |  |  |  |  |  |  |  |  |  |  |     |   e8 f6 f0 ff ff       	callq  3670 <_ZNSo5flushEv@plt>
    457a:	   |        |  |  \--|--|--|--|--|--|--|--|--|-----|-- e9 dd fd ff ff       	jmpq   435c <main+0x87c>
_ZNSt7__cxx1112basic_stringIcSt11char_traitsIcESaIcEE12_M_constructIPKcEEvT_S8_St20forward_iterator_tag():
/usr/include/c++/10/bits/basic_string.tcc:212
	  std::__throw_logic_error(__N("basic_string::"
    457f:	   |        |  |     |  |  |  |  |  |  |  |  \-----|-> 48 8d 3d 82 fa 00 00 	lea    0xfa82(%rip),%rdi        # 14008 <_IO_stdin_used+0x8>
    4586:	   |        |  |     |  |  |  |  |  |  |  |        |   e8 05 f1 ff ff       	callq  3690 <_ZSt19__throw_logic_errorPKc@plt>
_ZNKSt7__cxx1112basic_stringIcSt11char_traitsIcESaIcEE4sizeEv():
/usr/include/c++/10/bits/basic_string.h:915
      { return _M_string_length; }
    458b:	   |        |  |     |  |  |  |  |  |  |  |        \-> 48 8b 94 24 a8 0b 00 	mov    0xba8(%rsp),%rdx
    4592:	00 
_ZNSt7__cxx1112basic_stringIcSt11char_traitsIcESaIcEEaSEOS4_():
/usr/include/c++/10/bits/basic_string.h:734
	    if (__str.size())
    4593:	   |        |  |     |  |  |  |  |  |  |  |            48 85 d2             	test   %rdx,%rdx
    4596:	   |        |  |     |  |  |  |  |  |  |  |  /-------- 74 22                	je     45ba <main+0xada>
_ZNSt7__cxx1112basic_stringIcSt11char_traitsIcESaIcEE7_S_copyEPcPKcm():
/usr/include/c++/10/bits/basic_string.h:356
	if (__n == 1)
    4598:	   |        |  |     |  |  |  |  |  |  |  |  |         48 83 fa 01          	cmp    $0x1,%rdx
    459c:	   |        |  |     |  |  |  |  |  |  |  |  |     /-- 0f 84 84 00 00 00    	je     4626 <main+0xb46>
_ZNSt11char_traitsIcE4copyEPcPKcm():
/usr/include/c++/10/bits/char_traits.h:437
	return static_cast<char_type*>(__builtin_memcpy(__s1, __s2, __n));
    45a2:	   |        |  |     |  |  |  |  |  |  |  |  |     |   4c 89 ee             	mov    %r13,%rsi
    45a5:	   |        |  |     |  |  |  |  |  |  |  |  |     |   e8 f6 f0 ff ff       	callq  36a0 <memcpy@plt>
    45aa:	   |        |  |     |  |  |  |  |  |  |  |  |     |   48 8b bc 24 78 01 00 	mov    0x178(%rsp),%rdi
    45b1:	00 
    45b2:	   |        |  |     |  |  |  |  |  |  |  |  |     |   48 8b 94 24 a8 0b 00 	mov    0xba8(%rsp),%rdx
    45b9:	00 
_ZNSt7__cxx1112basic_stringIcSt11char_traitsIcESaIcEE9_M_lengthEm():
/usr/include/c++/10/bits/basic_string.h:191
      { _M_string_length = __length; }
    45ba:	   |        |  |     |  |  |  |  |  |  |  |  >-----|-> 48 89 94 24 80 01 00 	mov    %rdx,0x180(%rsp)
    45c1:	00 
_ZNSt11char_traitsIcE6assignERcRKc():
/usr/include/c++/10/bits/char_traits.h:357
      { __c1 = __c2; }
    45c2:	   |        |  |     |  |  |  |  |  |  |  |  |     |   c6 04 17 00          	movb   $0x0,(%rdi,%rdx,1)
_ZNSt7__cxx1112basic_stringIcSt11char_traitsIcESaIcEE13_M_set_lengthEm():
/usr/include/c++/10/bits/basic_string.h:226
      }
    45c6:	   |        |  |     |  |  |  |  |  |  +--|--|-----|-- e9 41 ff ff ff       	jmpq   450c <main+0xa2c>
_ZNSt7__cxx1112basic_stringIcSt11char_traitsIcESaIcEE12_M_constructIPKcEEvT_S8_St20forward_iterator_tag():
/usr/include/c++/10/bits/basic_string.tcc:219
	    _M_data(_M_create(__dnew, size_type(0)));
    45cb:	   |        |  |     |  |  \--|--|--|--|--|--|-----|-> 31 d2                	xor    %edx,%edx
    45cd:	   |        |  |     |  |     |  |  |  |  |  |     |   4c 89 fe             	mov    %r15,%rsi
    45d0:	   |        |  |     |  |     |  |  |  |  |  |     |   4c 89 e7             	mov    %r12,%rdi
    45d3:	   |        |  |     |  |     |  |  |  |  |  |     |   e8 28 f3 ff ff       	callq  3900 <_ZNSt7__cxx1112basic_stringIcSt11char_traitsIcESaIcEE9_M_createERmm@plt>
_ZNSt7__cxx1112basic_stringIcSt11char_traitsIcESaIcEE7_M_dataEPc():
/usr/include/c++/10/bits/basic_string.h:187
      { _M_dataplus._M_p = __p; }
    45d8:	   |        |  |     |  |     |  |  |  |  |  |     |   48 89 84 24 a0 0b 00 	mov    %rax,0xba0(%rsp)
    45df:	00 
_ZNSt7__cxx1112basic_stringIcSt11char_traitsIcESaIcEE12_M_constructIPKcEEvT_S8_St20forward_iterator_tag():
/usr/include/c++/10/bits/basic_string.tcc:219
    45e0:	   |        |  |     |  |     |  |  |  |  |  |     |   48 89 c7             	mov    %rax,%rdi
_ZNSt7__cxx1112basic_stringIcSt11char_traitsIcESaIcEE11_M_capacityEm():
/usr/include/c++/10/bits/basic_string.h:219
      { _M_allocated_capacity = __capacity; }
    45e3:	   |        |  |     |  |     |  |  |  |  |  |     |   48 8b 84 24 80 00 00 	mov    0x80(%rsp),%rax
    45ea:	00 
    45eb:	   |        |  |     |  |     |  |  |  |  |  |     |   48 89 84 24 b0 0b 00 	mov    %rax,0xbb0(%rsp)
    45f2:	00 
_ZNSt11char_traitsIcE4copyEPcPKcm():
/usr/include/c++/10/bits/char_traits.h:437
	return static_cast<char_type*>(__builtin_memcpy(__s1, __s2, __n));
    45f3:	   |        |  |     |  |     |  |  |  |  |  |  /--|-> 48 8b 54 24 08       	mov    0x8(%rsp),%rdx
    45f8:	   |        |  |     |  |     |  |  |  |  |  |  |  |   48 89 ee             	mov    %rbp,%rsi
    45fb:	   |        |  |     |  |     |  |  |  |  |  |  |  |   e8 a0 f0 ff ff       	callq  36a0 <memcpy@plt>
    4600:	   |        |  |     \--|-----|--|--|--|--|--|--|--|-- e9 81 fe ff ff       	jmpq   4486 <main+0x9a6>
_ZNSt7__cxx1112basic_stringIcSt11char_traitsIcESaIcEE7_M_dataEPc():
/usr/include/c++/10/bits/basic_string.h:187
      { _M_dataplus._M_p = __p; }
    4605:	   |        |  |        |     |  \--|--|--|--|--|--|-> 48 89 84 24 78 01 00 	mov    %rax,0x178(%rsp)
    460c:	00 
_ZNSt7__cxx1112basic_stringIcSt11char_traitsIcESaIcEE9_M_lengthEm():
/usr/include/c++/10/bits/basic_string.h:191
      { _M_string_length = __length; }
    460d:	   |        |  |        |     |     |  |  |  |  |  |   66 0f 6c c1          	punpcklqdq %xmm1,%xmm0
    4611:	   |        |  |        |     |     |  |  |  |  |  |   0f 29 84 24 80 01 00 	movaps %xmm0,0x180(%rsp)
    4618:	00 
_ZNSt7__cxx1112basic_stringIcSt11char_traitsIcESaIcEE7_M_dataEPc():
/usr/include/c++/10/bits/basic_string.h:187
      { _M_dataplus._M_p = __p; }
    4619:	   |        |  |        |     |     \--|--|--|--|--|-> 4c 89 ac 24 a0 0b 00 	mov    %r13,0xba0(%rsp)
    4620:	00 
    4621:	   |        |  |        |     |        \--|--|--|--|-- e9 e6 fe ff ff       	jmpq   450c <main+0xa2c>
_ZNSt11char_traitsIcE6assignERcRKc():
/usr/include/c++/10/bits/char_traits.h:357
      { __c1 = __c2; }
    4626:	   |        |  |        |     |           |  |  |  \-> 0f b6 84 24 b0 0b 00 	movzbl 0xbb0(%rsp),%eax
    462d:	00 
    462e:	   |        |  |        |     |           |  |  |      88 07                	mov    %al,(%rdi)
    4630:	   |        |  |        |     |           |  |  |      48 8b bc 24 78 01 00 	mov    0x178(%rsp),%rdi
    4637:	00 
    4638:	   |        |  |        |     |           |  |  |      48 8b 94 24 a8 0b 00 	mov    0xba8(%rsp),%rdx
    463f:	00 
    4640:	   |        |  |        |     |           |  \--|----- e9 75 ff ff ff       	jmpq   45ba <main+0xada>
_ZNKSt5ctypeIcE5widenEc():
/usr/include/c++/10/bits/locale_facets.h:877
    4645:	   |        |  |        |     |           \-----|----> be 0a 00 00 00       	mov    $0xa,%esi
    464a:	   |        |  |        |     |                 |      48 89 ef             	mov    %rbp,%rdi
    464d:	   |        |  |        |     |                 |      ff d2                	callq  *%rdx
    464f:	   |        |  |        |     \-----------------|----- e9 0f ff ff ff       	jmpq   4563 <main+0xa83>
_ZStlsISt11char_traitsIcEERSt13basic_ostreamIcT_ES5_PKc():
/usr/include/c++/10/ostream:611
	__ostream_insert(__out, __s,
    4654:	   \--------|--|--------|-----------------------|----> ba 37 00 00 00       	mov    $0x37,%edx
    4659:	            |  |        |                       |      48 8d 35 08 fa 00 00 	lea    0xfa08(%rip),%rsi        # 14068 <_IO_stdin_used+0x68>
    4660:	            |  |        |                       |      48 8d 3d 19 3a 01 00 	lea    0x13a19(%rip),%rdi        # 18080 <_ZSt4cout@@GLIBCXX_3.4>
    4667:	            |  |        |                       |      e8 f4 f0 ff ff       	callq  3760 <_ZSt16__ostream_insertIcSt11char_traitsIcEERSt13basic_ostreamIT_T0_ES6_PKS3_l@plt>
_ZNSolsEPFRSoS_E():
/usr/include/c++/10/ostream:113
	return __pf(*this);
    466c:	            |  |        |                       |      48 8d 3d 0d 3a 01 00 	lea    0x13a0d(%rip),%rdi        # 18080 <_ZSt4cout@@GLIBCXX_3.4>
    4673:	            |  |        |                       |      e8 58 08 00 00       	callq  4ed0 <_ZSt4endlIcSt11char_traitsIcEERSt13basic_ostreamIT_T0_ES6_.isra.0>
_ZN11BuilderBaseIi10NodeWeightIiiEiLb1EEC4ERK6CLBase():
/home/aliha951/forked_gapbs/gapbs/src/builder.h:57
      std::cout << "In-place building (-m) does not support weighted graphs"
                << std::endl;
      exit(-30);
    4678:	            |  |        |                       |      bf e2 ff ff ff       	mov    $0xffffffe2,%edi
    467d:	            |  |        |                       |      e8 0e f1 ff ff       	callq  3790 <exit@plt>
_ZSt13__check_facetISt5ctypeIcEERKT_PS3_():
/usr/include/c++/10/bits/basic_ios.h:50
	__throw_bad_cast();
    4682:	            |  \--------|-----------------------|----> e8 29 f1 ff ff       	callq  37b0 <_ZSt16__throw_bad_castv@plt>
_ZNKSt7__cxx1112basic_stringIcSt11char_traitsIcESaIcEE7_M_dataEv():
/usr/include/c++/10/bits/basic_string.h:195
      { return _M_dataplus._M_p; }
    4687:	            |           \-----------------------|----> 4c 89 ef             	mov    %r13,%rdi
    468a:	            |                                   \----- e9 64 ff ff ff       	jmpq   45f3 <main+0xb13>
main():
/home/aliha951/forked_gapbs/gapbs/src/sssp.cc:213
    468f:	            \----------------------------------------> e8 bc f0 ff ff       	callq  3750 <__stack_chk_fail@plt>
    4694:	                                                       f3 0f 1e fa          	endbr64 
_ZNKSt7__cxx1112basic_stringIcSt11char_traitsIcESaIcEE7_M_dataEv():
/usr/include/c++/10/bits/basic_string.h:195
    4698:	                                                       48 89 c3             	mov    %rax,%rbx
    469b:	                                                       e9 93 f3 ff ff       	jmpq   3a33 <main.cold>
    46a0:	                                                       f3 0f 1e fa          	endbr64 
    46a4:	                                                       48 89 c5             	mov    %rax,%rbp
    46a7:	                                                       e9 e0 f3 ff ff       	jmpq   3a8c <main.cold+0x59>
    46ac:	                                                       f3 0f 1e fa          	endbr64 
    46b0:	                                                       48 89 c3             	mov    %rax,%rbx
    46b3:	                                                       e9 fd f3 ff ff       	jmpq   3ab5 <main.cold+0x82>
    46b8:	                                                       f3 0f 1e fa          	endbr64 
_ZN7pvectorIiE16ReleaseResourcesEv():
/home/aliha951/forked_gapbs/gapbs/src/pvector.h:73
    if (start_ != nullptr) {
    46bc:	                                                       48 89 c3             	mov    %rax,%rbx
    46bf:	                                                       e9 95 f3 ff ff       	jmpq   3a59 <main.cold+0x26>
    46c4:	                                                       f3 0f 1e fa          	endbr64 
_ZNKSt7__cxx1112basic_stringIcSt11char_traitsIcESaIcEE7_M_dataEv():
/usr/include/c++/10/bits/basic_string.h:195
    46c8:	                                                       48 89 c3             	mov    %rax,%rbx
    46cb:	                                                       e9 e5 f3 ff ff       	jmpq   3ab5 <main.cold+0x82>
    46d0:	                                                       f3 0f 1e fa          	endbr64 
_ZN5CLAppD4Ev():
/home/aliha951/forked_gapbs/gapbs/src/command_line.h:114
class CLApp : public CLBase {
    46d4:	                                                       48 89 c3             	mov    %rax,%rbx
    46d7:	                                                       e9 8f f3 ff ff       	jmpq   3a6b <main.cold+0x38>
    46dc:	                                                       f3 0f 1e fa          	endbr64 
    46e0:	                                                       48 89 c3             	mov    %rax,%rbx
    46e3:	                                                       e9 7b f3 ff ff       	jmpq   3a63 <main.cold+0x30>
    46e8:	                                                       f3 0f 1e fa          	endbr64 
_ZNKSt7__cxx1112basic_stringIcSt11char_traitsIcESaIcEE7_M_dataEv():
/usr/include/c++/10/bits/basic_string.h:195
    46ec:	                                                       48 89 c3             	mov    %rax,%rbx
    46ef:	                                                       e9 d0 f3 ff ff       	jmpq   3ac4 <main.cold+0x91>
main():
/usr/include/c++/10/bits/basic_string.h:195
    46f4:	                                                       66 66 2e 0f 1f 84 00 	data16 nopw %cs:0x0(%rax,%rax,1)
    46fb:	00 00 00 00 
    46ff:	                                                       90                   	nop

0000000000004700 <_GLOBAL__sub_I__Z10PrintLabelRKNSt7__cxx1112basic_stringIcSt11char_traitsIcESaIcEEES6_>:
_GLOBAL__sub_I__Z10PrintLabelRKNSt7__cxx1112basic_stringIcSt11char_traitsIcESaIcEEES6_():
/home/aliha951/forked_gapbs/gapbs/src/sssp.cc:213
    4700:	f3 0f 1e fa          	endbr64 
    4704:	48 83 ec 08          	sub    $0x8,%rsp
/usr/include/c++/10/iostream:74
  extern wostream wclog;	/// Linked to standard error (buffered)
#endif
  ///@}

  // For construction of filebuffers for cout, cin, cerr, clog et. al.
  static ios_base::Init __ioinit;
    4708:	48 8d 3d 82 3a 01 00 	lea    0x13a82(%rip),%rdi        # 18191 <_ZStL8__ioinit>
__static_initialization_and_destruction_0():
/usr/include/c++/10/iostream:74
    470f:	e8 4c f1 ff ff       	callq  3860 <_ZNSt8ios_base4InitC1Ev@plt>
    4714:	48 8b 3d dd 38 01 00 	mov    0x138dd(%rip),%rdi        # 17ff8 <_ZNSt8ios_base4InitD1Ev@GLIBCXX_3.4>
_GLOBAL__sub_I__Z10PrintLabelRKNSt7__cxx1112basic_stringIcSt11char_traitsIcESaIcEEES6_():
/home/aliha951/forked_gapbs/gapbs/src/sssp.cc:213
    471b:	48 83 c4 08          	add    $0x8,%rsp
__static_initialization_and_destruction_0():
/usr/include/c++/10/iostream:74
    471f:	48 8d 15 e2 38 01 00 	lea    0x138e2(%rip),%rdx        # 18008 <__dso_handle>
    4726:	48 8d 35 64 3a 01 00 	lea    0x13a64(%rip),%rsi        # 18191 <_ZStL8__ioinit>
    472d:	e9 8e ef ff ff       	jmpq   36c0 <__cxa_atexit@plt>
_GLOBAL__sub_I__Z10PrintLabelRKNSt7__cxx1112basic_stringIcSt11char_traitsIcESaIcEEES6_():
    4732:	66 2e 0f 1f 84 00 00 	nopw   %cs:0x0(%rax,%rax,1)
    4739:	00 00 00 
    473c:	0f 1f 40 00          	nopl   0x0(%rax)

0000000000004740 <_start>:
_start():
    4740:	f3 0f 1e fa          	endbr64 
    4744:	31 ed                	xor    %ebp,%ebp
    4746:	49 89 d1             	mov    %rdx,%r9
    4749:	5e                   	pop    %rsi
    474a:	48 89 e2             	mov    %rsp,%rdx
    474d:	48 83 e4 f0          	and    $0xfffffffffffffff0,%rsp
    4751:	50                   	push   %rax
    4752:	54                   	push   %rsp
    4753:	4c 8d 05 d6 e8 00 00 	lea    0xe8d6(%rip),%r8        # 13030 <__libc_csu_fini>
    475a:	48 8d 0d 5f e8 00 00 	lea    0xe85f(%rip),%rcx        # 12fc0 <__libc_csu_init>
    4761:	48 8d 3d 78 f3 ff ff 	lea    -0xc88(%rip),%rdi        # 3ae0 <main>
    4768:	ff 15 72 38 01 00    	callq  *0x13872(%rip)        # 17fe0 <__libc_start_main@GLIBC_2.2.5>
    476e:	f4                   	hlt    
    476f:	90                   	nop

0000000000004770 <deregister_tm_clones>:
deregister_tm_clones():
    4770:	    48 8d 3d a1 38 01 00 	lea    0x138a1(%rip),%rdi        # 18018 <__TMC_END__>
    4777:	    48 8d 05 9a 38 01 00 	lea    0x1389a(%rip),%rax        # 18018 <__TMC_END__>
    477e:	    48 39 f8             	cmp    %rdi,%rax
    4781:	/-- 74 15                	je     4798 <deregister_tm_clones+0x28>
    4783:	|   48 8b 05 4e 38 01 00 	mov    0x1384e(%rip),%rax        # 17fd8 <_ITM_deregisterTMCloneTable>
    478a:	|   48 85 c0             	test   %rax,%rax
    478d:	+-- 74 09                	je     4798 <deregister_tm_clones+0x28>
    478f:	|   ff e0                	jmpq   *%rax
    4791:	|   0f 1f 80 00 00 00 00 	nopl   0x0(%rax)
    4798:	\-> c3                   	retq   
    4799:	    0f 1f 80 00 00 00 00 	nopl   0x0(%rax)

00000000000047a0 <register_tm_clones>:
register_tm_clones():
    47a0:	    48 8d 3d 71 38 01 00 	lea    0x13871(%rip),%rdi        # 18018 <__TMC_END__>
    47a7:	    48 8d 35 6a 38 01 00 	lea    0x1386a(%rip),%rsi        # 18018 <__TMC_END__>
    47ae:	    48 29 fe             	sub    %rdi,%rsi
    47b1:	    48 89 f0             	mov    %rsi,%rax
    47b4:	    48 c1 ee 3f          	shr    $0x3f,%rsi
    47b8:	    48 c1 f8 03          	sar    $0x3,%rax
    47bc:	    48 01 c6             	add    %rax,%rsi
    47bf:	    48 d1 fe             	sar    %rsi
    47c2:	/-- 74 14                	je     47d8 <register_tm_clones+0x38>
    47c4:	|   48 8b 05 25 38 01 00 	mov    0x13825(%rip),%rax        # 17ff0 <_ITM_registerTMCloneTable>
    47cb:	|   48 85 c0             	test   %rax,%rax
    47ce:	+-- 74 08                	je     47d8 <register_tm_clones+0x38>
    47d0:	|   ff e0                	jmpq   *%rax
    47d2:	|   66 0f 1f 44 00 00    	nopw   0x0(%rax,%rax,1)
    47d8:	\-> c3                   	retq   
    47d9:	    0f 1f 80 00 00 00 00 	nopl   0x0(%rax)

00000000000047e0 <__do_global_dtors_aux>:
__do_global_dtors_aux():
    47e0:	       f3 0f 1e fa          	endbr64 
    47e4:	       80 3d a5 39 01 00 00 	cmpb   $0x0,0x139a5(%rip)        # 18190 <completed.0>
    47eb:	/----- 75 2b                	jne    4818 <__do_global_dtors_aux+0x38>
    47ed:	|      55                   	push   %rbp
    47ee:	|      48 83 3d da 37 01 00 	cmpq   $0x0,0x137da(%rip)        # 17fd0 <__cxa_finalize@GLIBC_2.2.5>
    47f5:	00 
    47f6:	|      48 89 e5             	mov    %rsp,%rbp
    47f9:	|  /-- 74 0c                	je     4807 <__do_global_dtors_aux+0x27>
    47fb:	|  |   48 8b 3d 06 38 01 00 	mov    0x13806(%rip),%rdi        # 18008 <__dso_handle>
    4802:	|  |   e8 c9 ec ff ff       	callq  34d0 <__cxa_finalize@plt>
    4807:	|  \-> e8 64 ff ff ff       	callq  4770 <deregister_tm_clones>
    480c:	|      c6 05 7d 39 01 00 01 	movb   $0x1,0x1397d(%rip)        # 18190 <completed.0>
    4813:	|      5d                   	pop    %rbp
    4814:	|      c3                   	retq   
    4815:	|      0f 1f 00             	nopl   (%rax)
    4818:	\----> c3                   	retq   
    4819:	       0f 1f 80 00 00 00 00 	nopl   0x0(%rax)

0000000000004820 <frame_dummy>:
frame_dummy():
    4820:	f3 0f 1e fa          	endbr64 
    4824:	e9 77 ff ff ff       	jmpq   47a0 <register_tm_clones>
    4829:	0f 1f 80 00 00 00 00 	nopl   0x0(%rax)

0000000000004830 <_ZN7pvectorIiE4fillEi._omp_fn.0>:
_ZN7pvectorIiE4fillEi._omp_fn.0():
/home/aliha951/forked_gapbs/gapbs/src/pvector.h:133
    *end_size_ = val;
    end_size_++;
  }

  void fill(T_ init_val) {
    #pragma omp parallel for
    4830:	                f3 0f 1e fa          	endbr64 
    4834:	                41 55                	push   %r13
    4836:	                41 54                	push   %r12
    4838:	                55                   	push   %rbp
    4839:	                53                   	push   %rbx
    483a:	                48 83 ec 08          	sub    $0x8,%rsp
    483e:	                48 8b 07             	mov    (%rdi),%rax
/home/aliha951/forked_gapbs/gapbs/src/pvector.h:134
    for (T_* ptr=start_; ptr < end_size_; ptr++)
    4841:	                48 8b 28             	mov    (%rax),%rbp
    4844:	                4c 8b 68 08          	mov    0x8(%rax),%r13
    4848:	                4c 39 ed             	cmp    %r13,%rbp
    484b:	/-------------- 0f 83 dd 00 00 00    	jae    492e <_ZN7pvectorIiE4fillEi._omp_fn.0+0xfe>
    4851:	|               49 89 fc             	mov    %rdi,%r12
    4854:	|               e8 e7 f0 ff ff       	callq  3940 <omp_get_num_threads@plt>
    4859:	|               48 63 d8             	movslq %eax,%rbx
    485c:	|               e8 2f f0 ff ff       	callq  3890 <omp_get_thread_num@plt>
    4861:	|               48 63 c8             	movslq %eax,%rcx
    4864:	|               49 8d 45 03          	lea    0x3(%r13),%rax
    4868:	|               48 29 e8             	sub    %rbp,%rax
    486b:	|               48 89 c2             	mov    %rax,%rdx
    486e:	|               48 8d 40 03          	lea    0x3(%rax),%rax
    4872:	|               48 0f 49 c2          	cmovns %rdx,%rax
    4876:	|               48 c1 f8 02          	sar    $0x2,%rax
    487a:	|               48 99                	cqto   
    487c:	|               48 f7 fb             	idiv   %rbx
    487f:	|               48 39 d1             	cmp    %rdx,%rcx
    4882:	|     /-------- 0f 8c b8 00 00 00    	jl     4940 <_ZN7pvectorIiE4fillEi._omp_fn.0+0x110>
    4888:	|  /--|-------> 48 0f af c8          	imul   %rax,%rcx
    488c:	|  |  |         48 01 ca             	add    %rcx,%rdx
    488f:	|  |  |         48 01 d0             	add    %rdx,%rax
    4892:	|  |  |         48 39 c2             	cmp    %rax,%rdx
    4895:	+--|--|-------- 0f 8d 93 00 00 00    	jge    492e <_ZN7pvectorIiE4fillEi._omp_fn.0+0xfe>
    489b:	|  |  |         48 c1 e2 02          	shl    $0x2,%rdx
    489f:	|  |  |         48 c1 e0 02          	shl    $0x2,%rax
/home/aliha951/forked_gapbs/gapbs/src/pvector.h:133
    #pragma omp parallel for
    48a3:	|  |  |         41 8b 7c 24 08       	mov    0x8(%r12),%edi
    48a8:	|  |  |         48 8d 74 15 00       	lea    0x0(%rbp,%rdx,1),%rsi
    48ad:	|  |  |         48 01 c5             	add    %rax,%rbp
    48b0:	|  |  |         48 29 d0             	sub    %rdx,%rax
    48b3:	|  |  |         48 83 e8 01          	sub    $0x1,%rax
    48b7:	|  |  |         4c 8d 46 01          	lea    0x1(%rsi),%r8
    48bb:	|  |  |         48 89 f1             	mov    %rsi,%rcx
    48be:	|  |  |         48 89 c2             	mov    %rax,%rdx
    48c1:	|  |  |         48 c1 ea 02          	shr    $0x2,%rdx
    48c5:	|  |  |         48 83 c2 01          	add    $0x1,%rdx
    48c9:	|  |  |         4c 39 c5             	cmp    %r8,%rbp
    48cc:	|  |  |         41 b8 01 00 00 00    	mov    $0x1,%r8d
    48d2:	|  |  |         49 0f 42 d0          	cmovb  %r8,%rdx
    48d6:	|  |  |  /----- 72 3c                	jb     4914 <_ZN7pvectorIiE4fillEi._omp_fn.0+0xe4>
    48d8:	|  |  |  |      48 83 f8 0b          	cmp    $0xb,%rax
    48dc:	|  |  |  +----- 76 36                	jbe    4914 <_ZN7pvectorIiE4fillEi._omp_fn.0+0xe4>
    48de:	|  |  |  |      48 89 d0             	mov    %rdx,%rax
    48e1:	|  |  |  |      66 0f 6e cf          	movd   %edi,%xmm1
    48e5:	|  |  |  |      48 c1 e8 02          	shr    $0x2,%rax
    48e9:	|  |  |  |      66 0f 70 c1 00       	pshufd $0x0,%xmm1,%xmm0
    48ee:	|  |  |  |      48 c1 e0 04          	shl    $0x4,%rax
    48f2:	|  |  |  |      48 01 f0             	add    %rsi,%rax
    48f5:	|  |  |  |      0f 1f 00             	nopl   (%rax)
/home/aliha951/forked_gapbs/gapbs/src/pvector.h:135 (discriminator 1)
      *ptr = init_val;
    48f8:	|  |  |  |  /-> 0f 11 01             	movups %xmm0,(%rcx)
    48fb:	|  |  |  |  |   48 83 c1 10          	add    $0x10,%rcx
    48ff:	|  |  |  |  |   48 39 c1             	cmp    %rax,%rcx
    4902:	|  |  |  |  \-- 75 f4                	jne    48f8 <_ZN7pvectorIiE4fillEi._omp_fn.0+0xc8>
    4904:	|  |  |  |      48 89 d0             	mov    %rdx,%rax
    4907:	|  |  |  |      48 83 e0 fc          	and    $0xfffffffffffffffc,%rax
    490b:	|  |  |  |      48 8d 34 86          	lea    (%rsi,%rax,4),%rsi
    490f:	|  |  |  |      48 39 c2             	cmp    %rax,%rdx
    4912:	+--|--|--|----- 74 1a                	je     492e <_ZN7pvectorIiE4fillEi._omp_fn.0+0xfe>
    4914:	|  |  |  \----> 48 8d 46 04          	lea    0x4(%rsi),%rax
/home/aliha951/forked_gapbs/gapbs/src/pvector.h:135
    4918:	|  |  |         89 3e                	mov    %edi,(%rsi)
    491a:	|  |  |         48 39 c5             	cmp    %rax,%rbp
    491d:	+--|--|-------- 76 0f                	jbe    492e <_ZN7pvectorIiE4fillEi._omp_fn.0+0xfe>
    491f:	|  |  |         48 8d 46 08          	lea    0x8(%rsi),%rax
    4923:	|  |  |         89 7e 04             	mov    %edi,0x4(%rsi)
    4926:	|  |  |         48 39 c5             	cmp    %rax,%rbp
    4929:	+--|--|-------- 76 03                	jbe    492e <_ZN7pvectorIiE4fillEi._omp_fn.0+0xfe>
    492b:	|  |  |         89 7e 08             	mov    %edi,0x8(%rsi)
/home/aliha951/forked_gapbs/gapbs/src/pvector.h:133
    #pragma omp parallel for
    492e:	\--|--|-------> 48 83 c4 08          	add    $0x8,%rsp
    4932:	   |  |         5b                   	pop    %rbx
    4933:	   |  |         5d                   	pop    %rbp
    4934:	   |  |         41 5c                	pop    %r12
    4936:	   |  |         41 5d                	pop    %r13
    4938:	   |  |         c3                   	retq   
    4939:	   |  |         0f 1f 80 00 00 00 00 	nopl   0x0(%rax)
    4940:	   |  \-------> 48 83 c0 01          	add    $0x1,%rax
/home/aliha951/forked_gapbs/gapbs/src/pvector.h:134
    for (T_* ptr=start_; ptr < end_size_; ptr++)
    4944:	   |            31 d2                	xor    %edx,%edx
    4946:	   \----------- e9 3d ff ff ff       	jmpq   4888 <_ZN7pvectorIiE4fillEi._omp_fn.0+0x58>
    494b:	                0f 1f 44 00 00       	nopl   0x0(%rax,%rax,1)

0000000000004950 <_ZN8CSRGraphIi10NodeWeightIiiELb1EE8GenIndexERK7pvectorIlEPS1_._omp_fn.0>:
_ZN8CSRGraphIi10NodeWeightIiiELb1EE8GenIndexERK7pvectorIlEPS1_._omp_fn.0():
/home/aliha951/forked_gapbs/gapbs/src/graph.h:245
  }

  static DestID_** GenIndex(const pvector<SGOffset> &offsets, DestID_* neighs) {
    NodeID_ length = offsets.size();
    DestID_** index = new DestID_*[length];
    #pragma omp parallel for
    4950:	             f3 0f 1e fa          	endbr64 
    4954:	             55                   	push   %rbp
    4955:	             53                   	push   %rbx
    4956:	             48 89 fb             	mov    %rdi,%rbx
    4959:	             48 83 ec 08          	sub    $0x8,%rsp
    495d:	             e8 de ef ff ff       	callq  3940 <omp_get_num_threads@plt>
    4962:	             89 c5                	mov    %eax,%ebp
    4964:	             e8 27 ef ff ff       	callq  3890 <omp_get_thread_num@plt>
    4969:	             89 c1                	mov    %eax,%ecx
    496b:	             8b 43 18             	mov    0x18(%rbx),%eax
    496e:	             99                   	cltd   
    496f:	             f7 fd                	idiv   %ebp
    4971:	             39 d1                	cmp    %edx,%ecx
    4973:	   /-------- 7c 43                	jl     49b8 <_ZN8CSRGraphIi10NodeWeightIiiELb1EE8GenIndexERK7pvectorIlEPS1_._omp_fn.0+0x68>
    4975:	/--|-------> 0f af c8             	imul   %eax,%ecx
    4978:	|  |         01 ca                	add    %ecx,%edx
    497a:	|  |         01 d0                	add    %edx,%eax
    497c:	|  |         39 c2                	cmp    %eax,%edx
    497e:	|  |  /----- 7d 2c                	jge    49ac <_ZN8CSRGraphIi10NodeWeightIiiELb1EE8GenIndexERK7pvectorIlEPS1_._omp_fn.0+0x5c>
_ZNK7pvectorIlEixEm():
/home/aliha951/forked_gapbs/gapbs/src/pvector.h:120
    return start_[n];
    4980:	|  |  |      48 8b 0b             	mov    (%rbx),%rcx
_ZN8CSRGraphIi10NodeWeightIiiELb1EE8GenIndexERK7pvectorIlEPS1_._omp_fn.0():
/home/aliha951/forked_gapbs/gapbs/src/graph.h:245
    4983:	|  |  |      4c 8b 43 10          	mov    0x10(%rbx),%r8
    4987:	|  |  |      48 63 d2             	movslq %edx,%rdx
    498a:	|  |  |      48 8b 7b 08          	mov    0x8(%rbx),%rdi
_ZNK7pvectorIlEixEm():
/home/aliha951/forked_gapbs/gapbs/src/pvector.h:120
    498e:	|  |  |      48 8b 31             	mov    (%rcx),%rsi
    4991:	|  |  |      0f 1f 80 00 00 00 00 	nopl   0x0(%rax)
_ZN8CSRGraphIi10NodeWeightIiiELb1EE8GenIndexERK7pvectorIlEPS1_._omp_fn.0():
/home/aliha951/forked_gapbs/gapbs/src/graph.h:247 (discriminator 1)
    for (NodeID_ n=0; n < length; n++)
      index[n] = neighs + offsets[n];
    4998:	|  |  |  /-> 48 8b 0c d6          	mov    (%rsi,%rdx,8),%rcx
    499c:	|  |  |  |   48 8d 0c cf          	lea    (%rdi,%rcx,8),%rcx
    49a0:	|  |  |  |   49 89 0c d0          	mov    %rcx,(%r8,%rdx,8)
    49a4:	|  |  |  |   48 83 c2 01          	add    $0x1,%rdx
    49a8:	|  |  |  |   39 d0                	cmp    %edx,%eax
    49aa:	|  |  |  \-- 7f ec                	jg     4998 <_ZN8CSRGraphIi10NodeWeightIiiELb1EE8GenIndexERK7pvectorIlEPS1_._omp_fn.0+0x48>
/home/aliha951/forked_gapbs/gapbs/src/graph.h:245
    #pragma omp parallel for
    49ac:	|  |  \----> 48 83 c4 08          	add    $0x8,%rsp
    49b0:	|  |         5b                   	pop    %rbx
    49b1:	|  |         5d                   	pop    %rbp
    49b2:	|  |         c3                   	retq   
    49b3:	|  |         0f 1f 44 00 00       	nopl   0x0(%rax,%rax,1)
    49b8:	|  \-------> 83 c0 01             	add    $0x1,%eax
    49bb:	|            31 d2                	xor    %edx,%edx
    49bd:	\----------- eb b6                	jmp    4975 <_ZN8CSRGraphIi10NodeWeightIiiELb1EE8GenIndexERK7pvectorIlEPS1_._omp_fn.0+0x25>
    49bf:	             90                   	nop

00000000000049c0 <_ZN7pvectorI8EdgePairIi10NodeWeightIiiEEE7reserveEm._omp_fn.0>:
_ZN7pvectorI8EdgePairIi10NodeWeightIiiEEE7reserveEm._omp_fn.0():
/home/aliha951/forked_gapbs/gapbs/src/pvector.h:86
      #pragma omp parallel for
    49c0:	             f3 0f 1e fa          	endbr64 
    49c4:	             41 55                	push   %r13
    49c6:	             41 54                	push   %r12
    49c8:	             55                   	push   %rbp
    49c9:	             53                   	push   %rbx
    49ca:	             48 83 ec 08          	sub    $0x8,%rsp
    49ce:	             48 8b 07             	mov    (%rdi),%rax
_ZNK7pvectorI8EdgePairIi10NodeWeightIiiEEE4sizeEv():
/home/aliha951/forked_gapbs/gapbs/src/pvector.h:143
  size_t capacity() const {
    return end_capacity_ - start_;
  }

  size_t size() const {
    return end_size_ - start_;
    49d1:	             48 8b 28             	mov    (%rax),%rbp
    49d4:	             48 8b 58 08          	mov    0x8(%rax),%rbx
    49d8:	             48 b8 ab aa aa aa aa 	movabs $0xaaaaaaaaaaaaaaab,%rax
    49df:	aa aa aa 
    49e2:	             48 29 eb             	sub    %rbp,%rbx
    49e5:	             48 c1 fb 02          	sar    $0x2,%rbx
    49e9:	             48 0f af d8          	imul   %rax,%rbx
    49ed:	             48 85 db             	test   %rbx,%rbx
    49f0:	/----------- 74 68                	je     4a5a <_ZN7pvectorI8EdgePairIi10NodeWeightIiiEEE7reserveEm._omp_fn.0+0x9a>
    49f2:	|            49 89 fc             	mov    %rdi,%r12
    49f5:	|            e8 46 ef ff ff       	callq  3940 <omp_get_num_threads@plt>
    49fa:	|            41 89 c5             	mov    %eax,%r13d
    49fd:	|            e8 8e ee ff ff       	callq  3890 <omp_get_thread_num@plt>
    4a02:	|            49 63 f5             	movslq %r13d,%rsi
    4a05:	|            31 d2                	xor    %edx,%edx
    4a07:	|            48 63 c8             	movslq %eax,%rcx
    4a0a:	|            48 89 d8             	mov    %rbx,%rax
    4a0d:	|            48 f7 f6             	div    %rsi
    4a10:	|            48 39 d1             	cmp    %rdx,%rcx
    4a13:	|     /----- 72 53                	jb     4a68 <_ZN7pvectorI8EdgePairIi10NodeWeightIiiEEE7reserveEm._omp_fn.0+0xa8>
    4a15:	|  /--|----> 48 0f af c8          	imul   %rax,%rcx
    4a19:	|  |  |      48 01 ca             	add    %rcx,%rdx
    4a1c:	|  |  |      48 01 d0             	add    %rdx,%rax
    4a1f:	|  |  |      48 39 c2             	cmp    %rax,%rdx
    4a22:	+--|--|----- 73 36                	jae    4a5a <_ZN7pvectorI8EdgePairIi10NodeWeightIiiEEE7reserveEm._omp_fn.0+0x9a>
    4a24:	|  |  |      48 8d 14 52          	lea    (%rdx,%rdx,2),%rdx
    4a28:	|  |  |      48 8d 34 40          	lea    (%rax,%rax,2),%rsi
_ZN7pvectorI8EdgePairIi10NodeWeightIiiEEE7reserveEm._omp_fn.0():
/home/aliha951/forked_gapbs/gapbs/src/pvector.h:86
      #pragma omp parallel for
    4a2c:	|  |  |      49 8b 4c 24 08       	mov    0x8(%r12),%rcx
    4a31:	|  |  |      48 c1 e2 02          	shl    $0x2,%rdx
    4a35:	|  |  |      48 c1 e6 02          	shl    $0x2,%rsi
    4a39:	|  |  |      0f 1f 80 00 00 00 00 	nopl   0x0(%rax)
/home/aliha951/forked_gapbs/gapbs/src/pvector.h:88 (discriminator 1)
        new_range[i] = start_[i];
    4a40:	|  |  |  /-> 48 8b 44 15 00       	mov    0x0(%rbp,%rdx,1),%rax
    4a45:	|  |  |  |   48 89 04 11          	mov    %rax,(%rcx,%rdx,1)
    4a49:	|  |  |  |   8b 44 15 08          	mov    0x8(%rbp,%rdx,1),%eax
    4a4d:	|  |  |  |   89 44 11 08          	mov    %eax,0x8(%rcx,%rdx,1)
    4a51:	|  |  |  |   48 83 c2 0c          	add    $0xc,%rdx
    4a55:	|  |  |  |   48 39 d6             	cmp    %rdx,%rsi
    4a58:	|  |  |  \-- 75 e6                	jne    4a40 <_ZN7pvectorI8EdgePairIi10NodeWeightIiiEEE7reserveEm._omp_fn.0+0x80>
/home/aliha951/forked_gapbs/gapbs/src/pvector.h:86
      #pragma omp parallel for
    4a5a:	\--|--|----> 48 83 c4 08          	add    $0x8,%rsp
    4a5e:	   |  |      5b                   	pop    %rbx
    4a5f:	   |  |      5d                   	pop    %rbp
    4a60:	   |  |      41 5c                	pop    %r12
    4a62:	   |  |      41 5d                	pop    %r13
    4a64:	   |  |      c3                   	retq   
    4a65:	   |  |      0f 1f 00             	nopl   (%rax)
    4a68:	   |  \----> 48 83 c0 01          	add    $0x1,%rax
_ZNK7pvectorI8EdgePairIi10NodeWeightIiiEEE4sizeEv():
/home/aliha951/forked_gapbs/gapbs/src/pvector.h:143
    return end_size_ - start_;
    4a6c:	   |         31 d2                	xor    %edx,%edx
    4a6e:	   \-------- eb a5                	jmp    4a15 <_ZN7pvectorI8EdgePairIi10NodeWeightIiiEEE7reserveEm._omp_fn.0+0x55>

0000000000004a70 <_ZN11BuilderBaseIi10NodeWeightIiiEiLb1EE12CountDegreesERK7pvectorI8EdgePairIiS1_EEb._omp_fn.0>:
_ZN11BuilderBaseIi10NodeWeightIiiEiLb1EE12CountDegreesERK7pvectorI8EdgePairIiS1_EEb._omp_fn.0():
/home/aliha951/forked_gapbs/gapbs/src/builder.h:82
    return max_seen;
  }

  pvector<NodeID_> CountDegrees(const EdgeList &el, bool transpose) {
    pvector<NodeID_> degrees(num_nodes_, 0);
    #pragma omp parallel for
    4a70:	                   f3 0f 1e fa          	endbr64 
    4a74:	                   41 55                	push   %r13
    4a76:	                   41 54                	push   %r12
    4a78:	                   55                   	push   %rbp
    4a79:	                   53                   	push   %rbx
    4a7a:	                   48 83 ec 08          	sub    $0x8,%rsp
/home/aliha951/forked_gapbs/gapbs/src/builder.h:83
    for (auto it = el.begin(); it < el.end(); it++) {
    4a7e:	                   48 8b 47 08          	mov    0x8(%rdi),%rax
_ZNK7pvectorI8EdgePairIi10NodeWeightIiiEEE5beginEv():
/home/aliha951/forked_gapbs/gapbs/src/pvector.h:147
  }

  iterator begin() const {
    return start_;
    4a82:	                   4c 8b 28             	mov    (%rax),%r13
_ZNK7pvectorI8EdgePairIi10NodeWeightIiiEEE3endEv():
/home/aliha951/forked_gapbs/gapbs/src/pvector.h:151
  }

  iterator end() const {
    return end_size_;
    4a85:	                   4c 8b 60 08          	mov    0x8(%rax),%r12
    4a89:	                   4d 39 ec             	cmp    %r13,%r12
    4a8c:	/----------------- 0f 86 a2 00 00 00    	jbe    4b34 <_ZN11BuilderBaseIi10NodeWeightIiiEiLb1EE12CountDegreesERK7pvectorI8EdgePairIiS1_EEb._omp_fn.0+0xc4>
    4a92:	|                  48 89 fb             	mov    %rdi,%rbx
    4a95:	|                  e8 a6 ee ff ff       	callq  3940 <omp_get_num_threads@plt>
    4a9a:	|                  48 63 e8             	movslq %eax,%rbp
    4a9d:	|                  e8 ee ed ff ff       	callq  3890 <omp_get_thread_num@plt>
    4aa2:	|                  49 8d 4c 24 0b       	lea    0xb(%r12),%rcx
    4aa7:	|                  48 ba ab aa aa aa aa 	movabs $0x2aaaaaaaaaaaaaab,%rdx
    4aae:	aa aa 2a 
    4ab1:	|                  4c 29 e9             	sub    %r13,%rcx
    4ab4:	|                  48 63 f0             	movslq %eax,%rsi
    4ab7:	|                  48 89 c8             	mov    %rcx,%rax
    4aba:	|                  48 c1 f9 3f          	sar    $0x3f,%rcx
    4abe:	|                  48 f7 ea             	imul   %rdx
    4ac1:	|                  48 89 d0             	mov    %rdx,%rax
    4ac4:	|                  48 d1 f8             	sar    %rax
    4ac7:	|                  48 29 c8             	sub    %rcx,%rax
    4aca:	|                  48 99                	cqto   
    4acc:	|                  48 f7 fd             	idiv   %rbp
    4acf:	|                  48 39 d6             	cmp    %rdx,%rsi
    4ad2:	|        /-------- 7c 6c                	jl     4b40 <_ZN11BuilderBaseIi10NodeWeightIiiEiLb1EE12CountDegreesERK7pvectorI8EdgePairIiS1_EEb._omp_fn.0+0xd0>
    4ad4:	|     /--|-------> 48 0f af f0          	imul   %rax,%rsi
    4ad8:	|     |  |         48 01 f2             	add    %rsi,%rdx
    4adb:	|     |  |         48 01 d0             	add    %rdx,%rax
    4ade:	|     |  |         48 39 c2             	cmp    %rax,%rdx
    4ae1:	+-----|--|-------- 7d 51                	jge    4b34 <_ZN11BuilderBaseIi10NodeWeightIiiEiLb1EE12CountDegreesERK7pvectorI8EdgePairIiS1_EEb._omp_fn.0+0xc4>
    4ae3:	|     |  |         48 8d 14 52          	lea    (%rdx,%rdx,2),%rdx
    4ae7:	|     |  |         48 8d 04 40          	lea    (%rax,%rax,2),%rax
    4aeb:	|     |  |         80 7b 18 00          	cmpb   $0x0,0x18(%rbx)
_ZN11BuilderBaseIi10NodeWeightIiiEiLb1EE12CountDegreesERK7pvectorI8EdgePairIiS1_EEb._omp_fn.0():
/home/aliha951/forked_gapbs/gapbs/src/builder.h:82
    #pragma omp parallel for
    4aef:	|     |  |         48 8b 3b             	mov    (%rbx),%rdi
    4af2:	|     |  |         49 8d 54 95 00       	lea    0x0(%r13,%rdx,4),%rdx
    4af7:	|     |  |         4d 8d 44 85 00       	lea    0x0(%r13,%rax,4),%r8
    4afc:	|  /--|--|-------- 75 4a                	jne    4b48 <_ZN11BuilderBaseIi10NodeWeightIiiEiLb1EE12CountDegreesERK7pvectorI8EdgePairIiS1_EEb._omp_fn.0+0xd8>
    4afe:	|  |  |  |         66 90                	xchg   %ax,%ax
_ZN7pvectorIiEixEm():
/home/aliha951/forked_gapbs/gapbs/src/pvector.h:116
    return start_[n];
    4b00:	|  |  |  |  /----> 48 8b 4b 10          	mov    0x10(%rbx),%rcx
_ZN11BuilderBaseIi10NodeWeightIiiEiLb1EE12CountDegreesERK7pvectorI8EdgePairIiS1_EEb._omp_fn.0():
/home/aliha951/forked_gapbs/gapbs/src/builder.h:84
      Edge e = *it;
    4b04:	|  |  |  |  |      48 63 42 04          	movslq 0x4(%rdx),%rax
/home/aliha951/forked_gapbs/gapbs/src/builder.h:86
      if (symmetrize_ || (!symmetrize_ && !transpose))
        fetch_and_add(degrees[e.u], 1);
    4b08:	|  |  |  |  |      48 63 32             	movslq (%rdx),%rsi
_Z13fetch_and_addIiiET_RS0_T0_():
/home/aliha951/forked_gapbs/gapbs/src/platform_atomics.h:26

    // gcc/clang/icc instrinsics

    template<typename T, typename U>
    T fetch_and_add(T &x, U inc) {
      return __sync_fetch_and_add(&x, inc);
    4b0b:	|  |  |  |  |      48 8b 09             	mov    (%rcx),%rcx
    4b0e:	|  |  |  |  |      f0 83 04 b1 01       	lock addl $0x1,(%rcx,%rsi,4)
_ZN11BuilderBaseIi10NodeWeightIiiEiLb1EE12CountDegreesERK7pvectorI8EdgePairIiS1_EEb._omp_fn.0():
/home/aliha951/forked_gapbs/gapbs/src/builder.h:87
      if ((symmetrize_ && !in_place_) || (!symmetrize_ && transpose))
    4b13:	|  |  |  |  |      80 7f 08 00          	cmpb   $0x0,0x8(%rdi)
    4b17:	|  |  |  |  |  /-- 74 12                	je     4b2b <_ZN11BuilderBaseIi10NodeWeightIiiEiLb1EE12CountDegreesERK7pvectorI8EdgePairIiS1_EEb._omp_fn.0+0xbb>
    4b19:	|  |  |  |  |  |   80 7f 0a 00          	cmpb   $0x0,0xa(%rdi)
    4b1d:	|  |  |  |  |  +-- 75 0c                	jne    4b2b <_ZN11BuilderBaseIi10NodeWeightIiiEiLb1EE12CountDegreesERK7pvectorI8EdgePairIiS1_EEb._omp_fn.0+0xbb>
_ZN7pvectorIiEixEm():
/home/aliha951/forked_gapbs/gapbs/src/pvector.h:116
    4b1f:	|  |  |  |  |  |   48 8b 4b 10          	mov    0x10(%rbx),%rcx
_Z13fetch_and_addIiiET_RS0_T0_():
/home/aliha951/forked_gapbs/gapbs/src/platform_atomics.h:26
    4b23:	|  |  |  |  |  |   48 8b 09             	mov    (%rcx),%rcx
    4b26:	|  |  |  |  |  |   f0 83 04 81 01       	lock addl $0x1,(%rcx,%rax,4)
    4b2b:	|  |  |  |  |  \-> 48 83 c2 0c          	add    $0xc,%rdx
    4b2f:	|  |  |  |  |      49 39 d0             	cmp    %rdx,%r8
    4b32:	|  |  |  |  \----- 77 cc                	ja     4b00 <_ZN11BuilderBaseIi10NodeWeightIiiEiLb1EE12CountDegreesERK7pvectorI8EdgePairIiS1_EEb._omp_fn.0+0x90>
_ZN11BuilderBaseIi10NodeWeightIiiEiLb1EE12CountDegreesERK7pvectorI8EdgePairIiS1_EEb._omp_fn.0():
/home/aliha951/forked_gapbs/gapbs/src/builder.h:82
    #pragma omp parallel for
    4b34:	>--|--|--|-------> 48 83 c4 08          	add    $0x8,%rsp
    4b38:	|  |  |  |         5b                   	pop    %rbx
    4b39:	|  |  |  |         5d                   	pop    %rbp
    4b3a:	|  |  |  |         41 5c                	pop    %r12
    4b3c:	|  |  |  |         41 5d                	pop    %r13
    4b3e:	|  |  |  |         c3                   	retq   
    4b3f:	|  |  |  |         90                   	nop
    4b40:	|  |  |  \-------> 48 83 c0 01          	add    $0x1,%rax
_ZNK7pvectorI8EdgePairIi10NodeWeightIiiEEE3endEv():
/home/aliha951/forked_gapbs/gapbs/src/pvector.h:151
    return end_size_;
    4b44:	|  |  |            31 d2                	xor    %edx,%edx
    4b46:	|  |  \----------- eb 8c                	jmp    4ad4 <_ZN11BuilderBaseIi10NodeWeightIiiEiLb1EE12CountDegreesERK7pvectorI8EdgePairIiS1_EEb._omp_fn.0+0x64>
_ZN11BuilderBaseIi10NodeWeightIiiEiLb1EE12CountDegreesERK7pvectorI8EdgePairIiS1_EEb._omp_fn.0():
/home/aliha951/forked_gapbs/gapbs/src/builder.h:85
      if (symmetrize_ || (!symmetrize_ && !transpose))
    4b48:	|  >-------------> 80 7f 08 00          	cmpb   $0x0,0x8(%rdi)
/home/aliha951/forked_gapbs/gapbs/src/builder.h:84
      Edge e = *it;
    4b4c:	|  |               48 63 42 04          	movslq 0x4(%rdx),%rax
/home/aliha951/forked_gapbs/gapbs/src/builder.h:85
      if (symmetrize_ || (!symmetrize_ && !transpose))
    4b50:	|  |        /----- 74 1b                	je     4b6d <_ZN11BuilderBaseIi10NodeWeightIiiEiLb1EE12CountDegreesERK7pvectorI8EdgePairIiS1_EEb._omp_fn.0+0xfd>
_ZN7pvectorIiEixEm():
/home/aliha951/forked_gapbs/gapbs/src/pvector.h:116
    return start_[n];
    4b52:	|  |        |      48 8b 4b 10          	mov    0x10(%rbx),%rcx
_ZN11BuilderBaseIi10NodeWeightIiiEiLb1EE12CountDegreesERK7pvectorI8EdgePairIiS1_EEb._omp_fn.0():
/home/aliha951/forked_gapbs/gapbs/src/builder.h:86
        fetch_and_add(degrees[e.u], 1);
    4b56:	|  |        |      48 63 32             	movslq (%rdx),%rsi
_Z13fetch_and_addIiiET_RS0_T0_():
/home/aliha951/forked_gapbs/gapbs/src/platform_atomics.h:26
    4b59:	|  |        |      48 8b 09             	mov    (%rcx),%rcx
    4b5c:	|  |        |      f0 83 04 b1 01       	lock addl $0x1,(%rcx,%rsi,4)
_ZN11BuilderBaseIi10NodeWeightIiiEiLb1EE12CountDegreesERK7pvectorI8EdgePairIiS1_EEb._omp_fn.0():
/home/aliha951/forked_gapbs/gapbs/src/builder.h:87
      if ((symmetrize_ && !in_place_) || (!symmetrize_ && transpose))
    4b61:	|  |        |      80 7f 08 00          	cmpb   $0x0,0x8(%rdi)
    4b65:	|  |        +----- 74 06                	je     4b6d <_ZN11BuilderBaseIi10NodeWeightIiiEiLb1EE12CountDegreesERK7pvectorI8EdgePairIiS1_EEb._omp_fn.0+0xfd>
/home/aliha951/forked_gapbs/gapbs/src/builder.h:87 (discriminator 1)
    4b67:	|  |        |      80 7f 0a 00          	cmpb   $0x0,0xa(%rdi)
    4b6b:	|  |        |  /-- 75 0c                	jne    4b79 <_ZN11BuilderBaseIi10NodeWeightIiiEiLb1EE12CountDegreesERK7pvectorI8EdgePairIiS1_EEb._omp_fn.0+0x109>
_ZN7pvectorIiEixEm():
/home/aliha951/forked_gapbs/gapbs/src/pvector.h:116
    4b6d:	|  |        \--|-> 48 8b 4b 10          	mov    0x10(%rbx),%rcx
_Z13fetch_and_addIiiET_RS0_T0_():
/home/aliha951/forked_gapbs/gapbs/src/platform_atomics.h:26
    4b71:	|  |           |   48 8b 09             	mov    (%rcx),%rcx
    4b74:	|  |           |   f0 83 04 81 01       	lock addl $0x1,(%rcx,%rax,4)
    4b79:	|  |           \-> 48 83 c2 0c          	add    $0xc,%rdx
    4b7d:	|  |               49 39 d0             	cmp    %rdx,%r8
    4b80:	|  \-------------- 77 c6                	ja     4b48 <_ZN11BuilderBaseIi10NodeWeightIiiEiLb1EE12CountDegreesERK7pvectorI8EdgePairIiS1_EEb._omp_fn.0+0xd8>
    4b82:	\----------------- eb b0                	jmp    4b34 <_ZN11BuilderBaseIi10NodeWeightIiiEiLb1EE12CountDegreesERK7pvectorI8EdgePairIiS1_EEb._omp_fn.0+0xc4>
_ZN11BuilderBaseIi10NodeWeightIiiEiLb1EE12CountDegreesERK7pvectorI8EdgePairIiS1_EEb._omp_fn.0():
/home/aliha951/forked_gapbs/gapbs/src/platform_atomics.h:26
    4b84:	                   66 66 2e 0f 1f 84 00 	data16 nopw %cs:0x0(%rax,%rax,1)
    4b8b:	00 00 00 00 
    4b8f:	                   90                   	nop

0000000000004b90 <_ZN11BuilderBaseIi10NodeWeightIiiEiLb1EE17ParallelPrefixSumERK7pvectorIiE._omp_fn.0>:
_ZN11BuilderBaseIi10NodeWeightIiiEiLb1EE17ParallelPrefixSumERK7pvectorIiE._omp_fn.0():
/home/aliha951/forked_gapbs/gapbs/src/builder.h:110
  static
  pvector<SGOffset> ParallelPrefixSum(const pvector<NodeID_> &degrees) {
    const size_t block_size = 1<<20;
    const size_t num_blocks = (degrees.size() + block_size - 1) / block_size;
    pvector<SGOffset> local_sums(num_blocks);
    #pragma omp parallel for
    4b90:	                         f3 0f 1e fa          	endbr64 
    4b94:	                         41 54                	push   %r12
    4b96:	                         55                   	push   %rbp
    4b97:	                         53                   	push   %rbx
    4b98:	                         48 8b 5f 08          	mov    0x8(%rdi),%rbx
    4b9c:	                         48 85 db             	test   %rbx,%rbx
    4b9f:	/----------------------- 0f 84 4d 01 00 00    	je     4cf2 <_ZN11BuilderBaseIi10NodeWeightIiiEiLb1EE17ParallelPrefixSumERK7pvectorIiE._omp_fn.0+0x162>
    4ba5:	|                        49 89 fc             	mov    %rdi,%r12
    4ba8:	|                        e8 93 ed ff ff       	callq  3940 <omp_get_num_threads@plt>
    4bad:	|                        89 c5                	mov    %eax,%ebp
    4baf:	|                        e8 dc ec ff ff       	callq  3890 <omp_get_thread_num@plt>
    4bb4:	|                        48 63 cd             	movslq %ebp,%rcx
    4bb7:	|                        31 d2                	xor    %edx,%edx
    4bb9:	|                        48 63 f0             	movslq %eax,%rsi
    4bbc:	|                        48 89 d8             	mov    %rbx,%rax
    4bbf:	|                        48 f7 f1             	div    %rcx
    4bc2:	|                        48 39 d6             	cmp    %rdx,%rsi
    4bc5:	|     /----------------- 0f 82 3d 01 00 00    	jb     4d08 <_ZN11BuilderBaseIi10NodeWeightIiiEiLb1EE17ParallelPrefixSumERK7pvectorIiE._omp_fn.0+0x178>
    4bcb:	|  /--|----------------> 48 0f af f0          	imul   %rax,%rsi
    4bcf:	|  |  |                  48 01 d6             	add    %rdx,%rsi
    4bd2:	|  |  |                  48 01 f0             	add    %rsi,%rax
    4bd5:	|  |  |                  48 39 c6             	cmp    %rax,%rsi
    4bd8:	+--|--|----------------- 0f 83 14 01 00 00    	jae    4cf2 <_ZN11BuilderBaseIi10NodeWeightIiiEiLb1EE17ParallelPrefixSumERK7pvectorIiE._omp_fn.0+0x162>
/home/aliha951/forked_gapbs/gapbs/src/builder.h:113
    for (size_t block=0; block < num_blocks; block++) {
      SGOffset lsum = 0;
      size_t block_end = std::min((block + 1) * block_size, degrees.size());
    4bde:	|  |  |                  49 8b 14 24          	mov    (%r12),%rdx
    4be2:	|  |  |                  49 89 f0             	mov    %rsi,%r8
/home/aliha951/forked_gapbs/gapbs/src/builder.h:115
      for (size_t i=block * block_size; i < block_end; i++)
        lsum += degrees[i];
    4be5:	|  |  |                  66 0f ef e4          	pxor   %xmm4,%xmm4
    4be9:	|  |  |                  49 c1 e0 14          	shl    $0x14,%r8
_ZNK7pvectorIiE4sizeEv():
/home/aliha951/forked_gapbs/gapbs/src/pvector.h:143
    return end_size_ - start_;
    4bed:	|  |  |                  4c 8b 1a             	mov    (%rdx),%r11
    4bf0:	|  |  |                  4c 8b 52 08          	mov    0x8(%rdx),%r10
_ZN7pvectorIlEixEm():
/home/aliha951/forked_gapbs/gapbs/src/pvector.h:116
    return start_[n];
    4bf4:	|  |  |                  49 8b 54 24 10       	mov    0x10(%r12),%rdx
_ZNK7pvectorIiE4sizeEv():
/home/aliha951/forked_gapbs/gapbs/src/pvector.h:143
    return end_size_ - start_;
    4bf9:	|  |  |                  4d 29 da             	sub    %r11,%r10
_ZN7pvectorIlEixEm():
/home/aliha951/forked_gapbs/gapbs/src/pvector.h:116
    return start_[n];
    4bfc:	|  |  |                  48 8b 12             	mov    (%rdx),%rdx
_ZNK7pvectorIiE4sizeEv():
/home/aliha951/forked_gapbs/gapbs/src/pvector.h:143
    return end_size_ - start_;
    4bff:	|  |  |                  49 c1 fa 02          	sar    $0x2,%r10
    4c03:	|  |  |                  4c 8d 0c f2          	lea    (%rdx,%rsi,8),%r9
    4c07:	|  |  |                  48 c1 e6 16          	shl    $0x16,%rsi
    4c0b:	|  |  |                  48 8d 2c c2          	lea    (%rdx,%rax,8),%rbp
    4c0f:	|  |  |                  4c 01 de             	add    %r11,%rsi
    4c12:	|  |  |                  66 0f 1f 44 00 00    	nopw   0x0(%rax,%rax,1)
/home/aliha951/forked_gapbs/gapbs/src/pvector.h:142
  size_t size() const {
    4c18:	|  |  |  /-------------> 4c 89 c1             	mov    %r8,%rcx
_ZN11BuilderBaseIi10NodeWeightIiiEiLb1EE17ParallelPrefixSumERK7pvectorIiE._omp_fn.0():
/home/aliha951/forked_gapbs/gapbs/src/builder.h:113
      size_t block_end = std::min((block + 1) * block_size, degrees.size());
    4c1b:	|  |  |  |               49 81 c0 00 00 10 00 	add    $0x100000,%r8
    4c22:	|  |  |  |               4c 89 d3             	mov    %r10,%rbx
    4c25:	|  |  |  |               4d 39 d0             	cmp    %r10,%r8
    4c28:	|  |  |  |               49 0f 46 d8          	cmovbe %r8,%rbx
/home/aliha951/forked_gapbs/gapbs/src/builder.h:114
      for (size_t i=block * block_size; i < block_end; i++)
    4c2c:	|  |  |  |               48 39 cb             	cmp    %rcx,%rbx
    4c2f:	|  |  |  |  /----------- 0f 86 cb 00 00 00    	jbe    4d00 <_ZN11BuilderBaseIi10NodeWeightIiiEiLb1EE17ParallelPrefixSumERK7pvectorIiE._omp_fn.0+0x170>
    4c35:	|  |  |  |  |            48 89 df             	mov    %rbx,%rdi
    4c38:	|  |  |  |  |            48 29 cf             	sub    %rcx,%rdi
    4c3b:	|  |  |  |  |            48 8d 47 ff          	lea    -0x1(%rdi),%rax
    4c3f:	|  |  |  |  |            48 83 f8 02          	cmp    $0x2,%rax
    4c43:	|  |  |  |  |  /-------- 0f 86 bb 00 00 00    	jbe    4d04 <_ZN11BuilderBaseIi10NodeWeightIiiEiLb1EE17ParallelPrefixSumERK7pvectorIiE._omp_fn.0+0x174>
    4c49:	|  |  |  |  |  |         48 89 fa             	mov    %rdi,%rdx
    4c4c:	|  |  |  |  |  |         48 89 f0             	mov    %rsi,%rax
    4c4f:	|  |  |  |  |  |         66 0f ef c9          	pxor   %xmm1,%xmm1
    4c53:	|  |  |  |  |  |         48 c1 ea 02          	shr    $0x2,%rdx
    4c57:	|  |  |  |  |  |         48 c1 e2 04          	shl    $0x4,%rdx
    4c5b:	|  |  |  |  |  |         48 01 f2             	add    %rsi,%rdx
    4c5e:	|  |  |  |  |  |         66 90                	xchg   %ax,%ax
/home/aliha951/forked_gapbs/gapbs/src/builder.h:115 (discriminator 2)
        lsum += degrees[i];
    4c60:	|  |  |  |  |  |     /-> f3 0f 6f 00          	movdqu (%rax),%xmm0
    4c64:	|  |  |  |  |  |     |   66 0f 6f d4          	movdqa %xmm4,%xmm2
    4c68:	|  |  |  |  |  |     |   48 83 c0 10          	add    $0x10,%rax
    4c6c:	|  |  |  |  |  |     |   66 0f 66 d0          	pcmpgtd %xmm0,%xmm2
    4c70:	|  |  |  |  |  |     |   66 0f 6f d8          	movdqa %xmm0,%xmm3
    4c74:	|  |  |  |  |  |     |   66 0f 62 da          	punpckldq %xmm2,%xmm3
    4c78:	|  |  |  |  |  |     |   66 0f 6a c2          	punpckhdq %xmm2,%xmm0
    4c7c:	|  |  |  |  |  |     |   66 0f d4 cb          	paddq  %xmm3,%xmm1
    4c80:	|  |  |  |  |  |     |   66 0f d4 c8          	paddq  %xmm0,%xmm1
/home/aliha951/forked_gapbs/gapbs/src/builder.h:114 (discriminator 2)
      for (size_t i=block * block_size; i < block_end; i++)
    4c84:	|  |  |  |  |  |     |   48 39 d0             	cmp    %rdx,%rax
    4c87:	|  |  |  |  |  |     \-- 75 d7                	jne    4c60 <_ZN11BuilderBaseIi10NodeWeightIiiEiLb1EE17ParallelPrefixSumERK7pvectorIiE._omp_fn.0+0xd0>
    4c89:	|  |  |  |  |  |         66 0f 6f c1          	movdqa %xmm1,%xmm0
    4c8d:	|  |  |  |  |  |         48 89 fa             	mov    %rdi,%rdx
    4c90:	|  |  |  |  |  |         66 0f 73 d8 08       	psrldq $0x8,%xmm0
    4c95:	|  |  |  |  |  |         48 83 e2 fc          	and    $0xfffffffffffffffc,%rdx
    4c99:	|  |  |  |  |  |         66 0f d4 c1          	paddq  %xmm1,%xmm0
    4c9d:	|  |  |  |  |  |         48 01 d1             	add    %rdx,%rcx
    4ca0:	|  |  |  |  |  |         66 48 0f 7e c0       	movq   %xmm0,%rax
    4ca5:	|  |  |  |  |  |         48 39 fa             	cmp    %rdi,%rdx
    4ca8:	|  |  |  |  |  |     /-- 74 31                	je     4cdb <_ZN11BuilderBaseIi10NodeWeightIiiEiLb1EE17ParallelPrefixSumERK7pvectorIiE._omp_fn.0+0x14b>
/home/aliha951/forked_gapbs/gapbs/src/builder.h:115
        lsum += degrees[i];
    4caa:	|  |  |  |  |  |  /--|-> 49 63 3c 8b          	movslq (%r11,%rcx,4),%rdi
_ZNK7pvectorIiEixEm():
/home/aliha951/forked_gapbs/gapbs/src/pvector.h:120
    return start_[n];
    4cae:	|  |  |  |  |  |  |  |   48 8d 14 8d 00 00 00 	lea    0x0(,%rcx,4),%rdx
    4cb5:	00 
_ZN11BuilderBaseIi10NodeWeightIiiEiLb1EE17ParallelPrefixSumERK7pvectorIiE._omp_fn.0():
/home/aliha951/forked_gapbs/gapbs/src/builder.h:115
    4cb6:	|  |  |  |  |  |  |  |   48 01 f8             	add    %rdi,%rax
/home/aliha951/forked_gapbs/gapbs/src/builder.h:114
      for (size_t i=block * block_size; i < block_end; i++)
    4cb9:	|  |  |  |  |  |  |  |   48 8d 79 01          	lea    0x1(%rcx),%rdi
    4cbd:	|  |  |  |  |  |  |  |   48 39 df             	cmp    %rbx,%rdi
    4cc0:	|  |  |  |  |  |  |  +-- 73 19                	jae    4cdb <_ZN11BuilderBaseIi10NodeWeightIiiEiLb1EE17ParallelPrefixSumERK7pvectorIiE._omp_fn.0+0x14b>
/home/aliha951/forked_gapbs/gapbs/src/builder.h:115
        lsum += degrees[i];
    4cc2:	|  |  |  |  |  |  |  |   49 63 7c 13 04       	movslq 0x4(%r11,%rdx,1),%rdi
/home/aliha951/forked_gapbs/gapbs/src/builder.h:114
      for (size_t i=block * block_size; i < block_end; i++)
    4cc7:	|  |  |  |  |  |  |  |   48 83 c1 02          	add    $0x2,%rcx
/home/aliha951/forked_gapbs/gapbs/src/builder.h:115
        lsum += degrees[i];
    4ccb:	|  |  |  |  |  |  |  |   48 01 f8             	add    %rdi,%rax
/home/aliha951/forked_gapbs/gapbs/src/builder.h:114
      for (size_t i=block * block_size; i < block_end; i++)
    4cce:	|  |  |  |  |  |  |  |   48 39 cb             	cmp    %rcx,%rbx
    4cd1:	|  |  |  |  |  |  |  +-- 76 08                	jbe    4cdb <_ZN11BuilderBaseIi10NodeWeightIiiEiLb1EE17ParallelPrefixSumERK7pvectorIiE._omp_fn.0+0x14b>
/home/aliha951/forked_gapbs/gapbs/src/builder.h:115
        lsum += degrees[i];
    4cd3:	|  |  |  |  |  |  |  |   49 63 54 13 08       	movslq 0x8(%r11,%rdx,1),%rdx
    4cd8:	|  |  |  |  |  |  |  |   48 01 d0             	add    %rdx,%rax
/home/aliha951/forked_gapbs/gapbs/src/builder.h:116
      local_sums[block] = lsum;
    4cdb:	|  |  |  |  |  |  |  >-> 49 89 01             	mov    %rax,(%r9)
    4cde:	|  |  |  |  |  |  |  |   49 83 c1 08          	add    $0x8,%r9
    4ce2:	|  |  |  |  |  |  |  |   48 81 c6 00 00 40 00 	add    $0x400000,%rsi
    4ce9:	|  |  |  |  |  |  |  |   49 39 e9             	cmp    %rbp,%r9
    4cec:	|  |  |  \--|--|--|--|-- 0f 85 26 ff ff ff    	jne    4c18 <_ZN11BuilderBaseIi10NodeWeightIiiEiLb1EE17ParallelPrefixSumERK7pvectorIiE._omp_fn.0+0x88>
/home/aliha951/forked_gapbs/gapbs/src/builder.h:110
    #pragma omp parallel for
    4cf2:	\--|--|-----|--|--|--|-> 5b                   	pop    %rbx
    4cf3:	   |  |     |  |  |  |   5d                   	pop    %rbp
    4cf4:	   |  |     |  |  |  |   41 5c                	pop    %r12
    4cf6:	   |  |     |  |  |  |   c3                   	retq   
    4cf7:	   |  |     |  |  |  |   66 0f 1f 84 00 00 00 	nopw   0x0(%rax,%rax,1)
    4cfe:	00 00 
/home/aliha951/forked_gapbs/gapbs/src/builder.h:112
      SGOffset lsum = 0;
    4d00:	   |  |     \--|--|--|-> 31 c0                	xor    %eax,%eax
    4d02:	   |  |        |  |  \-- eb d7                	jmp    4cdb <_ZN11BuilderBaseIi10NodeWeightIiiEiLb1EE17ParallelPrefixSumERK7pvectorIiE._omp_fn.0+0x14b>
    4d04:	   |  |        \--|----> 31 c0                	xor    %eax,%eax
    4d06:	   |  |           \----- eb a2                	jmp    4caa <_ZN11BuilderBaseIi10NodeWeightIiiEiLb1EE17ParallelPrefixSumERK7pvectorIiE._omp_fn.0+0x11a>
    4d08:	   |  \----------------> 48 83 c0 01          	add    $0x1,%rax
/home/aliha951/forked_gapbs/gapbs/src/builder.h:110
    #pragma omp parallel for
    4d0c:	   |                     31 d2                	xor    %edx,%edx
    4d0e:	   \-------------------- e9 b8 fe ff ff       	jmpq   4bcb <_ZN11BuilderBaseIi10NodeWeightIiiEiLb1EE17ParallelPrefixSumERK7pvectorIiE._omp_fn.0+0x3b>
    4d13:	                         66 66 2e 0f 1f 84 00 	data16 nopw %cs:0x0(%rax,%rax,1)
    4d1a:	00 00 00 00 
    4d1e:	                         66 90                	xchg   %ax,%ax

0000000000004d20 <_ZN11BuilderBaseIi10NodeWeightIiiEiLb1EE17ParallelPrefixSumERK7pvectorIiE._omp_fn.1>:
_ZN11BuilderBaseIi10NodeWeightIiiEiLb1EE17ParallelPrefixSumERK7pvectorIiE._omp_fn.1():
/home/aliha951/forked_gapbs/gapbs/src/builder.h:126
      bulk_prefix[block] = total;
      total += local_sums[block];
    }
    bulk_prefix[num_blocks] = total;
    pvector<SGOffset> prefix(degrees.size() + 1);
    #pragma omp parallel for
    4d20:	                   f3 0f 1e fa          	endbr64 
    4d24:	                   41 54                	push   %r12
    4d26:	                   55                   	push   %rbp
    4d27:	                   53                   	push   %rbx
    4d28:	                   48 8b 5f 10          	mov    0x10(%rdi),%rbx
    4d2c:	                   48 85 db             	test   %rbx,%rbx
    4d2f:	/----------------- 0f 84 98 00 00 00    	je     4dcd <_ZN11BuilderBaseIi10NodeWeightIiiEiLb1EE17ParallelPrefixSumERK7pvectorIiE._omp_fn.1+0xad>
    4d35:	|                  48 89 fd             	mov    %rdi,%rbp
    4d38:	|                  e8 03 ec ff ff       	callq  3940 <omp_get_num_threads@plt>
    4d3d:	|                  41 89 c4             	mov    %eax,%r12d
    4d40:	|                  e8 4b eb ff ff       	callq  3890 <omp_get_thread_num@plt>
    4d45:	|                  49 63 cc             	movslq %r12d,%rcx
    4d48:	|                  31 d2                	xor    %edx,%edx
    4d4a:	|                  4c 63 c8             	movslq %eax,%r9
    4d4d:	|                  48 89 d8             	mov    %rbx,%rax
    4d50:	|                  48 f7 f1             	div    %rcx
    4d53:	|                  49 39 d1             	cmp    %rdx,%r9
    4d56:	|     /----------- 72 7a                	jb     4dd2 <_ZN11BuilderBaseIi10NodeWeightIiiEiLb1EE17ParallelPrefixSumERK7pvectorIiE._omp_fn.1+0xb2>
    4d58:	|  /--|----------> 4c 0f af c8          	imul   %rax,%r9
    4d5c:	|  |  |            49 01 d1             	add    %rdx,%r9
    4d5f:	|  |  |            4c 01 c8             	add    %r9,%rax
    4d62:	|  |  |            49 39 c1             	cmp    %rax,%r9
    4d65:	+--|--|----------- 73 66                	jae    4dcd <_ZN11BuilderBaseIi10NodeWeightIiiEiLb1EE17ParallelPrefixSumERK7pvectorIiE._omp_fn.1+0xad>
/home/aliha951/forked_gapbs/gapbs/src/builder.h:129
    for (size_t block=0; block < num_blocks; block++) {
      SGOffset local_total = bulk_prefix[block];
      size_t block_end = std::min((block + 1) * block_size, degrees.size());
    4d67:	|  |  |            48 8b 4d 00          	mov    0x0(%rbp),%rcx
_ZN7pvectorIlEixEm():
/home/aliha951/forked_gapbs/gapbs/src/pvector.h:116
    return start_[n];
    4d6b:	|  |  |            48 8b 55 18          	mov    0x18(%rbp),%rdx
_ZN11BuilderBaseIi10NodeWeightIiiEiLb1EE17ParallelPrefixSumERK7pvectorIiE._omp_fn.1():
/home/aliha951/forked_gapbs/gapbs/src/builder.h:131
      for (size_t i=block * block_size; i < block_end; i++) {
        prefix[i] = local_total;
    4d6f:	|  |  |            48 8b 6d 08          	mov    0x8(%rbp),%rbp
_ZNK7pvectorIiE4sizeEv():
/home/aliha951/forked_gapbs/gapbs/src/pvector.h:143
    return end_size_ - start_;
    4d73:	|  |  |            4c 8b 01             	mov    (%rcx),%r8
    4d76:	|  |  |            4c 8b 59 08          	mov    0x8(%rcx),%r11
_ZN7pvectorIlEixEm():
/home/aliha951/forked_gapbs/gapbs/src/pvector.h:116
    return start_[n];
    4d7a:	|  |  |            48 8b 12             	mov    (%rdx),%rdx
_ZNK7pvectorIiE4sizeEv():
/home/aliha951/forked_gapbs/gapbs/src/pvector.h:143
    return end_size_ - start_;
    4d7d:	|  |  |            4d 29 c3             	sub    %r8,%r11
    4d80:	|  |  |            4e 8d 14 ca          	lea    (%rdx,%r9,8),%r10
    4d84:	|  |  |            49 c1 fb 02          	sar    $0x2,%r11
    4d88:	|  |  |            49 c1 e1 14          	shl    $0x14,%r9
    4d8c:	|  |  |            48 8d 1c c2          	lea    (%rdx,%rax,8),%rbx
_ZN7pvectorIlEixEm():
/home/aliha951/forked_gapbs/gapbs/src/pvector.h:115
  T_& operator[](size_t n) {
    4d90:	|  |  |  /-------> 4c 89 c8             	mov    %r9,%rax
_ZN11BuilderBaseIi10NodeWeightIiiEiLb1EE17ParallelPrefixSumERK7pvectorIiE._omp_fn.1():
/home/aliha951/forked_gapbs/gapbs/src/builder.h:129
      size_t block_end = std::min((block + 1) * block_size, degrees.size());
    4d93:	|  |  |  |         49 81 c1 00 00 10 00 	add    $0x100000,%r9
    4d9a:	|  |  |  |         4c 89 de             	mov    %r11,%rsi
/home/aliha951/forked_gapbs/gapbs/src/builder.h:128
      SGOffset local_total = bulk_prefix[block];
    4d9d:	|  |  |  |         49 8b 12             	mov    (%r10),%rdx
_ZNK7pvectorIiE4sizeEv():
/home/aliha951/forked_gapbs/gapbs/src/pvector.h:142
  size_t size() const {
    4da0:	|  |  |  |         4d 39 d9             	cmp    %r11,%r9
    4da3:	|  |  |  |         49 0f 46 f1          	cmovbe %r9,%rsi
_ZN11BuilderBaseIi10NodeWeightIiiEiLb1EE17ParallelPrefixSumERK7pvectorIiE._omp_fn.1():
/home/aliha951/forked_gapbs/gapbs/src/builder.h:130
      for (size_t i=block * block_size; i < block_end; i++) {
    4da7:	|  |  |  |         48 39 c6             	cmp    %rax,%rsi
    4daa:	|  |  |  |  /----- 76 18                	jbe    4dc4 <_ZN11BuilderBaseIi10NodeWeightIiiEiLb1EE17ParallelPrefixSumERK7pvectorIiE._omp_fn.1+0xa4>
_ZN7pvectorIlEixEm():
/home/aliha951/forked_gapbs/gapbs/src/pvector.h:116
    return start_[n];
    4dac:	|  |  |  |  |      48 8b 7d 00          	mov    0x0(%rbp),%rdi
_ZN11BuilderBaseIi10NodeWeightIiiEiLb1EE17ParallelPrefixSumERK7pvectorIiE._omp_fn.1():
/home/aliha951/forked_gapbs/gapbs/src/builder.h:132 (discriminator 2)
        local_total += degrees[i];
    4db0:	|  |  |  |  |  /-> 49 63 0c 80          	movslq (%r8,%rax,4),%rcx
/home/aliha951/forked_gapbs/gapbs/src/builder.h:131 (discriminator 2)
        prefix[i] = local_total;
    4db4:	|  |  |  |  |  |   48 89 14 c7          	mov    %rdx,(%rdi,%rax,8)
/home/aliha951/forked_gapbs/gapbs/src/builder.h:130 (discriminator 2)
      for (size_t i=block * block_size; i < block_end; i++) {
    4db8:	|  |  |  |  |  |   48 83 c0 01          	add    $0x1,%rax
/home/aliha951/forked_gapbs/gapbs/src/builder.h:132 (discriminator 2)
        local_total += degrees[i];
    4dbc:	|  |  |  |  |  |   48 01 ca             	add    %rcx,%rdx
/home/aliha951/forked_gapbs/gapbs/src/builder.h:130 (discriminator 2)
      for (size_t i=block * block_size; i < block_end; i++) {
    4dbf:	|  |  |  |  |  |   48 39 c6             	cmp    %rax,%rsi
    4dc2:	|  |  |  |  |  \-- 75 ec                	jne    4db0 <_ZN11BuilderBaseIi10NodeWeightIiiEiLb1EE17ParallelPrefixSumERK7pvectorIiE._omp_fn.1+0x90>
    4dc4:	|  |  |  |  \----> 49 83 c2 08          	add    $0x8,%r10
    4dc8:	|  |  |  |         49 39 da             	cmp    %rbx,%r10
    4dcb:	|  |  |  \-------- 75 c3                	jne    4d90 <_ZN11BuilderBaseIi10NodeWeightIiiEiLb1EE17ParallelPrefixSumERK7pvectorIiE._omp_fn.1+0x70>
/home/aliha951/forked_gapbs/gapbs/src/builder.h:126
    #pragma omp parallel for
    4dcd:	\--|--|----------> 5b                   	pop    %rbx
    4dce:	   |  |            5d                   	pop    %rbp
    4dcf:	   |  |            41 5c                	pop    %r12
    4dd1:	   |  |            c3                   	retq   
    4dd2:	   |  \----------> 48 83 c0 01          	add    $0x1,%rax
    4dd6:	   |               31 d2                	xor    %edx,%edx
    4dd8:	   \-------------- e9 7b ff ff ff       	jmpq   4d58 <_ZN11BuilderBaseIi10NodeWeightIiiEiLb1EE17ParallelPrefixSumERK7pvectorIiE._omp_fn.1+0x38>
    4ddd:	                   0f 1f 00             	nopl   (%rax)

0000000000004de0 <_ZSt16__insertion_sortIP10NodeWeightIiiEN9__gnu_cxx5__ops15_Iter_less_iterEEvT_S6_T0_.isra.0>:
_ZSt16__insertion_sortIP10NodeWeightIiiEN9__gnu_cxx5__ops15_Iter_less_iterEEvT_S6_T0_():
/usr/include/c++/10/bits/stl_algo.h:1847
    _GLIBCXX20_CONSTEXPR
    void
    __insertion_sort(_RandomAccessIterator __first,
		     _RandomAccessIterator __last, _Compare __comp)
    {
      if (__first == __last) return;
    4de0:	                      48 39 f7             	cmp    %rsi,%rdi
    4de3:	/-------------------- 0f 84 d7 00 00 00    	je     4ec0 <_ZSt16__insertion_sortIP10NodeWeightIiiEN9__gnu_cxx5__ops15_Iter_less_iterEEvT_S6_T0_.isra.0+0xe0>
/usr/include/c++/10/bits/stl_algo.h:1844
    __insertion_sort(_RandomAccessIterator __first,
    4de9:	|                     41 57                	push   %r15
    4deb:	|                     49 89 f7             	mov    %rsi,%r15
    4dee:	|                     41 56                	push   %r14
    4df0:	|                     41 55                	push   %r13
    4df2:	|                     49 89 fd             	mov    %rdi,%r13
    4df5:	|                     41 54                	push   %r12
    4df7:	|                     55                   	push   %rbp
/usr/include/c++/10/bits/stl_algo.h:1849

      for (_RandomAccessIterator __i = __first + 1; __i != __last; ++__i)
    4df8:	|                     48 8d 6f 08          	lea    0x8(%rdi),%rbp
/usr/include/c++/10/bits/stl_algo.h:1844
    __insertion_sort(_RandomAccessIterator __first,
    4dfc:	|                     53                   	push   %rbx
    4dfd:	|                     48 83 ec 08          	sub    $0x8,%rsp
/usr/include/c++/10/bits/stl_algo.h:1849
      for (_RandomAccessIterator __i = __first + 1; __i != __last; ++__i)
    4e01:	|                     48 39 ee             	cmp    %rbp,%rsi
    4e04:	|  /----------------- 0f 84 9f 00 00 00    	je     4ea9 <_ZSt16__insertion_sortIP10NodeWeightIiiEN9__gnu_cxx5__ops15_Iter_less_iterEEvT_S6_T0_.isra.0+0xc9>
_ZNSt20__copy_move_backwardILb1ELb1ESt26random_access_iterator_tagE13__copy_move_bI10NodeWeightIiiEEEPT_PKS5_S8_S6_():
/usr/include/c++/10/bits/stl_algobase.h:691
	  // trivial types can have deleted assignment
	  static_assert( __assignable::type::value, "type is not assignable" );
#endif
	  const ptrdiff_t _Num = __last - __first;
	  if (_Num)
	    __builtin_memmove(__result - _Num, __first, sizeof(_Tp) * _Num);
    4e0a:	|  |                  41 bc 08 00 00 00    	mov    $0x8,%r12d
    4e10:	|  |  /-------------- eb 3c                	jmp    4e4e <_ZSt16__insertion_sortIP10NodeWeightIiiEN9__gnu_cxx5__ops15_Iter_less_iterEEvT_S6_T0_.isra.0+0x6e>
    4e12:	|  |  |               66 0f 1f 44 00 00    	nopw   0x0(%rax,%rax,1)
_ZSt16__insertion_sortIP10NodeWeightIiiEN9__gnu_cxx5__ops15_Iter_less_iterEEvT_S6_T0_():
/usr/include/c++/10/bits/stl_algo.h:1851
	{
	  if (__comp(__i, __first))
    4e18:	|  |  |  /-----/----X 7d 47                	jge    4e61 <_ZSt16__insertion_sortIP10NodeWeightIiiEN9__gnu_cxx5__ops15_Iter_less_iterEEvT_S6_T0_.isra.0+0x81>
_ZNSt20__copy_move_backwardILb1ELb1ESt26random_access_iterator_tagE13__copy_move_bI10NodeWeightIiiEEEPT_PKS5_S8_S6_():
/usr/include/c++/10/bits/stl_algobase.h:690
	  if (_Num)
    4e1a:	|  |  |  |  /--|----> 49 39 ed             	cmp    %rbp,%r13
    4e1d:	|  |  |  |  |  |  /-- 74 13                	je     4e32 <_ZSt16__insertion_sortIP10NodeWeightIiiEN9__gnu_cxx5__ops15_Iter_less_iterEEvT_S6_T0_.isra.0+0x52>
/usr/include/c++/10/bits/stl_algobase.h:691
	    __builtin_memmove(__result - _Num, __first, sizeof(_Tp) * _Num);
    4e1f:	|  |  |  |  |  |  |   48 89 ea             	mov    %rbp,%rdx
    4e22:	|  |  |  |  |  |  |   4b 8d 7c 25 00       	lea    0x0(%r13,%r12,1),%rdi
    4e27:	|  |  |  |  |  |  |   4c 89 ee             	mov    %r13,%rsi
    4e2a:	|  |  |  |  |  |  |   4c 29 ea             	sub    %r13,%rdx
    4e2d:	|  |  |  |  |  |  |   e8 6e ea ff ff       	callq  38a0 <memmove@plt>
_ZSt16__insertion_sortIP10NodeWeightIiiEN9__gnu_cxx5__ops15_Iter_less_iterEEvT_S6_T0_():
/usr/include/c++/10/bits/stl_algo.h:1856
	    {
	      typename iterator_traits<_RandomAccessIterator>::value_type
		__val = _GLIBCXX_MOVE(*__i);
	      _GLIBCXX_MOVE_BACKWARD3(__first, __i, __i + 1);
	      *__first = _GLIBCXX_MOVE(__val);
    4e32:	|  |  |  |  |  |  \-> 66 0f 6e c3          	movd   %ebx,%xmm0
    4e36:	|  |  |  |  |  |      66 41 0f 6e ce       	movd   %r14d,%xmm1
/usr/include/c++/10/bits/stl_algo.h:1849
      for (_RandomAccessIterator __i = __first + 1; __i != __last; ++__i)
    4e3b:	|  |  |  |  |  |      48 83 c5 08          	add    $0x8,%rbp
/usr/include/c++/10/bits/stl_algo.h:1856
	      *__first = _GLIBCXX_MOVE(__val);
    4e3f:	|  |  |  |  |  |      66 0f 62 c1          	punpckldq %xmm1,%xmm0
    4e43:	|  |  |  |  |  |      66 41 0f d6 45 00    	movq   %xmm0,0x0(%r13)
/usr/include/c++/10/bits/stl_algo.h:1849
      for (_RandomAccessIterator __i = __first + 1; __i != __last; ++__i)
    4e49:	|  |  |  |  |  |      49 39 ef             	cmp    %rbp,%r15
    4e4c:	|  +--|--|--|--|----- 74 5b                	je     4ea9 <_ZSt16__insertion_sortIP10NodeWeightIiiEN9__gnu_cxx5__ops15_Iter_less_iterEEvT_S6_T0_.isra.0+0xc9>
_ZNK10NodeWeightIiiEltERKS0_():
/home/aliha951/forked_gapbs/gapbs/src/graph.h:39
    return v == rhs.v ? w < rhs.w : v < rhs.v;
    4e4e:	|  |  >--|--|--|----> 8b 5d 00             	mov    0x0(%rbp),%ebx
    4e51:	|  |  |  |  |  |      44 8b 75 04          	mov    0x4(%rbp),%r14d
    4e55:	|  |  |  |  |  |      41 3b 5d 00          	cmp    0x0(%r13),%ebx
    4e59:	|  |  |  |  |  \----- 75 bd                	jne    4e18 <_ZSt16__insertion_sortIP10NodeWeightIiiEN9__gnu_cxx5__ops15_Iter_less_iterEEvT_S6_T0_.isra.0+0x38>
_ZSt16__insertion_sortIP10NodeWeightIiiEN9__gnu_cxx5__ops15_Iter_less_iterEEvT_S6_T0_():
/usr/include/c++/10/bits/stl_algo.h:1851
	  if (__comp(__i, __first))
    4e5b:	|  |  |  |  |         45 39 75 04          	cmp    %r14d,0x4(%r13)
    4e5f:	|  |  |  |  \-------- 7f b9                	jg     4e1a <_ZSt16__insertion_sortIP10NodeWeightIiiEN9__gnu_cxx5__ops15_Iter_less_iterEEvT_S6_T0_.isra.0+0x3a>
_ZSt25__unguarded_linear_insertIP10NodeWeightIiiEN9__gnu_cxx5__ops14_Val_less_iterEEvT_T0_():
/usr/include/c++/10/bits/stl_algo.h:1824
    __unguarded_linear_insert(_RandomAccessIterator __last,
    4e61:	|  |  |  \----------> 48 89 e8             	mov    %rbp,%rax
    4e64:	|  |  |           /-- eb 15                	jmp    4e7b <_ZSt16__insertion_sortIP10NodeWeightIiiEN9__gnu_cxx5__ops15_Iter_less_iterEEvT_S6_T0_.isra.0+0x9b>
    4e66:	|  |  |           |   66 2e 0f 1f 84 00 00 	nopw   %cs:0x0(%rax,%rax,1)
    4e6d:	00 00 00 
/usr/include/c++/10/bits/stl_algo.h:1831
      while (__comp(__val, __next))
    4e70:	|  |  |        /--|-> 39 d3                	cmp    %edx,%ebx
    4e72:	|  |  |  /-----|--|-- 7d 1b                	jge    4e8f <_ZSt16__insertion_sortIP10NodeWeightIiiEN9__gnu_cxx5__ops15_Iter_less_iterEEvT_S6_T0_.isra.0+0xaf>
/usr/include/c++/10/bits/stl_algo.h:1833
	  *__last = _GLIBCXX_MOVE(*__next);
    4e74:	|  |  |  |  /--|--|-> 48 8b 10             	mov    (%rax),%rdx
    4e77:	|  |  |  |  |  |  |   48 89 50 08          	mov    %rdx,0x8(%rax)
_ZNK10NodeWeightIiiEltERKS0_():
/home/aliha951/forked_gapbs/gapbs/src/graph.h:39
    4e7b:	|  |  |  |  |  |  \-> 8b 50 f8             	mov    -0x8(%rax),%edx
    4e7e:	|  |  |  |  |  |      48 89 c1             	mov    %rax,%rcx
_ZSt25__unguarded_linear_insertIP10NodeWeightIiiEN9__gnu_cxx5__ops14_Val_less_iterEEvT_T0_():
/usr/include/c++/10/bits/stl_algo.h:1831
      while (__comp(__val, __next))
    4e81:	|  |  |  |  |  |      48 83 e8 08          	sub    $0x8,%rax
_ZNK10NodeWeightIiiEltERKS0_():
/home/aliha951/forked_gapbs/gapbs/src/graph.h:39
    4e85:	|  |  |  |  |  |      39 d3                	cmp    %edx,%ebx
    4e87:	|  |  |  |  |  \----- 75 e7                	jne    4e70 <_ZSt16__insertion_sortIP10NodeWeightIiiEN9__gnu_cxx5__ops15_Iter_less_iterEEvT_S6_T0_.isra.0+0x90>
_ZSt25__unguarded_linear_insertIP10NodeWeightIiiEN9__gnu_cxx5__ops14_Val_less_iterEEvT_T0_():
/usr/include/c++/10/bits/stl_algo.h:1831
    4e89:	|  |  |  |  |         44 39 71 fc          	cmp    %r14d,-0x4(%rcx)
    4e8d:	|  |  |  |  \-------- 7f e5                	jg     4e74 <_ZSt16__insertion_sortIP10NodeWeightIiiEN9__gnu_cxx5__ops15_Iter_less_iterEEvT_S6_T0_.isra.0+0x94>
/usr/include/c++/10/bits/stl_algo.h:1837
      *__last = _GLIBCXX_MOVE(__val);
    4e8f:	|  |  |  \----------> 66 0f 6e c3          	movd   %ebx,%xmm0
    4e93:	|  |  |               66 41 0f 6e d6       	movd   %r14d,%xmm2
_ZSt16__insertion_sortIP10NodeWeightIiiEN9__gnu_cxx5__ops15_Iter_less_iterEEvT_S6_T0_():
/usr/include/c++/10/bits/stl_algo.h:1849
      for (_RandomAccessIterator __i = __first + 1; __i != __last; ++__i)
    4e98:	|  |  |               48 83 c5 08          	add    $0x8,%rbp
_ZSt25__unguarded_linear_insertIP10NodeWeightIiiEN9__gnu_cxx5__ops14_Val_less_iterEEvT_T0_():
/usr/include/c++/10/bits/stl_algo.h:1837
      *__last = _GLIBCXX_MOVE(__val);
    4e9c:	|  |  |               66 0f 62 c2          	punpckldq %xmm2,%xmm0
    4ea0:	|  |  |               66 0f d6 01          	movq   %xmm0,(%rcx)
_ZSt16__insertion_sortIP10NodeWeightIiiEN9__gnu_cxx5__ops15_Iter_less_iterEEvT_S6_T0_():
/usr/include/c++/10/bits/stl_algo.h:1849
      for (_RandomAccessIterator __i = __first + 1; __i != __last; ++__i)
    4ea4:	|  |  |               49 39 ef             	cmp    %rbp,%r15
    4ea7:	|  |  \-------------- 75 a5                	jne    4e4e <_ZSt16__insertion_sortIP10NodeWeightIiiEN9__gnu_cxx5__ops15_Iter_less_iterEEvT_S6_T0_.isra.0+0x6e>
/usr/include/c++/10/bits/stl_algo.h:1862
	    }
	  else
	    std::__unguarded_linear_insert(__i,
				__gnu_cxx::__ops::__val_comp_iter(__comp));
	}
    }
    4ea9:	|  \----------------> 48 83 c4 08          	add    $0x8,%rsp
    4ead:	|                     5b                   	pop    %rbx
    4eae:	|                     5d                   	pop    %rbp
    4eaf:	|                     41 5c                	pop    %r12
    4eb1:	|                     41 5d                	pop    %r13
    4eb3:	|                     41 5e                	pop    %r14
    4eb5:	|                     41 5f                	pop    %r15
    4eb7:	|                     c3                   	retq   
    4eb8:	|                     0f 1f 84 00 00 00 00 	nopl   0x0(%rax,%rax,1)
    4ebf:	00 
    4ec0:	\-------------------> c3                   	retq   
_ZSt16__insertion_sortIP10NodeWeightIiiEN9__gnu_cxx5__ops15_Iter_less_iterEEvT_S6_T0_.isra.0():
/usr/include/c++/10/bits/stl_algo.h:1862
    4ec1:	                      66 66 2e 0f 1f 84 00 	data16 nopw %cs:0x0(%rax,%rax,1)
    4ec8:	00 00 00 00 
    4ecc:	                      0f 1f 40 00          	nopl   0x0(%rax)

0000000000004ed0 <_ZSt4endlIcSt11char_traitsIcEERSt13basic_ostreamIT_T0_ES6_.isra.0>:
_ZSt4endlIcSt11char_traitsIcEERSt13basic_ostreamIT_T0_ES6_():
/usr/include/c++/10/ostream:681
    endl(basic_ostream<_CharT, _Traits>& __os)
    4ed0:	          41 54                	push   %r12
    4ed2:	          55                   	push   %rbp
    4ed3:	          48 83 ec 08          	sub    $0x8,%rsp
/usr/include/c++/10/ostream:682
    { return flush(__os.put(__os.widen('\n'))); }
    4ed7:	          48 8b 07             	mov    (%rdi),%rax
    4eda:	          48 8b 40 e8          	mov    -0x18(%rax),%rax
    4ede:	          4c 8b a4 07 f0 00 00 	mov    0xf0(%rdi,%rax,1),%r12
    4ee5:	00 
_ZSt13__check_facetISt5ctypeIcEERKT_PS3_():
/usr/include/c++/10/bits/basic_ios.h:49
      if (!__f)
    4ee6:	          4d 85 e4             	test   %r12,%r12
    4ee9:	/-------- 74 58                	je     4f43 <_ZSt4endlIcSt11char_traitsIcEERSt13basic_ostreamIT_T0_ES6_.isra.0+0x73>
_ZNKSt5ctypeIcE5widenEc():
/usr/include/c++/10/bits/locale_facets.h:874
	if (_M_widen_ok)
    4eeb:	|         41 80 7c 24 38 00    	cmpb   $0x0,0x38(%r12)
    4ef1:	|         48 89 fd             	mov    %rdi,%rbp
    4ef4:	|     /-- 74 22                	je     4f18 <_ZSt4endlIcSt11char_traitsIcEERSt13basic_ostreamIT_T0_ES6_.isra.0+0x48>
_ZSt4endlIcSt11char_traitsIcEERSt13basic_ostreamIT_T0_ES6_():
/usr/include/c++/10/ostream:682
    4ef6:	|     |   41 0f be 74 24 43    	movsbl 0x43(%r12),%esi
    4efc:	|  /--|-> 48 89 ef             	mov    %rbp,%rdi
    4eff:	|  |  |   e8 fc e5 ff ff       	callq  3500 <_ZNSo3putEc@plt>
    4f04:	|  |  |   48 83 c4 08          	add    $0x8,%rsp
    4f08:	|  |  |   5d                   	pop    %rbp
    4f09:	|  |  |   48 89 c7             	mov    %rax,%rdi
    4f0c:	|  |  |   41 5c                	pop    %r12
_ZSt5flushIcSt11char_traitsIcEERSt13basic_ostreamIT_T0_ES6_():
/usr/include/c++/10/ostream:704
    { return __os.flush(); }
    4f0e:	|  |  |   e9 5d e7 ff ff       	jmpq   3670 <_ZNSo5flushEv@plt>
    4f13:	|  |  |   0f 1f 44 00 00       	nopl   0x0(%rax,%rax,1)
_ZNKSt5ctypeIcE5widenEc():
/usr/include/c++/10/bits/locale_facets.h:876
	this->_M_widen_init();
    4f18:	|  |  \-> 4c 89 e7             	mov    %r12,%rdi
    4f1b:	|  |      e8 50 e8 ff ff       	callq  3770 <_ZNKSt5ctypeIcE13_M_widen_initEv@plt>
/usr/include/c++/10/bits/locale_facets.h:877
	return this->do_widen(__c);
    4f20:	|  |      49 8b 04 24          	mov    (%r12),%rax
    4f24:	|  |      be 0a 00 00 00       	mov    $0xa,%esi
    4f29:	|  |      48 8d 15 70 24 00 00 	lea    0x2470(%rip),%rdx        # 73a0 <_ZNKSt5ctypeIcE8do_widenEc>
    4f30:	|  |      48 8b 40 30          	mov    0x30(%rax),%rax
    4f34:	|  |      48 39 d0             	cmp    %rdx,%rax
    4f37:	|  +----- 74 c3                	je     4efc <_ZSt4endlIcSt11char_traitsIcEERSt13basic_ostreamIT_T0_ES6_.isra.0+0x2c>
    4f39:	|  |      4c 89 e7             	mov    %r12,%rdi
    4f3c:	|  |      ff d0                	callq  *%rax
_ZSt4endlIcSt11char_traitsIcEERSt13basic_ostreamIT_T0_ES6_():
/usr/include/c++/10/ostream:682
    { return flush(__os.put(__os.widen('\n'))); }
    4f3e:	|  |      0f be f0             	movsbl %al,%esi
    4f41:	|  \----- eb b9                	jmp    4efc <_ZSt4endlIcSt11char_traitsIcEERSt13basic_ostreamIT_T0_ES6_.isra.0+0x2c>
_ZSt13__check_facetISt5ctypeIcEERKT_PS3_():
/usr/include/c++/10/bits/basic_ios.h:50
	__throw_bad_cast();
    4f43:	\-------> e8 68 e8 ff ff       	callq  37b0 <_ZSt16__throw_bad_castv@plt>
_ZSt4endlIcSt11char_traitsIcEERSt13basic_ostreamIT_T0_ES6_.isra.0():
/usr/include/c++/10/bits/basic_ios.h:50
    4f48:	          0f 1f 84 00 00 00 00 	nopl   0x0(%rax,%rax,1)
    4f4f:	00 

0000000000004f50 <_ZSt13__adjust_heapIP8EdgePairIi10NodeWeightIiiEElS3_N9__gnu_cxx5__ops15_Iter_less_iterEEvT_T0_S9_T1_T2_.constprop.0>:
_ZSt13__adjust_heapIP8EdgePairIi10NodeWeightIiiEElS3_N9__gnu_cxx5__ops15_Iter_less_iterEEvT_T0_S9_T1_T2_():
/usr/include/c++/10/bits/stl_heap.h:223

  template<typename _RandomAccessIterator, typename _Distance,
	   typename _Tp, typename _Compare>
    _GLIBCXX20_CONSTEXPR
    void
    __adjust_heap(_RandomAccessIterator __first, _Distance __holeIndex,
    4f50:	                      48 89 d0             	mov    %rdx,%rax
    4f53:	                      41 57                	push   %r15
    4f55:	                      49 89 ca             	mov    %rcx,%r10
    4f58:	                      41 89 d0             	mov    %edx,%r8d
    4f5b:	                      48 c1 e8 20          	shr    $0x20,%rax
    4f5f:	                      41 56                	push   %r14
    4f61:	                      41 89 cb             	mov    %ecx,%r11d
    4f64:	                      49 89 c1             	mov    %rax,%r9
/usr/include/c++/10/bits/stl_heap.h:228
		  _Distance __len, _Tp __value, _Compare __comp)
    {
      const _Distance __topIndex = __holeIndex;
      _Distance __secondChild = __holeIndex;
      while (__secondChild < (__len - 1) / 2)
    4f67:	                      48 8d 46 ff          	lea    -0x1(%rsi),%rax
/usr/include/c++/10/bits/stl_heap.h:223
    __adjust_heap(_RandomAccessIterator __first, _Distance __holeIndex,
    4f6b:	                      41 55                	push   %r13
/usr/include/c++/10/bits/stl_heap.h:237
		     __first + (__secondChild - 1)))
	    __secondChild--;
	  *(__first + __holeIndex) = _GLIBCXX_MOVE(*(__first + __secondChild));
	  __holeIndex = __secondChild;
	}
      if ((__len & 1) == 0 && __secondChild == (__len - 2) / 2)
    4f6d:	                      49 89 f5             	mov    %rsi,%r13
/usr/include/c++/10/bits/stl_heap.h:223
    __adjust_heap(_RandomAccessIterator __first, _Distance __holeIndex,
    4f70:	                      41 54                	push   %r12
/usr/include/c++/10/bits/stl_heap.h:228
      while (__secondChild < (__len - 1) / 2)
    4f72:	                      49 89 c4             	mov    %rax,%r12
/usr/include/c++/10/bits/stl_heap.h:237
      if ((__len & 1) == 0 && __secondChild == (__len - 2) / 2)
    4f75:	                      41 83 e5 01          	and    $0x1,%r13d
/usr/include/c++/10/bits/stl_heap.h:223
    __adjust_heap(_RandomAccessIterator __first, _Distance __holeIndex,
    4f79:	                      55                   	push   %rbp
/usr/include/c++/10/bits/stl_heap.h:228
      while (__secondChild < (__len - 1) / 2)
    4f7a:	                      49 c1 ec 3f          	shr    $0x3f,%r12
/usr/include/c++/10/bits/stl_heap.h:223
    __adjust_heap(_RandomAccessIterator __first, _Distance __holeIndex,
    4f7e:	                      53                   	push   %rbx
/usr/include/c++/10/bits/stl_heap.h:228
      while (__secondChild < (__len - 1) / 2)
    4f7f:	                      49 01 c4             	add    %rax,%r12
    4f82:	                      49 d1 fc             	sar    %r12
/usr/include/c++/10/bits/stl_heap.h:223
    __adjust_heap(_RandomAccessIterator __first, _Distance __holeIndex,
    4f85:	                      48 89 54 24 f0       	mov    %rdx,-0x10(%rsp)
    4f8a:	                      89 4c 24 f8          	mov    %ecx,-0x8(%rsp)
/usr/include/c++/10/bits/stl_heap.h:228
      while (__secondChild < (__len - 1) / 2)
    4f8e:	                      48 83 fe 02          	cmp    $0x2,%rsi
    4f92:	/-------------------- 0f 8e 58 01 00 00    	jle    50f0 <_ZSt13__adjust_heapIP8EdgePairIi10NodeWeightIiiEElS3_N9__gnu_cxx5__ops15_Iter_less_iterEEvT_T0_S9_T1_T2_.constprop.0+0x1a0>
    4f98:	|                     48 89 f5             	mov    %rsi,%rbp
    4f9b:	|                     31 c9                	xor    %ecx,%ecx
    4f9d:	|              /----- eb 2e                	jmp    4fcd <_ZSt13__adjust_heapIP8EdgePairIi10NodeWeightIiiEElS3_N9__gnu_cxx5__ops15_Iter_less_iterEEvT_T0_S9_T1_T2_.constprop.0+0x7d>
    4f9f:	|              |      90                   	nop
/usr/include/c++/10/bits/stl_heap.h:231
	  if (__comp(__first + __secondChild,
    4fa0:	|           /--|----> 45 84 ff             	test   %r15b,%r15b
    4fa3:	|           |  |  /-- 74 0c                	je     4fb1 <_ZSt13__adjust_heapIP8EdgePairIi10NodeWeightIiiEElS3_N9__gnu_cxx5__ops15_Iter_less_iterEEvT_T0_S9_T1_T2_.constprop.0+0x61>
/usr/include/c++/10/bits/stl_heap.h:233
	    __secondChild--;
    4fa5:	|           |  |  |   48 83 e8 01          	sub    $0x1,%rax
/usr/include/c++/10/bits/stl_heap.h:234
	  *(__first + __holeIndex) = _GLIBCXX_MOVE(*(__first + __secondChild));
    4fa9:	|           |  |  |   48 8d 14 40          	lea    (%rax,%rax,2),%rdx
    4fad:	|           |  |  |   48 8d 14 97          	lea    (%rdi,%rdx,4),%rdx
    4fb1:	|           |  |  \-> 48 8b 32             	mov    (%rdx),%rsi
    4fb4:	|           |  |      48 8d 0c 49          	lea    (%rcx,%rcx,2),%rcx
    4fb8:	|           |  |      48 8d 0c 8f          	lea    (%rdi,%rcx,4),%rcx
    4fbc:	|           |  |      48 89 31             	mov    %rsi,(%rcx)
    4fbf:	|           |  |      8b 72 08             	mov    0x8(%rdx),%esi
    4fc2:	|           |  |      89 71 08             	mov    %esi,0x8(%rcx)
/usr/include/c++/10/bits/stl_heap.h:228
      while (__secondChild < (__len - 1) / 2)
    4fc5:	|           |  |      4c 39 e0             	cmp    %r12,%rax
    4fc8:	|           |  |  /-- 7d 46                	jge    5010 <_ZSt13__adjust_heapIP8EdgePairIi10NodeWeightIiiEElS3_N9__gnu_cxx5__ops15_Iter_less_iterEEvT_T0_S9_T1_T2_.constprop.0+0xc0>
/usr/include/c++/10/bits/stl_heap.h:223
    __adjust_heap(_RandomAccessIterator __first, _Distance __holeIndex,
    4fca:	|           |  |  |   48 89 c1             	mov    %rax,%rcx
/usr/include/c++/10/bits/stl_heap.h:230
	  __secondChild = 2 * (__secondChild + 1);
    4fcd:	|           |  \--|-> 48 8d 51 01          	lea    0x1(%rcx),%rdx
    4fd1:	|           |     |   48 8d 04 12          	lea    (%rdx,%rdx,1),%rax
/usr/include/c++/10/bits/stl_heap.h:232
		     __first + (__secondChild - 1)))
    4fd5:	|           |     |   48 8d 14 90          	lea    (%rax,%rdx,4),%rdx
    4fd9:	|           |     |   48 c1 e2 02          	shl    $0x2,%rdx
/usr/include/c++/10/bits/stl_heap.h:231
	  if (__comp(__first + __secondChild,
    4fdd:	|           |     |   4c 8d 74 17 f4       	lea    -0xc(%rdi,%rdx,1),%r14
    4fe2:	|           |     |   48 01 fa             	add    %rdi,%rdx
_ZNK8EdgePairIi10NodeWeightIiiEEltERKS2_():
/home/aliha951/forked_gapbs/gapbs/src/graph.h:83
    return u == rhs.u ? v < rhs.v : u < rhs.u;
    4fe5:	|           |     |   8b 1a                	mov    (%rdx),%ebx
    4fe7:	|           |     |   41 8b 36             	mov    (%r14),%esi
    4fea:	|           |     |   39 f3                	cmp    %esi,%ebx
    4fec:	|           |     |   41 0f 9c c7          	setl   %r15b
    4ff0:	|           +-----|-- 75 ae                	jne    4fa0 <_ZSt13__adjust_heapIP8EdgePairIi10NodeWeightIiiEElS3_N9__gnu_cxx5__ops15_Iter_less_iterEEvT_T0_S9_T1_T2_.constprop.0+0x50>
_ZNK10NodeWeightIiiEltERKS0_():
/home/aliha951/forked_gapbs/gapbs/src/graph.h:39
    return v == rhs.v ? w < rhs.w : v < rhs.v;
    4ff2:	|           |     |   8b 5a 04             	mov    0x4(%rdx),%ebx
    4ff5:	|           |     |   41 8b 76 04          	mov    0x4(%r14),%esi
    4ff9:	|           |     |   39 f3                	cmp    %esi,%ebx
    4ffb:	|           |     |   41 0f 9c c7          	setl   %r15b
    4fff:	|           +-----|-- 75 9f                	jne    4fa0 <_ZSt13__adjust_heapIP8EdgePairIi10NodeWeightIiiEElS3_N9__gnu_cxx5__ops15_Iter_less_iterEEvT_T0_S9_T1_T2_.constprop.0+0x50>
    5001:	|           |     |   41 8b 5e 08          	mov    0x8(%r14),%ebx
    5005:	|           |     |   39 5a 08             	cmp    %ebx,0x8(%rdx)
    5008:	|           |     |   41 0f 9c c7          	setl   %r15b
    500c:	|           \-----|-- eb 92                	jmp    4fa0 <_ZSt13__adjust_heapIP8EdgePairIi10NodeWeightIiiEElS3_N9__gnu_cxx5__ops15_Iter_less_iterEEvT_T0_S9_T1_T2_.constprop.0+0x50>
    500e:	|                 |   66 90                	xchg   %ax,%ax
_ZSt13__adjust_heapIP8EdgePairIi10NodeWeightIiiEElS3_N9__gnu_cxx5__ops15_Iter_less_iterEEvT_T0_S9_T1_T2_():
/usr/include/c++/10/bits/stl_heap.h:237
      if ((__len & 1) == 0 && __secondChild == (__len - 2) / 2)
    5010:	|                 \-> 4d 85 ed             	test   %r13,%r13
    5013:	|        /----------- 0f 84 97 00 00 00    	je     50b0 <_ZSt13__adjust_heapIP8EdgePairIi10NodeWeightIiiEElS3_N9__gnu_cxx5__ops15_Iter_less_iterEEvT_T0_S9_T1_T2_.constprop.0+0x160>
_ZSt11__push_heapIP8EdgePairIi10NodeWeightIiiEElS3_N9__gnu_cxx5__ops14_Iter_less_valEEvT_T0_S9_T1_RT2_():
/usr/include/c++/10/bits/stl_heap.h:138
      _Distance __parent = (__holeIndex - 1) / 2;
    5019:	|        |            48 8d 70 ff          	lea    -0x1(%rax),%rsi
    501d:	|        |            48 d1 fe             	sar    %rsi
/usr/include/c++/10/bits/stl_heap.h:139
      while (__holeIndex > __topIndex && __comp(__first + __parent, __value))
    5020:	|  /-----|----------- eb 3b                	jmp    505d <_ZSt13__adjust_heapIP8EdgePairIi10NodeWeightIiiEElS3_N9__gnu_cxx5__ops15_Iter_less_iterEEvT_T0_S9_T1_T2_.constprop.0+0x10d>
    5022:	|  |     |            66 0f 1f 44 00 00    	nopw   0x0(%rax,%rax,1)
    5028:	|  |     |  /-----/-X 7d 56                	jge    5080 <_ZSt13__adjust_heapIP8EdgePairIi10NodeWeightIiiEElS3_N9__gnu_cxx5__ops15_Iter_less_iterEEvT_T0_S9_T1_T2_.constprop.0+0x130>
/usr/include/c++/10/bits/stl_heap.h:141
	  *(__first + __holeIndex) = _GLIBCXX_MOVE(*(__first + __parent));
    502a:	|  |     |  |  /--|-> 48 8b 0a             	mov    (%rdx),%rcx
    502d:	|  |     |  |  |  |   48 8d 04 40          	lea    (%rax,%rax,2),%rax
    5031:	|  |     |  |  |  |   48 8d 04 87          	lea    (%rdi,%rax,4),%rax
    5035:	|  |     |  |  |  |   48 89 08             	mov    %rcx,(%rax)
    5038:	|  |     |  |  |  |   8b 4a 08             	mov    0x8(%rdx),%ecx
    503b:	|  |     |  |  |  |   89 48 08             	mov    %ecx,0x8(%rax)
/usr/include/c++/10/bits/stl_heap.h:143
	  __parent = (__holeIndex - 1) / 2;
    503e:	|  |     |  |  |  |   48 8d 4e ff          	lea    -0x1(%rsi),%rcx
    5042:	|  |     |  |  |  |   48 89 c8             	mov    %rcx,%rax
    5045:	|  |     |  |  |  |   48 c1 e8 3f          	shr    $0x3f,%rax
    5049:	|  |     |  |  |  |   48 01 c8             	add    %rcx,%rax
    504c:	|  |     |  |  |  |   48 d1 f8             	sar    %rax
    504f:	|  |     |  |  |  |   48 89 c1             	mov    %rax,%rcx
/usr/include/c++/10/bits/stl_heap.h:139
      while (__holeIndex > __topIndex && __comp(__first + __parent, __value))
    5052:	|  |     |  |  |  |   48 89 f0             	mov    %rsi,%rax
    5055:	|  |     |  |  |  |   48 85 f6             	test   %rsi,%rsi
    5058:	|  |  /--|--|--|--|-- 74 2e                	je     5088 <_ZSt13__adjust_heapIP8EdgePairIi10NodeWeightIiiEElS3_N9__gnu_cxx5__ops15_Iter_less_iterEEvT_T0_S9_T1_T2_.constprop.0+0x138>
/usr/include/c++/10/bits/stl_heap.h:143
	  __parent = (__holeIndex - 1) / 2;
    505a:	|  |  |  |  |  |  |   48 89 ce             	mov    %rcx,%rsi
/usr/include/c++/10/bits/stl_heap.h:139
      while (__holeIndex > __topIndex && __comp(__first + __parent, __value))
    505d:	|  >--|--|--|--|--|-> 48 8d 14 76          	lea    (%rsi,%rsi,2),%rdx
    5061:	|  |  |  |  |  |  |   48 8d 14 97          	lea    (%rdi,%rdx,4),%rdx
_ZNK8EdgePairIi10NodeWeightIiiEEltERKS2_():
/home/aliha951/forked_gapbs/gapbs/src/graph.h:83
    return u == rhs.u ? v < rhs.v : u < rhs.u;
    5065:	|  |  |  |  |  |  |   44 39 02             	cmp    %r8d,(%rdx)
    5068:	|  |  |  |  |  |  \-- 75 be                	jne    5028 <_ZSt13__adjust_heapIP8EdgePairIi10NodeWeightIiiEElS3_N9__gnu_cxx5__ops15_Iter_less_iterEEvT_T0_S9_T1_T2_.constprop.0+0xd8>
_ZNK10NodeWeightIiiEltERKS0_():
/home/aliha951/forked_gapbs/gapbs/src/graph.h:39
    return v == rhs.v ? w < rhs.w : v < rhs.v;
    506a:	|  |  |  |  |  |      8b 5a 04             	mov    0x4(%rdx),%ebx
    506d:	|  |  |  |  |  |      44 39 cb             	cmp    %r9d,%ebx
    5070:	|  |  |  |  |  |      0f 9c c1             	setl   %cl
    5073:	|  |  |  |  |  |  /-- 75 07                	jne    507c <_ZSt13__adjust_heapIP8EdgePairIi10NodeWeightIiiEElS3_N9__gnu_cxx5__ops15_Iter_less_iterEEvT_T0_S9_T1_T2_.constprop.0+0x12c>
    5075:	|  |  |  |  |  |  |   44 39 5a 08          	cmp    %r11d,0x8(%rdx)
    5079:	|  |  |  |  |  |  |   0f 9c c1             	setl   %cl
_ZSt11__push_heapIP8EdgePairIi10NodeWeightIiiEElS3_N9__gnu_cxx5__ops14_Iter_less_valEEvT_T0_S9_T1_RT2_():
/usr/include/c++/10/bits/stl_heap.h:139
    507c:	|  |  |  |  |  |  \-> 84 c9                	test   %cl,%cl
    507e:	|  |  |  |  |  \----- 75 aa                	jne    502a <_ZSt13__adjust_heapIP8EdgePairIi10NodeWeightIiiEElS3_N9__gnu_cxx5__ops15_Iter_less_iterEEvT_T0_S9_T1_T2_.constprop.0+0xda>
/usr/include/c++/10/bits/stl_heap.h:145
      *(__first + __holeIndex) = _GLIBCXX_MOVE(__value);
    5080:	|  |  |  |  \-------> 48 8d 04 40          	lea    (%rax,%rax,2),%rax
    5084:	|  |  |  |            48 8d 14 87          	lea    (%rdi,%rax,4),%rdx
    5088:	|  |  >--|----------> 66 41 0f 6e c0       	movd   %r8d,%xmm0
    508d:	|  |  |  |            66 41 0f 6e c9       	movd   %r9d,%xmm1
    5092:	|  |  |  |            44 89 52 08          	mov    %r10d,0x8(%rdx)
    5096:	|  |  |  |            66 0f 62 c1          	punpckldq %xmm1,%xmm0
    509a:	|  |  |  |            66 0f d6 02          	movq   %xmm0,(%rdx)
_ZSt13__adjust_heapIP8EdgePairIi10NodeWeightIiiEElS3_N9__gnu_cxx5__ops15_Iter_less_iterEEvT_T0_S9_T1_T2_():
/usr/include/c++/10/bits/stl_heap.h:248
	}
      __decltype(__gnu_cxx::__ops::__iter_comp_val(_GLIBCXX_MOVE(__comp)))
	__cmp(_GLIBCXX_MOVE(__comp));
      std::__push_heap(__first, __holeIndex, __topIndex,
		       _GLIBCXX_MOVE(__value), __cmp);
    }
    509e:	|  |  |  |            5b                   	pop    %rbx
    509f:	|  |  |  |            5d                   	pop    %rbp
    50a0:	|  |  |  |            41 5c                	pop    %r12
    50a2:	|  |  |  |            41 5d                	pop    %r13
    50a4:	|  |  |  |            41 5e                	pop    %r14
    50a6:	|  |  |  |            41 5f                	pop    %r15
    50a8:	|  |  |  |            c3                   	retq   
    50a9:	|  |  |  |            0f 1f 80 00 00 00 00 	nopl   0x0(%rax)
/usr/include/c++/10/bits/stl_heap.h:237
      if ((__len & 1) == 0 && __secondChild == (__len - 2) / 2)
    50b0:	|  |  |  \----------> 48 83 ed 02          	sub    $0x2,%rbp
_ZSt11__push_heapIP8EdgePairIi10NodeWeightIiiEElS3_N9__gnu_cxx5__ops14_Iter_less_valEEvT_T0_S9_T1_RT2_():
/usr/include/c++/10/bits/stl_heap.h:138
      _Distance __parent = (__holeIndex - 1) / 2;
    50b4:	|  |  |               48 8d 70 ff          	lea    -0x1(%rax),%rsi
_ZSt13__adjust_heapIP8EdgePairIi10NodeWeightIiiEElS3_N9__gnu_cxx5__ops15_Iter_less_iterEEvT_T0_S9_T1_T2_():
/usr/include/c++/10/bits/stl_heap.h:237
      if ((__len & 1) == 0 && __secondChild == (__len - 2) / 2)
    50b8:	|  |  |               48 d1 fd             	sar    %rbp
_ZSt11__push_heapIP8EdgePairIi10NodeWeightIiiEElS3_N9__gnu_cxx5__ops14_Iter_less_valEEvT_T0_S9_T1_RT2_():
/usr/include/c++/10/bits/stl_heap.h:138
      _Distance __parent = (__holeIndex - 1) / 2;
    50bb:	|  |  |               48 d1 fe             	sar    %rsi
_ZSt13__adjust_heapIP8EdgePairIi10NodeWeightIiiEElS3_N9__gnu_cxx5__ops15_Iter_less_iterEEvT_T0_S9_T1_T2_():
/usr/include/c++/10/bits/stl_heap.h:237
      if ((__len & 1) == 0 && __secondChild == (__len - 2) / 2)
    50be:	|  |  |               48 39 c5             	cmp    %rax,%rbp
    50c1:	|  +--|-------------- 75 9a                	jne    505d <_ZSt13__adjust_heapIP8EdgePairIi10NodeWeightIiiEElS3_N9__gnu_cxx5__ops15_Iter_less_iterEEvT_T0_S9_T1_T2_.constprop.0+0x10d>
/usr/include/c++/10/bits/stl_heap.h:239
	  __secondChild = 2 * (__secondChild + 1);
    50c3:	|  |  |           /-> 48 83 c0 01          	add    $0x1,%rax
    50c7:	|  |  |           |   48 8d 34 00          	lea    (%rax,%rax,1),%rsi
/usr/include/c++/10/bits/stl_heap.h:240
	  *(__first + __holeIndex) = _GLIBCXX_MOVE(*(__first
    50cb:	|  |  |           |   48 8d 04 86          	lea    (%rsi,%rax,4),%rax
    50cf:	|  |  |           |   48 8d 04 87          	lea    (%rdi,%rax,4),%rax
    50d3:	|  |  |           |   48 8b 48 f4          	mov    -0xc(%rax),%rcx
    50d7:	|  |  |           |   48 89 0a             	mov    %rcx,(%rdx)
    50da:	|  |  |           |   8b 40 fc             	mov    -0x4(%rax),%eax
    50dd:	|  |  |           |   89 42 08             	mov    %eax,0x8(%rdx)
/usr/include/c++/10/bits/stl_heap.h:242
	  __holeIndex = __secondChild - 1;
    50e0:	|  |  |           |   48 8d 46 ff          	lea    -0x1(%rsi),%rax
_ZSt11__push_heapIP8EdgePairIi10NodeWeightIiiEElS3_N9__gnu_cxx5__ops14_Iter_less_valEEvT_T0_S9_T1_RT2_():
/usr/include/c++/10/bits/stl_heap.h:138
      _Distance __parent = (__holeIndex - 1) / 2;
    50e4:	|  |  |           |   48 83 ee 02          	sub    $0x2,%rsi
    50e8:	|  |  |           |   48 d1 fe             	sar    %rsi
/usr/include/c++/10/bits/stl_heap.h:139
      while (__holeIndex > __topIndex && __comp(__first + __parent, __value))
    50eb:	|  \--|-----------|-- e9 6d ff ff ff       	jmpq   505d <_ZSt13__adjust_heapIP8EdgePairIi10NodeWeightIiiEElS3_N9__gnu_cxx5__ops15_Iter_less_iterEEvT_T0_S9_T1_T2_.constprop.0+0x10d>
_ZSt13__adjust_heapIP8EdgePairIi10NodeWeightIiiEElS3_N9__gnu_cxx5__ops15_Iter_less_iterEEvT_T0_S9_T1_T2_():
/usr/include/c++/10/bits/stl_heap.h:237
      if ((__len & 1) == 0 && __secondChild == (__len - 2) / 2)
    50f0:	\-----|-----------|-> 48 89 fa             	mov    %rdi,%rdx
    50f3:	      |           |   4d 85 ed             	test   %r13,%r13
